

Microchip Technology PIC PRO Macro Assembler V1.30 build 55553 
                                                                                               Fri Mar 28 01:14:28 2014

Microchip Technology Omniscient Code Generator (PRO mode) build 55553
     1                           	processor	12F615
     2                           	opt	pw 120
     3                           	opt	pm
     4                           	psect	nvCOMMON,global,class=COMMON,space=1,delta=1
     5                           	psect	cinit,global,class=CODE,merge=1,delta=2
     6                           	psect	cstackCOMMON,global,class=COMMON,space=1,delta=1
     7                           	psect	maintext,global,class=CODE,split=1,delta=2
     8                           	psect	pa_nodes,global,class=CODE,delta=2
     9                           	dabs	1,0x7E,2
    10  0000                     	;# 
    11  0001                     	;# 
    12  0002                     	;# 
    13  0003                     	;# 
    14  0004                     	;# 
    15  0005                     	;# 
    16  0005                     	;# 
    17  000A                     	;# 
    18  000B                     	;# 
    19  000C                     	;# 
    20  000E                     	;# 
    21  000E                     	;# 
    22  000F                     	;# 
    23  0010                     	;# 
    24  0011                     	;# 
    25  0012                     	;# 
    26  0013                     	;# 
    27  0013                     	;# 
    28  0014                     	;# 
    29  0015                     	;# 
    30  0016                     	;# 
    31  0017                     	;# 
    32  0019                     	;# 
    33  001A                     	;# 
    34  001C                     	;# 
    35  001E                     	;# 
    36  001F                     	;# 
    37  0081                     	;# 
    38  0085                     	;# 
    39  0085                     	;# 
    40  008C                     	;# 
    41  008E                     	;# 
    42  0090                     	;# 
    43  0092                     	;# 
    44  0093                     	;# 
    45  0095                     	;# 
    46  0095                     	;# 
    47  0096                     	;# 
    48  0096                     	;# 
    49  009E                     	;# 
    50  009F                     	;# 
    51                           
    52                           	psect	nvCOMMON
    53  0079                     __pnvCOMMON:	
    54  0079                     _pwd:	
    55  0079                     	ds	4
    56  0015                     _CCP1CON	set	21
    57  0013                     _CCPR1L	set	19
    58  0005                     _PORTA	set	5
    59  0012                     _T2CON	set	18
    60  0029                     _GP1	set	41
    61  002C                     _GP4	set	44
    62  002D                     _GP5	set	45
    63  009F                     _ANSEL	set	159
    64  0092                     _PR2	set	146
    65  0085                     _TRISA	set	133
    66  0095                     _WPU	set	149
    67                           
    68                           ; #config settings
    69  0000                     
    70                           	psect	cinit
    71  03FE                     start_initialization:	
    72  03FE                     __initialization:	
    73  03FE                     end_of_initialization:	
    74                           ;End of C runtime variable initialization code
    75                           
    76  03FE                     __end_of__initialization:	
    77  03FE  0183               	clrf	3
    78  03FF  2B78               	ljmp	_main	;jump to C main() function
    79                           
    80                           	psect	cstackCOMMON
    81  0070                     __pcstackCOMMON:	
    82  0070                     ?_main:	
    83  0070                     ??_main:	
    84                           ; 0 bytes @ 0x0
    85                           
    86                           
    87                           ; 0 bytes @ 0x0
    88  0070                     	ds	3
    89  0073                     main@i:	
    90                           
    91                           ; 1 bytes @ 0x3
    92  0073                     	ds	1
    93  0074                     main@inCnt:	
    94                           
    95                           ; 1 bytes @ 0x4
    96  0074                     	ds	1
    97  0075                     main@RXTX:	
    98                           
    99                           ; 4 bytes @ 0x5
   100  0075                     	ds	4
   101                           
   102                           	psect	maintext
   103  0378                     __pmaintext:	
   104 ;;
   105 ;;Main: autosize = 0, tempsize = 3, incstack = 0, save=0
   106 ;;
   107 ;; *************** function _main *****************
   108 ;; Defined at:
   109 ;;		line 26 in file "main.c"
   110 ;; Parameters:    Size  Location     Type
   111 ;;		None
   112 ;; Auto vars:     Size  Location     Type
   113 ;;  RXTX            4    5[COMMON] struct .
   114 ;;  inCnt           1    4[COMMON] unsigned char 
   115 ;;  i               1    3[COMMON] unsigned char 
   116 ;; Return value:  Size  Location     Type
   117 ;;		None               void
   118 ;; Registers used:
   119 ;;		wreg, status,2, status,0
   120 ;; Tracked objects:
   121 ;;		On entry : 17F/0
   122 ;;		On exit  : 20/0
   123 ;;		Unchanged: 0/0
   124 ;; Data sizes:     COMMON   BANK0
   125 ;;      Params:         0       0
   126 ;;      Locals:         6       0
   127 ;;      Temps:          3       0
   128 ;;      Totals:         9       0
   129 ;;Total ram usage:        9 bytes
   130 ;; This function calls:
   131 ;;		Nothing
   132 ;; This function is called by:
   133 ;;		Startup code after reset
   134 ;; This function uses a non-reentrant model
   135 ;;
   136                           
   137                           
   138                           ;psect for function _main
   139  0378                     _main:	
   140                           
   141                           ;main.c: 27: UINT32_VAL RXTX;
   142                           ;main.c: 28: UINT8 i;
   143                           ;main.c: 29: UINT8 inCnt;
   144                           ;main.c: 30: TRISA=0b00011001;
   145                           
   146                           ;incstack = 0
   147                           ; Regs used in _main: [wreg+status,2+status,0]
   148  0378  3019               	movlw	25
   149  0379  1683               	bsf	3,5	;RP0=1, select bank1
   150  037A  0085               	movwf	5	;volatile
   151                           
   152                           ;main.c: 31: PORTA=0b00100000;
   153  037B  3020               	movlw	32
   154  037C  1283               	bcf	3,5	;RP0=0, select bank0
   155  037D  0085               	movwf	5	;volatile
   156                           
   157                           ;main.c: 32: ANSEL=0;
   158  037E  1683               	bsf	3,5	;RP0=1, select bank1
   159  037F  019F               	clrf	31	;volatile
   160                           
   161                           ;main.c: 33: WPU=0;
   162  0380  0195               	clrf	21	;volatile
   163                           
   164                           ;main.c: 34: T2CON=0b00000100;
   165  0381  3004               	movlw	4
   166  0382  1283               	bcf	3,5	;RP0=0, select bank0
   167  0383  0092               	movwf	18	;volatile
   168                           
   169                           ;main.c: 35: PR2=52;
   170  0384  3034               	movlw	52
   171  0385  1683               	bsf	3,5	;RP0=1, select bank1
   172  0386  0092               	movwf	18	;volatile
   173                           
   174                           ;main.c: 36: CCP1CON=0b00001111;
   175  0387  300F               	movlw	15
   176  0388  1283               	bcf	3,5	;RP0=0, select bank0
   177  0389  0095               	movwf	21	;volatile
   178                           
   179                           ;main.c: 37: CCPR1L=24;
   180  038A  3018               	movlw	24
   181  038B  0093               	movwf	19	;volatile
   182                           
   183                           ;main.c: 38: pwd.v[0]='W';
   184  038C  3057               	movlw	87
   185  038D  00F9               	movwf	_pwd
   186                           
   187                           ;main.c: 39: pwd.v[1]='a';
   188  038E  3061               	movlw	97
   189  038F  00FA               	movwf	_pwd+1
   190                           
   191                           ;main.c: 40: pwd.v[2]='K';
   192  0390  304B               	movlw	75
   193  0391  00FB               	movwf	_pwd+2
   194                           
   195                           ;main.c: 41: pwd.v[3]='e';
   196  0392  3065               	movlw	101
   197  0393  00FC               	movwf	_pwd+3
   198  0394                     l433:	
   199                           
   200                           ;main.c: 42: inCnt=0;
   201  0394  01F4               	clrf	main@inCnt
   202  0395                     l435:	
   203                           
   204                           ;main.c: 44: GP1=0;
   205  0395  1283               	bcf	3,5	;RP0=0, select bank0
   206  0396                     L3:	
   207  0396  1085               	bcf	5,1	;volatile
   208                           
   209                           ;main.c: 45: RXTX.Val=pwd.Val;
   210  0397  087C               	movf	_pwd+3,w
   211  0398  00F8               	movwf	main@RXTX+3
   212  0399  087B               	movf	_pwd+2,w
   213  039A  00F7               	movwf	main@RXTX+2
   214  039B  087A               	movf	_pwd+1,w
   215  039C  00F6               	movwf	main@RXTX+1
   216  039D  0879               	movf	_pwd,w
   217  039E  00F5               	movwf	main@RXTX
   218                           
   219                           ;main.c: 46: _delay((unsigned long)((6)*(8000000/4000.0)));
   220  039F  3010               	movlw	16
   221  03A0  00F1               	movwf	??_main+1
   222  03A1  3094               	movlw	148
   223  03A2  00F0               	movwf	??_main
   224  03A3                     u87:	
   225  03A3  0BF0               	decfsz	??_main,f
   226  03A4  2BA3               	goto	u87
   227  03A5  0BF1               	decfsz	??_main+1,f
   228  03A6  2BA3               	goto	u87
   229  03A7  0000               	nop
   230                           
   231                           ;main.c: 47: for(i=0;i<32;i++){
   232  03A8  01F3               	clrf	main@i
   233                           
   234                           ;main.c: 48: GP1=0;
   235  03A9  1283               	bcf	3,5	;RP0=0, select bank0
   236  03AA                     L2:	
   237  03AA  1085               	bcf	5,1	;volatile
   238                           
   239                           ;main.c: 49: _delay((unsigned long)((600)*(8000000/4000000.0)));
   240  03AB  30EF               	movlw	239
   241  03AC  00F0               	movwf	??_main
   242  03AD                     u97:	
   243  03AD  2BAE               	nop2
   244  03AE  0BF0               	decfsz	??_main,f
   245  03AF  2BAD               	goto	u97
   246  03B0  2BB1               	nop2	;nop
   247  03B1  2BB2               	nop2	;nop
   248                           
   249                           ;main.c: 50: GP1=RXTX.bits.b0;
   250  03B2  0875               	movf	main@RXTX,w
   251  03B3  3901               	andlw	1
   252  03B4  00F0               	movwf	??_main
   253  03B5  0C70               	rrf	??_main,w
   254  03B6  1283               	bcf	3,5	;RP0=0, select bank0
   255  03B7  1C03               	btfss	3,0
   256  03B8  2BBB               	goto	L1
   257  03B9  1485               	bsf	5,1	;volatile
   258  03BA  2BBC               	goto	u24
   259  03BB                     L1:	
   260  03BB  1085               	bcf	5,1	;volatile
   261  03BC                     u24:	
   262  03BC  30EF               	movlw	239
   263                           
   264                           ;main.c: 51: RXTX.Val>>=1;
   265  03BD  1003               	clrc
   266  03BE  0CF8               	rrf	main@RXTX+3,f
   267  03BF  0CF7               	rrf	main@RXTX+2,f
   268  03C0  0CF6               	rrf	main@RXTX+1,f
   269  03C1  0CF5               	rrf	main@RXTX,f
   270                           
   271                           ;main.c: 52: _delay((unsigned long)((600)*(8000000/4000000.0)));
   272  03C2  00F0               	movwf	??_main
   273  03C3                     u107:	
   274  03C3  2BC4               	nop2
   275  03C4  0BF0               	decfsz	??_main,f
   276  03C5  2BC3               	goto	u107
   277  03C6  2BC7               	nop2	;nop
   278  03C7  2BC8               	nop2	;nop
   279                           
   280                           ;main.c: 53: RXTX.bits.b31=GP4;
   281  03C8  13F8               	bcf	main@RXTX+3,7
   282  03C9  1283               	bcf	3,5	;RP0=0, select bank0
   283  03CA  1A05               	btfsc	5,4	;volatile
   284  03CB  17F8               	bsf	main@RXTX+3,7
   285  03CC  3020               	movlw	32
   286  03CD  0AF3               	incf	main@i,f
   287  03CE  0273               	subwf	main@i,w
   288                           
   289                           ;main.c: 54: }
   290                           ;main.c: 55: GP1=1;
   291  03CF  1283               	bcf	3,5	;RP0=0, select bank0
   292  03D0  1C03               	skipc
   293  03D1  2BAA               	goto	L2
   294  03D2  1485               	bsf	5,1	;volatile
   295                           
   296                           ;main.c: 56: _delay((unsigned long)((100)*(8000000/4000.0)));
   297  03D3  3002               	movlw	2
   298  03D4  00F2               	movwf	??_main+2
   299  03D5  3004               	movlw	4
   300  03D6  00F1               	movwf	??_main+1
   301  03D7  30BA               	movlw	186
   302  03D8  00F0               	movwf	??_main
   303  03D9                     u117:	
   304  03D9  0BF0               	decfsz	??_main,f
   305  03DA  2BD9               	goto	u117
   306  03DB  0BF1               	decfsz	??_main+1,f
   307  03DC  2BD9               	goto	u117
   308  03DD  0BF2               	decfsz	??_main+2,f
   309  03DE  2BD9               	goto	u117
   310  03DF  0000               	nop
   311                           
   312                           ;main.c: 57: if(RXTX.Val==pwd.Val){
   313  03E0  087C               	movf	_pwd+3,w
   314  03E1  0678               	xorwf	main@RXTX+3,w
   315  03E2  1D03               	skipz
   316  03E3  2BEE               	goto	u55
   317  03E4  087B               	movf	_pwd+2,w
   318  03E5  0677               	xorwf	main@RXTX+2,w
   319  03E6  1D03               	skipz
   320  03E7  2BEE               	goto	u55
   321  03E8  087A               	movf	_pwd+1,w
   322  03E9  0676               	xorwf	main@RXTX+1,w
   323  03EA  1D03               	skipz
   324  03EB  2BEE               	goto	u55
   325  03EC  0879               	movf	_pwd,w
   326  03ED  0675               	xorwf	main@RXTX,w
   327  03EE                     u55:	
   328  03EE  1D03               	skipz
   329  03EF  2BF3               	goto	l461
   330                           
   331                           ;main.c: 58: GP5=1;
   332  03F0  1283               	bcf	3,5	;RP0=0, select bank0
   333  03F1  1685               	bsf	5,5	;volatile
   334  03F2  2B94               	goto	l433
   335  03F3                     l461:	
   336                           
   337                           ;main.c: 61: else
   338                           ;main.c: 62: {
   339                           ;main.c: 63: if(inCnt<255)inCnt++;
   340  03F3  0874               	movf	main@inCnt,w
   341  03F4  3AFF               	xorlw	255
   342  03F5  1D03               	btfss	3,2
   343  03F6  0AF4               	incf	main@inCnt,f
   344                           
   345                           ;main.c: 64: if(inCnt>7){
   346  03F7  3008               	movlw	8
   347  03F8  0274               	subwf	main@inCnt,w
   348                           
   349                           ;main.c: 65: GP5=0;
   350  03F9  1283               	bcf	3,5	;RP0=0, select bank0
   351  03FA  1C03               	skipc
   352  03FB  2B96               	goto	L3
   353  03FC  1285               	bcf	5,5	;volatile
   354  03FD  2B95               	goto	l435
   355  03FE                     __end_of_main:	
   356  007E                     btemp	set	126	;btemp
   357  007E                     wtemp	set	126
   358  007E                     wtemp0	set	126
   359  0080                     wtemp1	set	128
   360  0082                     wtemp2	set	130
   361  0084                     wtemp3	set	132
   362  0086                     wtemp4	set	134
   363  0088                     wtemp5	set	136
   364  007F                     wtemp6	set	127
   365  007E                     ttemp	set	126
   366  007E                     ttemp0	set	126
   367  0081                     ttemp1	set	129
   368  0084                     ttemp2	set	132
   369  0087                     ttemp3	set	135
   370  007F                     ttemp4	set	127
   371  007E                     ltemp	set	126
   372  007E                     ltemp0	set	126
   373  0082                     ltemp1	set	130
   374  0086                     ltemp2	set	134
   375  0080                     ltemp3	set	128


Data Sizes:
    Strings     0
    Constant    0
    Data        0
    BSS         0
    Persistent  4
    Stack       0

Auto Spaces:
    Space          Size  Autos    Used
    COMMON           14      9      13
    BANK0            48      0       0

Pointer List with Targets:

    None.

Critical Paths under _main in COMMON

    None.

Critical Paths under _main in BANK0

    None.

Call Graph Tables:

 ---------------------------------------------------------------------------------
 (Depth) Function   	        Calls       Base Space   Used Autos Params    Refs
 ---------------------------------------------------------------------------------
 (0) _main                                                 9     9      0     105
                                              0 COMMON     9     9      0
 ---------------------------------------------------------------------------------
 Estimated maximum stack depth 0
 ---------------------------------------------------------------------------------

 Call Graph Graphs:

 _main (ROOT)

 Address spaces:
Name               Size   Autos  Total    Cost      Usage
BITCOMMON            E      0       0       0        0.0%
NULL                 0      0       0       0        0.0%
CODE                 0      0       0       0        0.0%
COMMON               E      9       D       1       92.9%
BITSFR0              0      0       0       1        0.0%
SFR0                 0      0       0       1        0.0%
BITSFR1              0      0       0       2        0.0%
SFR1                 0      0       0       2        0.0%
STACK                0      0       0       2        0.0%
BITBANK0            30      0       0       3        0.0%
BANK0               30      0       0       4        0.0%
ABS                  0      0       D       5        0.0%
DATA                 0      0       D       6        0.0%


Microchip Technology PIC Macro Assembler V1.30 build 55553 
Symbol Table                                                                                   Fri Mar 28 01:14:28 2014

            __CFG_CP$OFF 0000                       u24 03BC                       u55 03EE  
                     u87 03A3                       u97 03AD                      l433 0394  
                    l435 0395                      l461 03F3                      _GP1 0029  
                    _GP4 002C                      _GP5 002D                      u107 03C3  
                    u117 03D9                      _PR2 0092                      _WPU 0095  
                    _pwd 0079                     _main 0378                     btemp 007E  
                   ltemp 007E                     start 0000                     ttemp 007E  
                   wtemp 007E            __CFG_MCLRE$ON 0000                    ?_main 0070  
          __CFG_WDTE$OFF 0000                    _ANSEL 009F                    _T2CON 0012  
                  _PORTA 0005                    _TRISA 0085            __CFG_PWRTE$ON 0000  
                  main@i 0073           __CFG_BOREN$OFF 0000                    ltemp0 007E  
                  ltemp1 0082                    ltemp2 0086                    ltemp3 0080  
                  ttemp0 007E                    ttemp1 0081                    ttemp2 0084  
                  ttemp3 0087                    ttemp4 007F                    status 0003  
                  wtemp0 007E                    wtemp1 0080                    wtemp2 0082  
                  wtemp3 0084                    wtemp4 0086                    wtemp5 0088  
                  wtemp6 007F          __initialization 03FE             __end_of_main 03FE  
                 ??_main 0070                   _CCPR1L 0013  __end_of__initialization 03FE  
         __pcstackCOMMON 0070               __pnvCOMMON 0079               __pmaintext 0378  
                _CCP1CON 0015     end_of_initialization 03FE      start_initialization 03FE  
       __CFG_IOSCFS$8MHZ 0000                ___latbits 0000                main@inCnt 0074  
          __size_of_main 0086                 main@RXTX 0075       __CFG_FOSC$INTOSCIO 0000  
