Archive member included because of file (symbol)

f:/program files/microchip/xc32/v1.33/bin/bin/../../lib/gcc/pic32mx/4.5.2/../../../../pic32mx/lib/size\libmchp_peripheral.a(open_core_timer_lib.o)
                              build/PIC32_Standalone/production/PIC32MX534F064H.o (OpenCoreTimer)
f:/program files/microchip/xc32/v1.33/bin/bin/../../lib/gcc/pic32mx/4.5.2/../../../../pic32mx/lib/size\libmchp_peripheral.a(read_core_timer_lib.o)
                              build/PIC32_Standalone/production/PIC32MX534F064H.o (ReadCoreTimer)
f:/program files/microchip/xc32/v1.33/bin/bin/../../lib/gcc/pic32mx/4.5.2/../../../../pic32mx/lib/size\libmchp_peripheral_32MX534F064H.a(soft_reset_lib.o)
                              build/PIC32_Standalone/production/main.o (SoftReset)
f:/program files/microchip/xc32/v1.33/bin/bin/../../lib/gcc/pic32mx/4.5.2/../../../../pic32mx/lib/size\libmchp_peripheral_32MX534F064H.a(int_enable_interrupts_lib.o)
                              build/PIC32_Standalone/production/isr.o (INTEnableInterrupts)
f:/program files/microchip/xc32/v1.33/bin/bin/../../lib/gcc/pic32mx/4.5.2/../../../../pic32mx/lib/size\libmchp_peripheral_32MX534F064H.a(int_disable_interrupts_lib.o)
                              build/PIC32_Standalone/production/isr.o (INTDisableInterrupts)
f:/program files/microchip/xc32/v1.33/bin/bin/../../lib/gcc/pic32mx/4.5.2/../../../../pic32mx/lib/size\libmchp_peripheral_32MX534F064H.a(int_restore_interrupts_lib.o)
                              build/PIC32_Standalone/production/isr.o (INTRestoreInterrupts)
f:/program files/microchip/xc32/v1.33/bin/bin/../../lib/gcc/pic32mx/4.5.2/../../../../pic32mx/lib/size\libmchp_peripheral_32MX534F064H.a(int_enable_mv_int_lib.o)
                              build/PIC32_Standalone/production/main.o (INTEnableSystemMultiVectoredInt)
f:/program files/microchip/xc32/v1.33/bin/bin/../../lib/gcc/pic32mx/4.5.2/../../../../pic32mx/lib/size\libmchp_peripheral_32MX534F064H.a(int_tbl_lib.o)
                              build/PIC32_Standalone/production/usb/usb_device.o (INTClearFlag)
f:/program files/microchip/xc32/v1.33/bin/bin/../../lib/gcc/pic32mx/4.5.2/../../../../pic32mx/lib/size\libmchp_peripheral_32MX534F064H.a(spi_chn_close_lib.o)
                              build/PIC32_Standalone/production/OLED.o (SpiChnClose)
f:/program files/microchip/xc32/v1.33/bin/bin/../../lib/gcc/pic32mx/4.5.2/../../../../pic32mx/lib/size\libmchp_peripheral_32MX534F064H.a(spi_chn_open_lib.o)
                              build/PIC32_Standalone/production/OLED.o (SpiChnOpen)
f:/program files/microchip/xc32/v1.33/bin/bin/../../lib/gcc/pic32mx/4.5.2/../../../../pic32mx/lib/size\libmchp_peripheral_32MX534F064H.a(spi_chn_putc_lib.o)
                              build/PIC32_Standalone/production/OLED.o (SpiChnPutC)
f:/program files/microchip/xc32/v1.33/bin/bin/../../lib/gcc/pic32mx/4.5.2/../../../../pic32mx/lib/size\libmchp_peripheral_32MX534F064H.a(spi_chn_puts_lib.o)
                              build/PIC32_Standalone/production/OLED.o (SpiChnPutS)
f:/program files/microchip/xc32/v1.33/bin/bin/../../lib/gcc/pic32mx/4.5.2/../../../../pic32mx/lib/size\libmchp_peripheral_32MX534F064H.a(spi_chn_is_busy_lib.o)
                              build/PIC32_Standalone/production/PIC32MX534F064H.o (SpiChnIsBusy)
f:/program files/microchip/xc32/v1.33/bin/bin/../../lib/gcc/pic32mx/4.5.2/../../../../pic32mx/lib/size\libmchp_peripheral_32MX534F064H.a(spi_io_tbl_libp.o)
                              f:/program files/microchip/xc32/v1.33/bin/bin/../../lib/gcc/pic32mx/4.5.2/../../../../pic32mx/lib/size\libmchp_peripheral_32MX534F064H.a(spi_chn_close_lib.o) (_SpiIoTbl)
f:/program files/microchip/xc32/v1.33/bin/bin/../../lib/gcc/pic32mx/4.5.2/../../../../pic32mx/lib/size\libmchp_peripheral_32MX534F064H.a(spi_map_tbl_libp.o)
                              f:/program files/microchip/xc32/v1.33/bin/bin/../../lib/gcc/pic32mx/4.5.2/../../../../pic32mx/lib/size\libmchp_peripheral_32MX534F064H.a(spi_chn_close_lib.o) (_SpiMapTbl)
f:/program files/microchip/xc32/v1.33/bin/bin/../../lib/gcc/pic32mx/4.5.2/../../../../pic32mx/lib/size\libmchp_peripheral_32MX534F064H.a(dma_chn_abort_txfer_lib.o)
                              build/PIC32_Standalone/production/PIC32MX534F064H.o (DmaChnAbortTxfer)
f:/program files/microchip/xc32/v1.33/bin/bin/../../lib/gcc/pic32mx/4.5.2/../../../../pic32mx/lib/size\libmchp_peripheral_32MX534F064H.a(dma_chn_open_lib.o)
                              build/PIC32_Standalone/production/PIC32MX534F064H.o (DmaChnOpen)
f:/program files/microchip/xc32/v1.33/bin/bin/../../lib/gcc/pic32mx/4.5.2/../../../../pic32mx/lib/size\libmchp_peripheral_32MX534F064H.a(dma_chn_disable_lib.o)
                              build/PIC32_Standalone/production/PIC32MX534F064H.o (DmaChnDisable)
f:/program files/microchip/xc32/v1.33/bin/bin/../../lib/gcc/pic32mx/4.5.2/../../../../pic32mx/lib/size\libmchp_peripheral_32MX534F064H.a(dma_chn_enable_lib.o)
                              build/PIC32_Standalone/production/PIC32MX534F064H.o (DmaChnEnable)
f:/program files/microchip/xc32/v1.33/bin/bin/../../lib/gcc/pic32mx/4.5.2/../../../../pic32mx/lib/size\libmchp_peripheral_32MX534F064H.a(dma_chn_get_dst_pnt_lib.o)
                              build/PIC32_Standalone/production/isr.o (DmaChnGetDstPnt)
f:/program files/microchip/xc32/v1.33/bin/bin/../../lib/gcc/pic32mx/4.5.2/../../../../pic32mx/lib/size\libmchp_peripheral_32MX534F064H.a(dma_chn_write_event_control_flags_lib.o)
                              build/PIC32_Standalone/production/PIC32MX534F064H.o (DmaChnWriteEventControlFlags)
f:/program files/microchip/xc32/v1.33/bin/bin/../../lib/gcc/pic32mx/4.5.2/../../../../pic32mx/lib/size\libmchp_peripheral_32MX534F064H.a(dma_chn_set_txfer_lib.o)
                              build/PIC32_Standalone/production/PIC32MX534F064H.o (DmaChnSetTxfer)
f:/program files/microchip/xc32/v1.33/bin/bin/../../lib/gcc/pic32mx/4.5.2/../../../../pic32mx/lib/size\libmchp_peripheral_32MX534F064H.a(dma_chn_write_ev_enable_flags_lib.o)
                              build/PIC32_Standalone/production/PIC32MX534F064H.o (DmaChnWriteEvEnableFlags)
f:/program files/microchip/xc32/v1.33/bin/bin/../../lib/gcc/pic32mx/4.5.2/../../../../pic32mx/lib/size\libmchp_peripheral_32MX534F064H.a(dma_reg_map_tbl_lib.o)
                              f:/program files/microchip/xc32/v1.33/bin/bin/../../lib/gcc/pic32mx/4.5.2/../../../../pic32mx/lib/size\libmchp_peripheral_32MX534F064H.a(dma_chn_abort_txfer_lib.o) (_DmaMapTbl)
f:/program files/microchip/xc32/v1.33/bin/bin/../../lib/gcc/pic32mx/4.5.2/../../../../pic32mx/lib/size\libmchp_peripheral_32MX534F064H.a(port_reset_pins_lib.o)
                              f:/program files/microchip/xc32/v1.33/bin/bin/../../lib/gcc/pic32mx/4.5.2/../../../../pic32mx/lib/size\libmchp_peripheral_32MX534F064H.a(spi_chn_close_lib.o) (PORTResetPins)
f:/program files/microchip/xc32/v1.33/bin/bin/../../lib/gcc/pic32mx/4.5.2/../../../../pic32mx/lib/size\libmchp_peripheral_32MX534F064H.a(port_set_pins_digital_in_lib.o)
                              f:/program files/microchip/xc32/v1.33/bin/bin/../../lib/gcc/pic32mx/4.5.2/../../../../pic32mx/lib/size\libmchp_peripheral_32MX534F064H.a(spi_chn_open_lib.o) (PORTSetPinsDigitalIn)
f:/program files/microchip/xc32/v1.33/bin/bin/../../lib/gcc/pic32mx/4.5.2/../../../../pic32mx/lib/size\libmchp_peripheral_32MX534F064H.a(port_set_pins_digital_out_lib.o)
                              f:/program files/microchip/xc32/v1.33/bin/bin/../../lib/gcc/pic32mx/4.5.2/../../../../pic32mx/lib/size\libmchp_peripheral_32MX534F064H.a(spi_chn_open_lib.o) (PORTSetPinsDigitalOut)
f:/program files/microchip/xc32/v1.33/bin/bin/../../lib/gcc/pic32mx/4.5.2/../../../../pic32mx/lib/size\libmchp_peripheral_32MX534F064H.a(_ports_tbl_libp.o)
                              f:/program files/microchip/xc32/v1.33/bin/bin/../../lib/gcc/pic32mx/4.5.2/../../../../pic32mx/lib/size\libmchp_peripheral_32MX534F064H.a(port_reset_pins_lib.o) (PortRegTbl)
f:/program files/microchip/xc32/v1.33/bin/bin/../../lib/gcc/pic32mx/4.5.2/../../../../pic32mx/lib/size\libmchp_peripheral_32MX534F064H.a(I2CAcknowledgeByte.o)
                              build/PIC32_Standalone/production/isr.o (I2CAcknowledgeByte)
f:/program files/microchip/xc32/v1.33/bin/bin/../../lib/gcc/pic32mx/4.5.2/../../../../pic32mx/lib/size\libmchp_peripheral_32MX534F064H.a(I2CByteWasAcknowledged.o)
                              build/PIC32_Standalone/production/isr.o (I2CByteWasAcknowledged)
f:/program files/microchip/xc32/v1.33/bin/bin/../../lib/gcc/pic32mx/4.5.2/../../../../pic32mx/lib/size\libmchp_peripheral_32MX534F064H.a(I2CEnable.o)
                              build/PIC32_Standalone/production/PIC32MX534F064H.o (I2CEnable)
f:/program files/microchip/xc32/v1.33/bin/bin/../../lib/gcc/pic32mx/4.5.2/../../../../pic32mx/lib/size\libmchp_peripheral_32MX534F064H.a(I2CGetByte.o)
                              build/PIC32_Standalone/production/isr.o (I2CGetByte)
f:/program files/microchip/xc32/v1.33/bin/bin/../../lib/gcc/pic32mx/4.5.2/../../../../pic32mx/lib/size\libmchp_peripheral_32MX534F064H.a(I2CReceiverEnable.o)
                              build/PIC32_Standalone/production/isr.o (I2CReceiverEnable)
f:/program files/microchip/xc32/v1.33/bin/bin/../../lib/gcc/pic32mx/4.5.2/../../../../pic32mx/lib/size\libmchp_peripheral_32MX534F064H.a(I2CSendByte.o)
                              build/PIC32_Standalone/production/isr.o (I2CSendByte)
f:/program files/microchip/xc32/v1.33/bin/bin/../../lib/gcc/pic32mx/4.5.2/../../../../pic32mx/lib/size\libmchp_peripheral_32MX534F064H.a(I2CSetFrequency.o)
                              build/PIC32_Standalone/production/PIC32MX534F064H.o (I2CSetFrequency)
f:/program files/microchip/xc32/v1.33/bin/bin/../../lib/gcc/pic32mx/4.5.2/../../../../pic32mx/lib/size\libmchp_peripheral_32MX534F064H.a(I2CStart.o)
                              build/PIC32_Standalone/production/isr.o (I2CStart)
f:/program files/microchip/xc32/v1.33/bin/bin/../../lib/gcc/pic32mx/4.5.2/../../../../pic32mx/lib/size\libmchp_peripheral_32MX534F064H.a(I2CStop.o)
                              build/PIC32_Standalone/production/isr.o (I2CStop)
f:/program files/microchip/xc32/v1.33/bin/bin/../../lib/gcc/pic32mx/4.5.2/../../../../pic32mx/lib/size\libmchp_peripheral_32MX534F064H.a(I2CPrivate.o)
                              f:/program files/microchip/xc32/v1.33/bin/bin/../../lib/gcc/pic32mx/4.5.2/../../../../pic32mx/lib/size\libmchp_peripheral_32MX534F064H.a(I2CAcknowledgeByte.o) (i2cBase)
f:/program files/microchip/xc32/v1.33/bin/bin/../../lib/gcc/pic32mx/4.5.2/size\libgcc.a(_ashldi3.o)
                              build/PIC32_Standalone/production/PID.o (__ashldi3)
f:/program files/microchip/xc32/v1.33/bin/bin/../../lib/gcc/pic32mx/4.5.2/../../../../pic32mx/lib/size\libpic32.a(memcpy.o)
                              build/PIC32_Standalone/production/iron.o (memcpy)
f:/program files/microchip/xc32/v1.33/bin/bin/../../lib/gcc/pic32mx/4.5.2/../../../../pic32mx/lib/size\libpic32.a(memset.o)
                              build/PIC32_Standalone/production/usb/usb_device.o (memset)
f:/program files/microchip/xc32/v1.33/bin/bin/../../lib/gcc/pic32mx/4.5.2/../../../../pic32mx/lib/size\libpic32.a(default-bootstrap-exception-handler.o)
                              f:/program files/microchip/xc32/v1.33/bin/bin/../../lib/gcc/pic32mx/4.5.2/../../../../pic32mx/lib/./proc/32MX534F064H/crt0_mips32r2.o (_bootstrap_exception_handler)
f:/program files/microchip/xc32/v1.33/bin/bin/../../lib/gcc/pic32mx/4.5.2/../../../../pic32mx/lib/size\libpic32.a(default-on-reset.o)
                              f:/program files/microchip/xc32/v1.33/bin/bin/../../lib/gcc/pic32mx/4.5.2/../../../../pic32mx/lib/./proc/32MX534F064H/crt0_mips32r2.o (_on_reset)
f:/program files/microchip/xc32/v1.33/bin/bin/../../lib/gcc/pic32mx/4.5.2/../../../../pic32mx/lib/size\libpic32.a(default-on-bootstrap.o)
                              f:/program files/microchip/xc32/v1.33/bin/bin/../../lib/gcc/pic32mx/4.5.2/../../../../pic32mx/lib/./proc/32MX534F064H/crt0_mips32r2.o (_on_bootstrap)
f:/program files/microchip/xc32/v1.33/bin/bin/../../lib/gcc/pic32mx/4.5.2/../../../../pic32mx/lib/size\libpic32.a(default-nmi-handler.o)
                              f:/program files/microchip/xc32/v1.33/bin/bin/../../lib/gcc/pic32mx/4.5.2/../../../../pic32mx/lib/./proc/32MX534F064H/crt0_mips32r2.o (_nmi_handler)
f:/program files/microchip/xc32/v1.33/bin/bin/../../lib/gcc/pic32mx/4.5.2/../../../../pic32mx/lib/size\libpic32.a(general-exception.o)
                              f:/program files/microchip/xc32/v1.33/bin/bin/../../lib/gcc/pic32mx/4.5.2/../../../../pic32mx/lib/./proc/32MX534F064H/crt0_mips32r2.o (_general_exception_context)
f:/program files/microchip/xc32/v1.33/bin/bin/../../lib/gcc/pic32mx/4.5.2/../../../../pic32mx/lib/size\libpic32.a(vector0.o)
                              f:/program files/microchip/xc32/v1.33/bin/bin/../../lib/gcc/pic32mx/4.5.2/../../../../pic32mx/lib/./proc/32MX534F064H\default_isr_vectors.o (__vector_dispatch_0)
f:/program files/microchip/xc32/v1.33/bin/bin/../../lib/gcc/pic32mx/4.5.2/../../../../pic32mx/lib/size\libpic32.a(vector1.o)
                              f:/program files/microchip/xc32/v1.33/bin/bin/../../lib/gcc/pic32mx/4.5.2/../../../../pic32mx/lib/./proc/32MX534F064H\default_isr_vectors.o (__vector_dispatch_1)
f:/program files/microchip/xc32/v1.33/bin/bin/../../lib/gcc/pic32mx/4.5.2/../../../../pic32mx/lib/size\libpic32.a(vector2.o)
                              f:/program files/microchip/xc32/v1.33/bin/bin/../../lib/gcc/pic32mx/4.5.2/../../../../pic32mx/lib/./proc/32MX534F064H\default_isr_vectors.o (__vector_dispatch_2)
f:/program files/microchip/xc32/v1.33/bin/bin/../../lib/gcc/pic32mx/4.5.2/../../../../pic32mx/lib/size\libpic32.a(vector3.o)
                              f:/program files/microchip/xc32/v1.33/bin/bin/../../lib/gcc/pic32mx/4.5.2/../../../../pic32mx/lib/./proc/32MX534F064H\default_isr_vectors.o (__vector_dispatch_3)
f:/program files/microchip/xc32/v1.33/bin/bin/../../lib/gcc/pic32mx/4.5.2/../../../../pic32mx/lib/size\libpic32.a(vector5.o)
                              f:/program files/microchip/xc32/v1.33/bin/bin/../../lib/gcc/pic32mx/4.5.2/../../../../pic32mx/lib/./proc/32MX534F064H\default_isr_vectors.o (__vector_dispatch_5)
f:/program files/microchip/xc32/v1.33/bin/bin/../../lib/gcc/pic32mx/4.5.2/../../../../pic32mx/lib/size\libpic32.a(vector6.o)
                              f:/program files/microchip/xc32/v1.33/bin/bin/../../lib/gcc/pic32mx/4.5.2/../../../../pic32mx/lib/./proc/32MX534F064H\default_isr_vectors.o (__vector_dispatch_6)
f:/program files/microchip/xc32/v1.33/bin/bin/../../lib/gcc/pic32mx/4.5.2/../../../../pic32mx/lib/size\libpic32.a(vector7.o)
                              f:/program files/microchip/xc32/v1.33/bin/bin/../../lib/gcc/pic32mx/4.5.2/../../../../pic32mx/lib/./proc/32MX534F064H\default_isr_vectors.o (__vector_dispatch_7)
f:/program files/microchip/xc32/v1.33/bin/bin/../../lib/gcc/pic32mx/4.5.2/../../../../pic32mx/lib/size\libpic32.a(vector9.o)
                              f:/program files/microchip/xc32/v1.33/bin/bin/../../lib/gcc/pic32mx/4.5.2/../../../../pic32mx/lib/./proc/32MX534F064H\default_isr_vectors.o (__vector_dispatch_9)
f:/program files/microchip/xc32/v1.33/bin/bin/../../lib/gcc/pic32mx/4.5.2/../../../../pic32mx/lib/size\libpic32.a(vector11.o)
                              f:/program files/microchip/xc32/v1.33/bin/bin/../../lib/gcc/pic32mx/4.5.2/../../../../pic32mx/lib/./proc/32MX534F064H\default_isr_vectors.o (__vector_dispatch_11)
f:/program files/microchip/xc32/v1.33/bin/bin/../../lib/gcc/pic32mx/4.5.2/../../../../pic32mx/lib/size\libpic32.a(vector12.o)
                              f:/program files/microchip/xc32/v1.33/bin/bin/../../lib/gcc/pic32mx/4.5.2/../../../../pic32mx/lib/./proc/32MX534F064H\default_isr_vectors.o (__vector_dispatch_12)
f:/program files/microchip/xc32/v1.33/bin/bin/../../lib/gcc/pic32mx/4.5.2/../../../../pic32mx/lib/size\libpic32.a(vector13.o)
                              f:/program files/microchip/xc32/v1.33/bin/bin/../../lib/gcc/pic32mx/4.5.2/../../../../pic32mx/lib/./proc/32MX534F064H\default_isr_vectors.o (__vector_dispatch_13)
f:/program files/microchip/xc32/v1.33/bin/bin/../../lib/gcc/pic32mx/4.5.2/../../../../pic32mx/lib/size\libpic32.a(vector14.o)
                              f:/program files/microchip/xc32/v1.33/bin/bin/../../lib/gcc/pic32mx/4.5.2/../../../../pic32mx/lib/./proc/32MX534F064H\default_isr_vectors.o (__vector_dispatch_14)
f:/program files/microchip/xc32/v1.33/bin/bin/../../lib/gcc/pic32mx/4.5.2/../../../../pic32mx/lib/size\libpic32.a(vector15.o)
                              f:/program files/microchip/xc32/v1.33/bin/bin/../../lib/gcc/pic32mx/4.5.2/../../../../pic32mx/lib/./proc/32MX534F064H\default_isr_vectors.o (__vector_dispatch_15)
f:/program files/microchip/xc32/v1.33/bin/bin/../../lib/gcc/pic32mx/4.5.2/../../../../pic32mx/lib/size\libpic32.a(vector16.o)
                              f:/program files/microchip/xc32/v1.33/bin/bin/../../lib/gcc/pic32mx/4.5.2/../../../../pic32mx/lib/./proc/32MX534F064H\default_isr_vectors.o (__vector_dispatch_16)
f:/program files/microchip/xc32/v1.33/bin/bin/../../lib/gcc/pic32mx/4.5.2/../../../../pic32mx/lib/size\libpic32.a(vector17.o)
                              f:/program files/microchip/xc32/v1.33/bin/bin/../../lib/gcc/pic32mx/4.5.2/../../../../pic32mx/lib/./proc/32MX534F064H\default_isr_vectors.o (__vector_dispatch_17)
f:/program files/microchip/xc32/v1.33/bin/bin/../../lib/gcc/pic32mx/4.5.2/../../../../pic32mx/lib/size\libpic32.a(vector18.o)
                              f:/program files/microchip/xc32/v1.33/bin/bin/../../lib/gcc/pic32mx/4.5.2/../../../../pic32mx/lib/./proc/32MX534F064H\default_isr_vectors.o (__vector_dispatch_18)
f:/program files/microchip/xc32/v1.33/bin/bin/../../lib/gcc/pic32mx/4.5.2/../../../../pic32mx/lib/size\libpic32.a(vector19.o)
                              f:/program files/microchip/xc32/v1.33/bin/bin/../../lib/gcc/pic32mx/4.5.2/../../../../pic32mx/lib/./proc/32MX534F064H\default_isr_vectors.o (__vector_dispatch_19)
f:/program files/microchip/xc32/v1.33/bin/bin/../../lib/gcc/pic32mx/4.5.2/../../../../pic32mx/lib/size\libpic32.a(vector20.o)
                              f:/program files/microchip/xc32/v1.33/bin/bin/../../lib/gcc/pic32mx/4.5.2/../../../../pic32mx/lib/./proc/32MX534F064H\default_isr_vectors.o (__vector_dispatch_20)
f:/program files/microchip/xc32/v1.33/bin/bin/../../lib/gcc/pic32mx/4.5.2/../../../../pic32mx/lib/size\libpic32.a(vector21.o)
                              f:/program files/microchip/xc32/v1.33/bin/bin/../../lib/gcc/pic32mx/4.5.2/../../../../pic32mx/lib/./proc/32MX534F064H\default_isr_vectors.o (__vector_dispatch_21)
f:/program files/microchip/xc32/v1.33/bin/bin/../../lib/gcc/pic32mx/4.5.2/../../../../pic32mx/lib/size\libpic32.a(vector22.o)
                              f:/program files/microchip/xc32/v1.33/bin/bin/../../lib/gcc/pic32mx/4.5.2/../../../../pic32mx/lib/./proc/32MX534F064H\default_isr_vectors.o (__vector_dispatch_22)
f:/program files/microchip/xc32/v1.33/bin/bin/../../lib/gcc/pic32mx/4.5.2/../../../../pic32mx/lib/size\libpic32.a(vector23.o)
                              f:/program files/microchip/xc32/v1.33/bin/bin/../../lib/gcc/pic32mx/4.5.2/../../../../pic32mx/lib/./proc/32MX534F064H\default_isr_vectors.o (__vector_dispatch_23)
f:/program files/microchip/xc32/v1.33/bin/bin/../../lib/gcc/pic32mx/4.5.2/../../../../pic32mx/lib/size\libpic32.a(vector24.o)
                              f:/program files/microchip/xc32/v1.33/bin/bin/../../lib/gcc/pic32mx/4.5.2/../../../../pic32mx/lib/./proc/32MX534F064H\default_isr_vectors.o (__vector_dispatch_24)
f:/program files/microchip/xc32/v1.33/bin/bin/../../lib/gcc/pic32mx/4.5.2/../../../../pic32mx/lib/size\libpic32.a(vector25.o)
                              f:/program files/microchip/xc32/v1.33/bin/bin/../../lib/gcc/pic32mx/4.5.2/../../../../pic32mx/lib/./proc/32MX534F064H\default_isr_vectors.o (__vector_dispatch_25)
f:/program files/microchip/xc32/v1.33/bin/bin/../../lib/gcc/pic32mx/4.5.2/../../../../pic32mx/lib/size\libpic32.a(vector26.o)
                              f:/program files/microchip/xc32/v1.33/bin/bin/../../lib/gcc/pic32mx/4.5.2/../../../../pic32mx/lib/./proc/32MX534F064H\default_isr_vectors.o (__vector_dispatch_26)
f:/program files/microchip/xc32/v1.33/bin/bin/../../lib/gcc/pic32mx/4.5.2/../../../../pic32mx/lib/size\libpic32.a(vector28.o)
                              f:/program files/microchip/xc32/v1.33/bin/bin/../../lib/gcc/pic32mx/4.5.2/../../../../pic32mx/lib/./proc/32MX534F064H\default_isr_vectors.o (__vector_dispatch_28)
f:/program files/microchip/xc32/v1.33/bin/bin/../../lib/gcc/pic32mx/4.5.2/../../../../pic32mx/lib/size\libpic32.a(vector29.o)
                              f:/program files/microchip/xc32/v1.33/bin/bin/../../lib/gcc/pic32mx/4.5.2/../../../../pic32mx/lib/./proc/32MX534F064H\default_isr_vectors.o (__vector_dispatch_29)
f:/program files/microchip/xc32/v1.33/bin/bin/../../lib/gcc/pic32mx/4.5.2/../../../../pic32mx/lib/size\libpic32.a(vector32.o)
                              f:/program files/microchip/xc32/v1.33/bin/bin/../../lib/gcc/pic32mx/4.5.2/../../../../pic32mx/lib/./proc/32MX534F064H\default_isr_vectors.o (__vector_dispatch_32)
f:/program files/microchip/xc32/v1.33/bin/bin/../../lib/gcc/pic32mx/4.5.2/../../../../pic32mx/lib/size\libpic32.a(vector33.o)
                              f:/program files/microchip/xc32/v1.33/bin/bin/../../lib/gcc/pic32mx/4.5.2/../../../../pic32mx/lib/./proc/32MX534F064H\default_isr_vectors.o (__vector_dispatch_33)
f:/program files/microchip/xc32/v1.33/bin/bin/../../lib/gcc/pic32mx/4.5.2/../../../../pic32mx/lib/size\libpic32.a(vector34.o)
                              f:/program files/microchip/xc32/v1.33/bin/bin/../../lib/gcc/pic32mx/4.5.2/../../../../pic32mx/lib/./proc/32MX534F064H\default_isr_vectors.o (__vector_dispatch_34)
f:/program files/microchip/xc32/v1.33/bin/bin/../../lib/gcc/pic32mx/4.5.2/../../../../pic32mx/lib/size\libpic32.a(vector35.o)
                              f:/program files/microchip/xc32/v1.33/bin/bin/../../lib/gcc/pic32mx/4.5.2/../../../../pic32mx/lib/./proc/32MX534F064H\default_isr_vectors.o (__vector_dispatch_35)
f:/program files/microchip/xc32/v1.33/bin/bin/../../lib/gcc/pic32mx/4.5.2/../../../../pic32mx/lib/size\libpic32.a(vector36.o)
                              f:/program files/microchip/xc32/v1.33/bin/bin/../../lib/gcc/pic32mx/4.5.2/../../../../pic32mx/lib/./proc/32MX534F064H\default_isr_vectors.o (__vector_dispatch_36)
f:/program files/microchip/xc32/v1.33/bin/bin/../../lib/gcc/pic32mx/4.5.2/../../../../pic32mx/lib/size\libpic32.a(vector37.o)
                              f:/program files/microchip/xc32/v1.33/bin/bin/../../lib/gcc/pic32mx/4.5.2/../../../../pic32mx/lib/./proc/32MX534F064H\default_isr_vectors.o (__vector_dispatch_37)
f:/program files/microchip/xc32/v1.33/bin/bin/../../lib/gcc/pic32mx/4.5.2/../../../../pic32mx/lib/size\libpic32.a(vector38.o)
                              f:/program files/microchip/xc32/v1.33/bin/bin/../../lib/gcc/pic32mx/4.5.2/../../../../pic32mx/lib/./proc/32MX534F064H\default_isr_vectors.o (__vector_dispatch_38)
f:/program files/microchip/xc32/v1.33/bin/bin/../../lib/gcc/pic32mx/4.5.2/../../../../pic32mx/lib/size\libpic32.a(vector39.o)
                              f:/program files/microchip/xc32/v1.33/bin/bin/../../lib/gcc/pic32mx/4.5.2/../../../../pic32mx/lib/./proc/32MX534F064H\default_isr_vectors.o (__vector_dispatch_39)
f:/program files/microchip/xc32/v1.33/bin/bin/../../lib/gcc/pic32mx/4.5.2/../../../../pic32mx/lib/size\libpic32.a(vector40.o)
                              f:/program files/microchip/xc32/v1.33/bin/bin/../../lib/gcc/pic32mx/4.5.2/../../../../pic32mx/lib/./proc/32MX534F064H\default_isr_vectors.o (__vector_dispatch_40)
f:/program files/microchip/xc32/v1.33/bin/bin/../../lib/gcc/pic32mx/4.5.2/../../../../pic32mx/lib/size\libpic32.a(vector41.o)
                              f:/program files/microchip/xc32/v1.33/bin/bin/../../lib/gcc/pic32mx/4.5.2/../../../../pic32mx/lib/./proc/32MX534F064H\default_isr_vectors.o (__vector_dispatch_41)
f:/program files/microchip/xc32/v1.33/bin/bin/../../lib/gcc/pic32mx/4.5.2/../../../../pic32mx/lib/size\libpic32.a(vector42.o)
                              f:/program files/microchip/xc32/v1.33/bin/bin/../../lib/gcc/pic32mx/4.5.2/../../../../pic32mx/lib/./proc/32MX534F064H\default_isr_vectors.o (__vector_dispatch_42)
f:/program files/microchip/xc32/v1.33/bin/bin/../../lib/gcc/pic32mx/4.5.2/../../../../pic32mx/lib/size\libpic32.a(vector43.o)
                              f:/program files/microchip/xc32/v1.33/bin/bin/../../lib/gcc/pic32mx/4.5.2/../../../../pic32mx/lib/./proc/32MX534F064H\default_isr_vectors.o (__vector_dispatch_43)
f:/program files/microchip/xc32/v1.33/bin/bin/../../lib/gcc/pic32mx/4.5.2/../../../../pic32mx/lib/size\libpic32.a(vector44.o)
                              f:/program files/microchip/xc32/v1.33/bin/bin/../../lib/gcc/pic32mx/4.5.2/../../../../pic32mx/lib/./proc/32MX534F064H\default_isr_vectors.o (__vector_dispatch_44)
f:/program files/microchip/xc32/v1.33/bin/bin/../../lib/gcc/pic32mx/4.5.2/../../../../pic32mx/lib/size\libpic32.a(vector45.o)
                              f:/program files/microchip/xc32/v1.33/bin/bin/../../lib/gcc/pic32mx/4.5.2/../../../../pic32mx/lib/./proc/32MX534F064H\default_isr_vectors.o (__vector_dispatch_45)
f:/program files/microchip/xc32/v1.33/bin/bin/../../lib/gcc/pic32mx/4.5.2/../../../../pic32mx/lib/size\libpic32.a(vector46.o)
                              f:/program files/microchip/xc32/v1.33/bin/bin/../../lib/gcc/pic32mx/4.5.2/../../../../pic32mx/lib/./proc/32MX534F064H\default_isr_vectors.o (__vector_dispatch_46)
f:/program files/microchip/xc32/v1.33/bin/bin/../../lib/gcc/pic32mx/4.5.2/../../../../pic32mx/lib/size\libpic32.a(vector47.o)
                              f:/program files/microchip/xc32/v1.33/bin/bin/../../lib/gcc/pic32mx/4.5.2/../../../../pic32mx/lib/./proc/32MX534F064H\default_isr_vectors.o (__vector_dispatch_47)
f:/program files/microchip/xc32/v1.33/bin/bin/../../lib/gcc/pic32mx/4.5.2/../../../../pic32mx/lib/size\libpic32.a(vector48.o)
                              f:/program files/microchip/xc32/v1.33/bin/bin/../../lib/gcc/pic32mx/4.5.2/../../../../pic32mx/lib/./proc/32MX534F064H\default_isr_vectors.o (__vector_dispatch_48)
f:/program files/microchip/xc32/v1.33/bin/bin/../../lib/gcc/pic32mx/4.5.2/../../../../pic32mx/lib/size\libpic32.a(vector49.o)
                              f:/program files/microchip/xc32/v1.33/bin/bin/../../lib/gcc/pic32mx/4.5.2/../../../../pic32mx/lib/./proc/32MX534F064H\default_isr_vectors.o (__vector_dispatch_49)
f:/program files/microchip/xc32/v1.33/bin/bin/../../lib/gcc/pic32mx/4.5.2/../../../../pic32mx/lib/size\libpic32.a(vector50.o)
                              f:/program files/microchip/xc32/v1.33/bin/bin/../../lib/gcc/pic32mx/4.5.2/../../../../pic32mx/lib/./proc/32MX534F064H\default_isr_vectors.o (__vector_dispatch_50)
f:/program files/microchip/xc32/v1.33/bin/bin/../../lib/gcc/pic32mx/4.5.2/../../../../pic32mx/lib/size\libpic32.a(vector51.o)
                              f:/program files/microchip/xc32/v1.33/bin/bin/../../lib/gcc/pic32mx/4.5.2/../../../../pic32mx/lib/./proc/32MX534F064H\default_isr_vectors.o (__vector_dispatch_51)
f:/program files/microchip/xc32/v1.33/bin/bin/../../lib/gcc/pic32mx/4.5.2/../../../../pic32mx/lib/size\libpic32.a(vector52.o)
                              f:/program files/microchip/xc32/v1.33/bin/bin/../../lib/gcc/pic32mx/4.5.2/../../../../pic32mx/lib/./proc/32MX534F064H\default_isr_vectors.o (__vector_dispatch_52)
f:/program files/microchip/xc32/v1.33/bin/bin/../../lib/gcc/pic32mx/4.5.2/../../../../pic32mx/lib/size\libpic32.a(vector53.o)
                              f:/program files/microchip/xc32/v1.33/bin/bin/../../lib/gcc/pic32mx/4.5.2/../../../../pic32mx/lib/./proc/32MX534F064H\default_isr_vectors.o (__vector_dispatch_53)
f:/program files/microchip/xc32/v1.33/bin/bin/../../lib/gcc/pic32mx/4.5.2/../../../../pic32mx/lib/size\libpic32.a(vector54.o)
                              f:/program files/microchip/xc32/v1.33/bin/bin/../../lib/gcc/pic32mx/4.5.2/../../../../pic32mx/lib/./proc/32MX534F064H\default_isr_vectors.o (__vector_dispatch_54)
f:/program files/microchip/xc32/v1.33/bin/bin/../../lib/gcc/pic32mx/4.5.2/../../../../pic32mx/lib/size\libpic32.a(vector55.o)
                              f:/program files/microchip/xc32/v1.33/bin/bin/../../lib/gcc/pic32mx/4.5.2/../../../../pic32mx/lib/./proc/32MX534F064H\default_isr_vectors.o (__vector_dispatch_55)
f:/program files/microchip/xc32/v1.33/bin/bin/../../lib/gcc/pic32mx/4.5.2/../../../../pic32mx/lib/size\libpic32.a(vector56.o)
                              f:/program files/microchip/xc32/v1.33/bin/bin/../../lib/gcc/pic32mx/4.5.2/../../../../pic32mx/lib/./proc/32MX534F064H\default_isr_vectors.o (__vector_dispatch_56)
f:/program files/microchip/xc32/v1.33/bin/bin/../../lib/gcc/pic32mx/4.5.2/../../../../pic32mx/lib/size\libpic32.a(vector57.o)
                              f:/program files/microchip/xc32/v1.33/bin/bin/../../lib/gcc/pic32mx/4.5.2/../../../../pic32mx/lib/./proc/32MX534F064H\default_isr_vectors.o (__vector_dispatch_57)
f:/program files/microchip/xc32/v1.33/bin/bin/../../lib/gcc/pic32mx/4.5.2/../../../../pic32mx/lib/size\libpic32.a(vector58.o)
                              f:/program files/microchip/xc32/v1.33/bin/bin/../../lib/gcc/pic32mx/4.5.2/../../../../pic32mx/lib/./proc/32MX534F064H\default_isr_vectors.o (__vector_dispatch_58)
f:/program files/microchip/xc32/v1.33/bin/bin/../../lib/gcc/pic32mx/4.5.2/../../../../pic32mx/lib/size\libpic32.a(vector59.o)
                              f:/program files/microchip/xc32/v1.33/bin/bin/../../lib/gcc/pic32mx/4.5.2/../../../../pic32mx/lib/./proc/32MX534F064H\default_isr_vectors.o (__vector_dispatch_59)
f:/program files/microchip/xc32/v1.33/bin/bin/../../lib/gcc/pic32mx/4.5.2/../../../../pic32mx/lib/size\libpic32.a(vector60.o)
                              f:/program files/microchip/xc32/v1.33/bin/bin/../../lib/gcc/pic32mx/4.5.2/../../../../pic32mx/lib/./proc/32MX534F064H\default_isr_vectors.o (__vector_dispatch_60)
f:/program files/microchip/xc32/v1.33/bin/bin/../../lib/gcc/pic32mx/4.5.2/../../../../pic32mx/lib/size\libpic32.a(vector61.o)
                              f:/program files/microchip/xc32/v1.33/bin/bin/../../lib/gcc/pic32mx/4.5.2/../../../../pic32mx/lib/./proc/32MX534F064H\default_isr_vectors.o (__vector_dispatch_61)
f:/program files/microchip/xc32/v1.33/bin/bin/../../lib/gcc/pic32mx/4.5.2/../../../../pic32mx/lib/size\libpic32.a(vector62.o)
                              f:/program files/microchip/xc32/v1.33/bin/bin/../../lib/gcc/pic32mx/4.5.2/../../../../pic32mx/lib/./proc/32MX534F064H\default_isr_vectors.o (__vector_dispatch_62)
f:/program files/microchip/xc32/v1.33/bin/bin/../../lib/gcc/pic32mx/4.5.2/../../../../pic32mx/lib/size\libpic32.a(vector63.o)
                              f:/program files/microchip/xc32/v1.33/bin/bin/../../lib/gcc/pic32mx/4.5.2/../../../../pic32mx/lib/./proc/32MX534F064H\default_isr_vectors.o (__vector_dispatch_63)
f:/program files/microchip/xc32/v1.33/bin/bin/../../lib/gcc/pic32mx/4.5.2/../../../../pic32mx/lib/size\libpic32.a(default-general-exception-handler.o)
                              f:/program files/microchip/xc32/v1.33/bin/bin/../../lib/gcc/pic32mx/4.5.2/../../../../pic32mx/lib/size\libpic32.a(general-exception.o) (_general_exception_handler)
f:/program files/microchip/xc32/v1.33/bin/bin/../../lib/gcc/pic32mx/4.5.2/../../../../pic32mx/lib/size\libpic32.a(defaultinterrupt.o)
                              f:/program files/microchip/xc32/v1.33/bin/bin/../../lib/gcc/pic32mx/4.5.2/../../../../pic32mx/lib/size\libpic32.a(vector0.o) (_DefaultInterrupt)

Allocating common symbols
Common symbol       size              file

USBRxBuffer         0x40              build/PIC32_Standalone/production/usb/usb_driver.o
CalCh               0x4               build/PIC32_Standalone/production/main.o
IronID              0x2               build/PIC32_Standalone/production/iron.o
pDst                0x4               build/PIC32_Standalone/production/usb/usb_device.o
EEPCntR             0x2               build/PIC32_Standalone/production/isr.o
EEPCntW             0x2               build/PIC32_Standalone/production/isr.o
InvertTicks         0x4               build/PIC32_Standalone/production/main.o
NoHeater            0x1               build/PIC32_Standalone/production/isr.o
USBDeferINDataStagePackets
                    0x4               build/PIC32_Standalone/production/usb/usb_device.o
BDT                 0x40              build/PIC32_Standalone/production/usb/usb_device.o
CtrlTrfData         0x8               build/PIC32_Standalone/production/usb/usb_device.o
VIBuffCnt           0x4               build/PIC32_Standalone/production/isr.o
OLEDTemp            0x4               build/PIC32_Standalone/production/menu.o
OLEDBUFF            0x400             build/PIC32_Standalone/production/OLED.o
USBDeferOUTDataStagePackets
                    0x4               build/PIC32_Standalone/production/usb/usb_device.o
ISRStep             0x4               build/PIC32_Standalone/production/isr.o
USBDeviceState      0x4               build/PIC32_Standalone/production/usb/usb_device.o
controlTransferState
                    0x1               build/PIC32_Standalone/production/usb/usb_device.o
endpoint_number     0x1               build/PIC32_Standalone/production/usb/usb_device.o
MAINS_PER           0x4               build/PIC32_Standalone/production/main.o
_MRT_LastCoreTimer  0x4               build/PIC32_Standalone/production/PIC32MX534F064H.o
BuffEmpty           0x4               build/PIC32_Standalone/production/io.o
CRTemp              0x4               build/PIC32_Standalone/production/PID.o
inPipes             0x10              build/PIC32_Standalone/production/usb/usb_device.o
pBDTEntryIn         0x8               build/PIC32_Standalone/production/usb/usb_device.o
I2CIdle             0x1               build/PIC32_Standalone/production/isr.o
VBuff               0x400             build/PIC32_Standalone/production/isr.o
ep_data_out         0x2               build/PIC32_Standalone/production/usb/usb_device.o
mcuADCRES           0x4               build/PIC32_Standalone/production/PIC32MX534F064H.o
ADCStep             0x4               build/PIC32_Standalone/production/isr.o
USBStatusStageEnabledFlag1
                    0x4               build/PIC32_Standalone/production/usb/usb_device.o
SPIAuto             0x4               build/PIC32_Standalone/production/PIC32MX534F064H.o
BeepTicks           0x4               build/PIC32_Standalone/production/main.o
KeepOff             0x4               build/PIC32_Standalone/production/isr.o
OLEDMsg1            0x4               build/PIC32_Standalone/production/menu.o
CompLowTime         0x4               build/PIC32_Standalone/production/isr.o
CTTemp              0x4               build/PIC32_Standalone/production/PID.o
EEPAddrR            0x2               build/PIC32_Standalone/production/isr.o
pars                0x10              build/PIC32_Standalone/production/main.o
EEPDataW            0x4               build/PIC32_Standalone/production/isr.o
Buff2               0x200             build/PIC32_Standalone/production/isr.o
USBStatusStageEnabledFlag2
                    0x4               build/PIC32_Standalone/production/usb/usb_device.o
pBDTEntryOut        0x8               build/PIC32_Standalone/production/usb/usb_device.o
I2CCCommand         0x4               build/PIC32_Standalone/production/isr.o
BothEP0OutUOWNsSet  0x4               build/PIC32_Standalone/production/usb/usb_device.o
pBDTEntryEP0OutNext
                    0x4               build/PIC32_Standalone/production/usb/usb_device.o
CompLowTimeOff      0x4               build/PIC32_Standalone/production/isr.o
ShortCircuit        0x1               build/PIC32_Standalone/production/isr.o
USBBusIsSuspended   0x4               build/PIC32_Standalone/production/usb/usb_device.o
IronPars            0xa0              build/PIC32_Standalone/production/iron.o
I2CData             0x8               build/PIC32_Standalone/production/isr.o
I2CCommands         0x4               build/PIC32_Standalone/production/isr.o
MAINS_PER_Q_US      0x4               build/PIC32_Standalone/production/main.o
USBTxBuffer         0x40              build/PIC32_Standalone/production/usb/usb_driver.o
ISRTicks            0x4               build/PIC32_Standalone/production/isr.o
USBStatusStageTimeoutCounter
                    0x1               build/PIC32_Standalone/production/usb/usb_device.o
I2CStep             0x4               build/PIC32_Standalone/production/isr.o
OLEDPower           0x4               build/PIC32_Standalone/production/menu.o
RTAvg               0x4               build/PIC32_Standalone/production/PID.o
SetupPkt            0x8               build/PIC32_Standalone/production/usb/usb_device.o
ADCData             0x20              build/PIC32_Standalone/production/isr.o
MAINS_PER_H_US      0x4               build/PIC32_Standalone/production/main.o
ep_data_in          0x2               build/PIC32_Standalone/production/usb/usb_device.o
active_protocol     0x1               build/PIC32_Standalone/production/usb/usb_function_hid.o
OffDelayOff         0x4               build/PIC32_Standalone/production/isr.o
shortPacketStatus   0x1               build/PIC32_Standalone/production/usb/usb_device.o
EEPDataR            0x4               build/PIC32_Standalone/production/isr.o
pBDTEntryEP0OutCurrent
                    0x4               build/PIC32_Standalone/production/usb/usb_device.o
USBActiveConfiguration
                    0x1               build/PIC32_Standalone/production/usb/usb_device.o
RemoteWakeup        0x4               build/PIC32_Standalone/production/usb/usb_device.o
ADCAutoData         0x800             build/PIC32_Standalone/production/isr.o
IronTicks           0x4               build/PIC32_Standalone/production/iron.o
OLEDMsg2            0x4               build/PIC32_Standalone/production/menu.o
PIDTicks            0x4               build/PIC32_Standalone/production/PID.o
EEPAddrW            0x2               build/PIC32_Standalone/production/isr.o
ISRStopped          0x4               build/PIC32_Standalone/production/isr.o
NoSensor            0x1               build/PIC32_Standalone/production/isr.o
CompLowTimeOn       0x4               build/PIC32_Standalone/production/isr.o
IBuff               0x400             build/PIC32_Standalone/production/isr.o
USTATcopy           0x1               build/PIC32_Standalone/production/usb/usb_device.o
PHEATER             0x1               build/PIC32_Standalone/production/isr.o
C_PER               0x4               build/PIC32_Standalone/production/main.o
T_PER               0x4               build/PIC32_Standalone/production/main.o
USBAlternateInterface
                    0x1               build/PIC32_Standalone/production/usb/usb_device.o
outPipes            0xb               build/PIC32_Standalone/production/usb/usb_device.o
USBDeferStatusStagePacket
                    0x4               build/PIC32_Standalone/production/usb/usb_device.o
PIDVars             0x288             build/PIC32_Standalone/production/PID.o
TTemp               0x4               build/PIC32_Standalone/production/main.o
MAINS_PER_US        0x4               build/PIC32_Standalone/production/main.o
idle_rate           0x1               build/PIC32_Standalone/production/usb/usb_function_hid.o
Buff1               0x200             build/PIC32_Standalone/production/isr.o

Microchip PIC32 Memory-Usage Report

kseg0 Program-Memory Usage
section                    address  length [bytes]      (dec)  Description
-------                 ----------  -------------------------  -----------
.rodata                 0x9d000000         0x1700        5888  Read-only const 
.text.OLEDTasks         0x9d001700         0x1330        4912   
.text.USBDeviceTasks    0x9d002a30         0x1230        4656   
.text.PID               0x9d003c60          0xf38        3896   
.text.ISRHigh           0x9d004b98          0xb5c        2908   
.rodata                 0x9d0056f4          0x8f4        2292  Read-only const 
.text.main              0x9d005fe8          0x8e4        2276   
.rodata                 0x9d0068cc          0x7d4        2004  Read-only const 
.text.I2CISRTasks       0x9d0070a0          0x6d0        1744   
.text.ProcessIO         0x9d007770          0x588        1416   
.text.MenuTasks         0x9d007cf8          0x4d4        1236   
.text.OLEDInit          0x9d0081cc          0x360         864   
.text.IronIdentify      0x9d00852c          0x350         848   
.text.mcuInit2          0x9d00887c          0x2e4         740   
.rodata                 0x9d008b60          0x284         644  Read-only const 
.text.USBDeviceInit     0x9d008de4          0x1f4         500   
.text.SpiChnOpen        0x9d008fd8          0x170         368   
.text.mcuInit1          0x9d009148          0x168         360   
.text                   0x9d0092b0          0x168         360  App's exec code 
.text.USBCheckHIDReques 0x9d009418          0x160         352   
.text.mcuADCStartAuto   0x9d009578          0x140         320   
.text.LoadPars          0x9d0096b8          0x13c         316   
.text.SavePars          0x9d0097f4          0x13c         316   
.text.ComparatorISR     0x9d009930          0x13c         316   
.text.OLEDPrintNum      0x9d009a6c          0x134         308   
.text.I2CISR            0x9d009ba0          0x130         304   
.dinit                  0x9d009cd0          0x130         304   
.text.USBCtrlEPAllowSta 0x9d009e00          0x12c         300   
.text.OLEDUpdate        0x9d009f2c          0x11c         284   
.text.USBTransferOnePac 0x9d00a048          0x118         280   
.text.ISRStart          0x9d00a160          0x114         276   
.text.mcuADCStop        0x9d00a274          0x110         272   
.text.PIDISR            0x9d00a384          0x110         272   
.text.OLEDPrintCF1648   0x9d00a494           0xfc         252   
.text.USBCtrlTrfTxServi 0x9d00a590           0xf8         248   
.text.OLEDPrint         0x9d00a688           0xec         236   
.text.OLEDPrintGr       0x9d00a774           0xec         236   
.text.mcuI2CReset       0x9d00a860           0xe8         232   
.text.DmaChnOpen        0x9d00a948           0xe4         228   
.text.OLEDPrintNum3248  0x9d00aa2c           0xdc         220   
.text.general_exception 0x9d00ab08           0xdc         220   
.rodata                 0x9d00abe4           0xd4         212  Read-only const 
.text.USBCtrlEPAllowDat 0x9d00acb8           0xd0         208   
.text.ParDispNum        0x9d00ad88           0xc4         196   
.rodata                 0x9d00ae4c           0xc0         192  Read-only const 
.text.OLEDWriteGr       0x9d00af0c           0xc0         192   
.text.mcuADCReadWait    0x9d00afcc           0xbc         188   
.text.SpiChnClose       0x9d00b088           0xbc         188   
.text.SpiChnPutS        0x9d00b144           0xb8         184   
.text.IronTasks         0x9d00b1fc           0xb4         180   
.text.ADCISR            0x9d00b2b0           0xac         172   
.text.ISRInit           0x9d00b35c           0xa8         168   
.text                   0x9d00b404           0xa8         168  App's exec code 
.text.ParDispCF         0x9d00b4ac           0xa0         160   
.rodata                 0x9d00b54c           0xa0         160  Read-only const 
.text.MenuInit          0x9d00b5ec           0x9c         156   
.text.OnPowerLost       0x9d00b688           0x90         144   
.text.ISRStop           0x9d00b718           0x8c         140   
.text.mcuADCStartManual 0x9d00b7a4           0x88         136   
.text.ParDispTemp       0x9d00b82c           0x88         136   
.text.Timer2ISR         0x9d00b8b4           0x84         132   
.text.EEPRead           0x9d00b938           0x84         132   
.text.Timer1ISR         0x9d00b9bc           0x7c         124   
.text.SoftReset         0x9d00ba38           0x78         120   
.text.USBEnableEndpoint 0x9d00bab0           0x6c         108   
.text.mcuInitISRTimer   0x9d00bb1c           0x6c         108   
.text.ParDispStr        0x9d00bb88           0x6c         108   
.text.DmaChnSetTxfer    0x9d00bbf4           0x68         104   
.text.USBConfigureEndpo 0x9d00bc5c           0x60          96   
.text.EEPWriteImm       0x9d00bcbc           0x60          96   
.text.OLEDWrite         0x9d00bd1c           0x60          96   
.text.ParDispNumOff     0x9d00bd7c           0x5c          92   
.text.PIDInit           0x9d00bdd8           0x58          88   
.text.I2CAddCommands    0x9d00be30           0x54          84   
.text.SpiChnPutC        0x9d00be84           0x54          84   
.text.mcuADCRead        0x9d00bed8           0x50          80   
.text.mcuSPIStop        0x9d00bf28           0x50          80   
.text.OLEDInvert        0x9d00bf78           0x50          80   
.text.main_entry        0x9d00bfc8           0x4c          76   
.text.USER_USB_CALLBACK 0x9d00c014           0x4c          76   
.text.OLEDFill          0x9d00c060           0x4c          76   
.text.INTEnable         0x9d00c0ac           0x4c          76   
.text.DmaChnAbortTxfer  0x9d00c0f8           0x48          72   
.rodata                 0x9d00c140           0x48          72  Read-only const 
.text.I2CSetFrequency   0x9d00c188           0x48          72   
.text._bootstrap_except 0x9d00c1d0           0x48          72   
.text._general_exceptio 0x9d00c218           0x48          72   
.text.IOTasks           0x9d00c260           0x44          68   
.text.DelayTicks        0x9d00c2a4           0x44          68   
.text.mcuReadTime_us    0x9d00c2e8           0x44          68   
.text                   0x9d00c32c           0x44          68  App's exec code 
.text.I2CAcknowledgeByt 0x9d00c370           0x44          68   
.text                   0x9d00c3b4           0x44          68  App's exec code 
.vector_default         0x9d00c3f8           0x40          64   
.text.USBCBInitEP       0x9d00c438           0x3c          60   
.text.PORTSetPinsDigita 0x9d00c474           0x3c          60   
.text.PORTSetPinsDigita 0x9d00c4b0           0x3c          60   
.text.INTSetVectorPrior 0x9d00c4ec           0x38          56   
.text.INTSetVectorSubPr 0x9d00c524           0x38          56   
.text.I2CReceiverEnable 0x9d00c55c           0x38          56   
.text.IronInit          0x9d00c594           0x34          52   
.text.IOInit            0x9d00c5c8           0x34          52   
.text.mcuSqrt           0x9d00c5fc           0x34          52   
.text.INTEnableSystemMu 0x9d00c630           0x34          52   
.text.DmaChnDisable     0x9d00c664           0x34          52   
.text.I2CSendByte       0x9d00c698           0x34          52   
.text.I2CStart          0x9d00c6cc           0x34          52   
.text.mcuStartISRTimer  0x9d00c700           0x2c          44   
.text.mcuStopISRTimer   0x9d00c72c           0x2c          44   
.text.DmaChnWriteEventC 0x9d00c758           0x2c          44   
.text.DmaChnWriteEvEnab 0x9d00c784           0x2c          44   
.text.INTClearFlag      0x9d00c7b0           0x28          40   
.text.INTSetFlag        0x9d00c7d8           0x28          40   
.text.PORTResetPins     0x9d00c800           0x28          40   
.text.I2CEnable         0x9d00c828           0x28          40   
.text.DmaChnEnable      0x9d00c850           0x24          36   
.text.I2CByteWasAcknowl 0x9d00c874           0x24          36   
.text.I2CStop           0x9d00c898           0x24          36   
.text.mcuSPIWait        0x9d00c8bc           0x20          32   
.text.OLEDFillGr        0x9d00c8dc           0x20          32   
.text.SpiChnIsBusy      0x9d00c8fc           0x20          32   
.text.DmaChnGetDstPnt   0x9d00c91c           0x20          32   
.text.I2CGetByte        0x9d00c93c           0x20          32   
.text.mcuDCTimerReset   0x9d00c95c           0x1c          28   
.text.INTRestoreInterru 0x9d00c978           0x1c          28   
.text.mcuJumpToBootLoad 0x9d00c994           0x18          24   
.text                   0x9d00c9ac           0x18          24  App's exec code 
.rodata                 0x9d00c9c4           0x24          36  Read-only const 
.text.USBDriverInit     0x9d00c9e8            0xc          12   
.text.OpenCoreTimer     0x9d00c9f4            0xc          12   
.text.ReadCoreTimer     0x9d00ca00            0x8           8   
.text.INTEnableInterrup 0x9d00ca08            0x8           8   
.text.INTDisableInterru 0x9d00ca10            0x8           8   
.text._on_reset         0x9d00ca18            0x8           8   
.text._on_bootstrap     0x9d00ca20            0x8           8   
.rodata                 0x9d00ca28            0x4           4  Read-only const 
      Total kseg0_program_mem used  :      0xca2c       51756  79.0% of 0x10000

kseg0 Boot-Memory Usage
section                    address  length [bytes]      (dec)  Description
-------                 ----------  -------------------------  -----------
         Total kseg0_boot_mem used  :           0           0  <1% of 0x970

Exception-Memory Usage 
section                    address  length [bytes]      (dec)  Description
-------                 ----------  -------------------------  -----------
.app_excpt              0x9fc01180           0x10          16  General-Exception 
.vector_0               0x9fc01200            0x8           8  Interrupt Vector 0 
.vector_1               0x9fc01220            0x8           8  Interrupt Vector 1 
.vector_2               0x9fc01240            0x8           8  Interrupt Vector 2 
.vector_3               0x9fc01260            0x8           8  Interrupt Vector 3 
.vector_4               0x9fc01280            0x8           8  Interrupt Vector 4 
.vector_5               0x9fc012a0            0x8           8  Interrupt Vector 5 
.vector_6               0x9fc012c0            0x8           8  Interrupt Vector 6 
.vector_7               0x9fc012e0            0x8           8  Interrupt Vector 7 
.vector_8               0x9fc01300            0x8           8  Interrupt Vector 8 
.vector_9               0x9fc01320            0x8           8  Interrupt Vector 9 
.vector_10              0x9fc01340            0x8           8  Interrupt Vector 10 
.vector_11              0x9fc01360            0x8           8  Interrupt Vector 11 
.vector_12              0x9fc01380            0x8           8  Interrupt Vector 12 
.vector_13              0x9fc013a0            0x8           8  Interrupt Vector 13 
.vector_14              0x9fc013c0            0x8           8  Interrupt Vector 14 
.vector_15              0x9fc013e0            0x8           8  Interrupt Vector 15 
.vector_16              0x9fc01400            0x8           8  Interrupt Vector 16 
.vector_17              0x9fc01420            0x8           8  Interrupt Vector 17 
.vector_18              0x9fc01440            0x8           8  Interrupt Vector 18 
.vector_19              0x9fc01460            0x8           8  Interrupt Vector 19 
.vector_20              0x9fc01480            0x8           8  Interrupt Vector 20 
.vector_21              0x9fc014a0            0x8           8  Interrupt Vector 21 
.vector_22              0x9fc014c0            0x8           8  Interrupt Vector 22 
.vector_23              0x9fc014e0            0x8           8  Interrupt Vector 23 
.vector_24              0x9fc01500            0x8           8  Interrupt Vector 24 
.vector_25              0x9fc01520            0x8           8  Interrupt Vector 25 
.vector_26              0x9fc01540            0x8           8  Interrupt Vector 26 
.vector_27              0x9fc01560            0x8           8  Interrupt Vector 27 
.vector_28              0x9fc01580            0x8           8  Interrupt Vector 28 
.vector_29              0x9fc015a0            0x8           8  Interrupt Vector 29 
.vector_30              0x9fc015c0            0x8           8  Interrupt Vector 30 
.vector_31              0x9fc015e0            0x8           8  Interrupt Vector 31 
.vector_32              0x9fc01600            0x8           8  Interrupt Vector 32 
.vector_33              0x9fc01620            0x8           8  Interrupt Vector 33 
.vector_34              0x9fc01640            0x8           8  Interrupt Vector 34 
.vector_35              0x9fc01660            0x8           8  Interrupt Vector 35 
.vector_36              0x9fc01680            0x8           8  Interrupt Vector 36 
.vector_37              0x9fc016a0            0x8           8  Interrupt Vector 37 
.vector_38              0x9fc016c0            0x8           8  Interrupt Vector 38 
.vector_39              0x9fc016e0            0x8           8  Interrupt Vector 39 
.vector_40              0x9fc01700            0x8           8  Interrupt Vector 40 
.vector_41              0x9fc01720            0x8           8  Interrupt Vector 41 
.vector_42              0x9fc01740            0x8           8  Interrupt Vector 42 
.vector_43              0x9fc01760            0x8           8  Interrupt Vector 43 
.vector_44              0x9fc01780            0x8           8  Interrupt Vector 44 
.vector_45              0x9fc017a0            0x8           8  Interrupt Vector 45 
.vector_46              0x9fc017c0            0x8           8  Interrupt Vector 46 
.vector_47              0x9fc017e0            0x8           8  Interrupt Vector 47 
.vector_48              0x9fc01800            0x8           8  Interrupt Vector 48 
.vector_49              0x9fc01820            0x8           8  Interrupt Vector 49 
.vector_50              0x9fc01840            0x8           8  Interrupt Vector 50 
.vector_51              0x9fc01860            0x8           8  Interrupt Vector 51 
.vector_52              0x9fc01880            0x8           8  Interrupt Vector 52 
.vector_53              0x9fc018a0            0x8           8  Interrupt Vector 53 
.vector_54              0x9fc018c0            0x8           8  Interrupt Vector 54 
.vector_55              0x9fc018e0            0x8           8  Interrupt Vector 55 
.vector_56              0x9fc01900            0x8           8  Interrupt Vector 56 
.vector_57              0x9fc01920            0x8           8  Interrupt Vector 57 
.vector_58              0x9fc01940            0x8           8  Interrupt Vector 58 
.vector_59              0x9fc01960            0x8           8  Interrupt Vector 59 
.vector_60              0x9fc01980            0x8           8  Interrupt Vector 60 
.vector_61              0x9fc019a0            0x8           8  Interrupt Vector 61 
.vector_62              0x9fc019c0            0x8           8  Interrupt Vector 62 
.vector_63              0x9fc019e0            0x8           8  Interrupt Vector 63 
          Total exception_mem used  :       0x210         528  12.9% of 0x1000

kseg1 Boot-Memory Usage
section                    address  length [bytes]      (dec)  Description
-------                 ----------  -------------------------  -----------
.reset                  0xbfc00000          0x1f0         496  Reset handler 
.bev_excpt              0xbfc00380           0x10          16  BEV-Exception 
         Total kseg1_boot_mem used  :       0x200         512  43.8% of 0x490
        --------------------------------------------------------------------------
         Total Program Memory used  :      0xce3c       52796  72.1% of 0x11e00
        --------------------------------------------------------------------------


kseg1 Data-Memory Usage
section                    address  length [bytes]      (dec)  Description
-------                 ----------  -------------------------  -----------
.sdata                  0xa0000000           0x24          36  Small init data 
.sbss                   0xa0000024          0x1d4         468  Small uninit data 
.bss                    0xa0000200         0x1c34        7220  Uninitialized data 
.bss                    0xa0001e34           0x24          36  Uninitialized data 
.data                   0xa0001e58           0x1c          28  Initialized data 
         Total kseg1_data_mem used  :      0x1e6c        7788  47.5% of 0x4000
        --------------------------------------------------------------------------
            Total Data Memory used  :      0x1e6c        7788  47.5% of 0x4000
        --------------------------------------------------------------------------


Dynamic Data-Memory Reservation
section                    address  length [bytes]      (dec)  Description
-------                 ----------  -------------------------  -----------
heap                    0xa0001e78           0x10          16  Reserved for heap 
stack                   0xa0001ea0         0x2150        8528  Reserved for stack 

        --------------------------------------------------------------------------

Discarded input sections

 .text          0x00000000        0x0 f:/program files/microchip/xc32/v1.33/bin/bin/../../lib/gcc/pic32mx/4.5.2/../../../../pic32mx/lib/./proc/32MX534F064H/crt0_mips32r2.o
 .data          0x00000000        0x0 f:/program files/microchip/xc32/v1.33/bin/bin/../../lib/gcc/pic32mx/4.5.2/../../../../pic32mx/lib/./proc/32MX534F064H/crt0_mips32r2.o
 .bss           0x00000000        0x0 f:/program files/microchip/xc32/v1.33/bin/bin/../../lib/gcc/pic32mx/4.5.2/../../../../pic32mx/lib/./proc/32MX534F064H/crt0_mips32r2.o
 .text          0x00000000        0x0 f:/program files/microchip/xc32/v1.33/bin/bin/../../lib/gcc/pic32mx/4.5.2/../../../../pic32mx/lib/size\debug-exception-return.o
 .data          0x00000000        0x0 f:/program files/microchip/xc32/v1.33/bin/bin/../../lib/gcc/pic32mx/4.5.2/../../../../pic32mx/lib/size\debug-exception-return.o
 .bss           0x00000000        0x0 f:/program files/microchip/xc32/v1.33/bin/bin/../../lib/gcc/pic32mx/4.5.2/../../../../pic32mx/lib/size\debug-exception-return.o
 .reginfo       0x00000000       0x18 f:/program files/microchip/xc32/v1.33/bin/bin/../../lib/gcc/pic32mx/4.5.2/../../../../pic32mx/lib/size\debug-exception-return.o
 .text          0x00000000        0x0 build/PIC32_Standalone/production/usb/usb_descriptors.o
 .data          0x00000000        0x0 build/PIC32_Standalone/production/usb/usb_descriptors.o
 .bss           0x00000000        0x0 build/PIC32_Standalone/production/usb/usb_descriptors.o
 .reginfo       0x00000000       0x18 build/PIC32_Standalone/production/usb/usb_descriptors.o
 .text          0x00000000        0x0 build/PIC32_Standalone/production/usb/usb_device.o
 .data          0x00000000        0x0 build/PIC32_Standalone/production/usb/usb_device.o
 .bss           0x00000000        0x0 build/PIC32_Standalone/production/usb/usb_device.o
 .reginfo       0x00000000       0x18 build/PIC32_Standalone/production/usb/usb_device.o
 .text.USBStallEndpoint
                0x00000000       0xfc build/PIC32_Standalone/production/usb/usb_device.o
 .text.USBCancelIO
                0x00000000      0x1c4 build/PIC32_Standalone/production/usb/usb_device.o
 .text          0x00000000        0x0 build/PIC32_Standalone/production/usb/usb_driver.o
 .data          0x00000000        0x0 build/PIC32_Standalone/production/usb/usb_driver.o
 .bss           0x00000000        0x0 build/PIC32_Standalone/production/usb/usb_driver.o
 .reginfo       0x00000000       0x18 build/PIC32_Standalone/production/usb/usb_driver.o
 .text.USBCBSuspend
                0x00000000        0x8 build/PIC32_Standalone/production/usb/usb_driver.o
 .text.USBCBWakeFromSuspend
                0x00000000        0x8 build/PIC32_Standalone/production/usb/usb_driver.o
 .text.USBCB_SOF_Handler
                0x00000000        0x8 build/PIC32_Standalone/production/usb/usb_driver.o
 .text.USBCBErrorHandler
                0x00000000        0x8 build/PIC32_Standalone/production/usb/usb_driver.o
 .text.USBCBCheckOtherReq
                0x00000000        0x8 build/PIC32_Standalone/production/usb/usb_driver.o
 .text.USBCBStdSetDscHandler
                0x00000000        0x8 build/PIC32_Standalone/production/usb/usb_driver.o
 .text.USBCBSendResume
                0x00000000       0x50 build/PIC32_Standalone/production/usb/usb_driver.o
 .text          0x00000000        0x0 build/PIC32_Standalone/production/usb/usb_function_hid.o
 .data          0x00000000        0x0 build/PIC32_Standalone/production/usb/usb_function_hid.o
 .bss           0x00000000        0x0 build/PIC32_Standalone/production/usb/usb_function_hid.o
 .reginfo       0x00000000       0x18 build/PIC32_Standalone/production/usb/usb_function_hid.o
 .text          0x00000000        0x0 build/PIC32_Standalone/production/usb/usb_hal_pic24.o
 .data          0x00000000        0x0 build/PIC32_Standalone/production/usb/usb_hal_pic24.o
 .bss           0x00000000        0x0 build/PIC32_Standalone/production/usb/usb_hal_pic24.o
 .reginfo       0x00000000       0x18 build/PIC32_Standalone/production/usb/usb_hal_pic24.o
 .text          0x00000000        0x0 build/PIC32_Standalone/production/main.o
 .data          0x00000000        0x0 build/PIC32_Standalone/production/main.o
 .bss           0x00000000        0x0 build/PIC32_Standalone/production/main.o
 .reginfo       0x00000000       0x18 build/PIC32_Standalone/production/main.o
 .text          0x00000000        0x0 build/PIC32_Standalone/production/isr.o
 .data          0x00000000        0x0 build/PIC32_Standalone/production/isr.o
 .bss           0x00000000        0x0 build/PIC32_Standalone/production/isr.o
 .reginfo       0x00000000       0x18 build/PIC32_Standalone/production/isr.o
 .text          0x00000000        0x0 build/PIC32_Standalone/production/iron.o
 .data          0x00000000        0x0 build/PIC32_Standalone/production/iron.o
 .bss           0x00000000        0x0 build/PIC32_Standalone/production/iron.o
 .reginfo       0x00000000       0x18 build/PIC32_Standalone/production/iron.o
 .text          0x00000000        0x0 build/PIC32_Standalone/production/PID.o
 .data          0x00000000        0x0 build/PIC32_Standalone/production/PID.o
 .bss           0x00000000        0x0 build/PIC32_Standalone/production/PID.o
 .reginfo       0x00000000       0x18 build/PIC32_Standalone/production/PID.o
 .text          0x00000000        0x0 build/PIC32_Standalone/production/io.o
 .data          0x00000000        0x0 build/PIC32_Standalone/production/io.o
 .bss           0x00000000        0x0 build/PIC32_Standalone/production/io.o
 .reginfo       0x00000000       0x18 build/PIC32_Standalone/production/io.o
 .text          0x00000000        0x0 build/PIC32_Standalone/production/menu.o
 .data          0x00000000        0x0 build/PIC32_Standalone/production/menu.o
 .reginfo       0x00000000       0x18 build/PIC32_Standalone/production/menu.o
 .text          0x00000000        0x0 build/PIC32_Standalone/production/PIC32MX534F064H.o
 .data          0x00000000        0x0 build/PIC32_Standalone/production/PIC32MX534F064H.o
 .bss           0x00000000        0x0 build/PIC32_Standalone/production/PIC32MX534F064H.o
 .reginfo       0x00000000       0x18 build/PIC32_Standalone/production/PIC32MX534F064H.o
 .text.mcuSPISendAuto
                0x00000000       0x84 build/PIC32_Standalone/production/PIC32MX534F064H.o
 .text          0x00000000        0x0 build/PIC32_Standalone/production/EEP.o
 .data          0x00000000        0x0 build/PIC32_Standalone/production/EEP.o
 .bss           0x00000000        0x0 build/PIC32_Standalone/production/EEP.o
 .reginfo       0x00000000       0x18 build/PIC32_Standalone/production/EEP.o
 .text.EEPWrite
                0x00000000       0x60 build/PIC32_Standalone/production/EEP.o
 .text          0x00000000        0x0 build/PIC32_Standalone/production/OLED.o
 .data          0x00000000        0x0 build/PIC32_Standalone/production/OLED.o
 .bss           0x00000000        0x0 build/PIC32_Standalone/production/OLED.o
 .reginfo       0x00000000       0x18 build/PIC32_Standalone/production/OLED.o
 .text.OLEDUpdateDMA
                0x00000000       0xb0 build/PIC32_Standalone/production/OLED.o
 .text          0x00000000        0x0 build/PIC32_Standalone/production/pars.o
 .bss           0x00000000        0x0 build/PIC32_Standalone/production/pars.o
 .reginfo       0x00000000       0x18 build/PIC32_Standalone/production/pars.o
 .text          0x00000000        0x0 f:/program files/microchip/xc32/v1.33/bin/bin/../../lib/gcc/pic32mx/4.5.2/../../../../pic32mx/lib/./proc/32MX534F064H\default_isr_vectors.o
 .data          0x00000000        0x0 f:/program files/microchip/xc32/v1.33/bin/bin/../../lib/gcc/pic32mx/4.5.2/../../../../pic32mx/lib/./proc/32MX534F064H\default_isr_vectors.o
 .bss           0x00000000        0x0 f:/program files/microchip/xc32/v1.33/bin/bin/../../lib/gcc/pic32mx/4.5.2/../../../../pic32mx/lib/./proc/32MX534F064H\default_isr_vectors.o
 .reginfo       0x00000000       0x18 f:/program files/microchip/xc32/v1.33/bin/bin/../../lib/gcc/pic32mx/4.5.2/../../../../pic32mx/lib/./proc/32MX534F064H\default_isr_vectors.o
 .discard       0x00000000      0x100 f:/program files/microchip/xc32/v1.33/bin/bin/../../lib/gcc/pic32mx/4.5.2/../../../../pic32mx/lib/./proc/32MX534F064H\default_isr_vectors.o
 .data          0x00000000        0x0 f:/program files/microchip/xc32/v1.33/bin/bin/../../lib/gcc/pic32mx/4.5.2/../../../../pic32mx/lib/size\pic32_software_reset.o
 .bss           0x00000000        0x0 f:/program files/microchip/xc32/v1.33/bin/bin/../../lib/gcc/pic32mx/4.5.2/../../../../pic32mx/lib/size\pic32_software_reset.o
 .reginfo       0x00000000       0x18 f:/program files/microchip/xc32/v1.33/bin/bin/../../lib/gcc/pic32mx/4.5.2/../../../../pic32mx/lib/size\pic32_software_reset.o
 .text          0x00000000        0x0 f:/program files/microchip/xc32/v1.33/bin/bin/../../lib/gcc/pic32mx/4.5.2/../../../../pic32mx/lib/./proc/32MX534F064H\processor.o
 .data          0x00000000        0x0 f:/program files/microchip/xc32/v1.33/bin/bin/../../lib/gcc/pic32mx/4.5.2/../../../../pic32mx/lib/./proc/32MX534F064H\processor.o
 .bss           0x00000000        0x0 f:/program files/microchip/xc32/v1.33/bin/bin/../../lib/gcc/pic32mx/4.5.2/../../../../pic32mx/lib/./proc/32MX534F064H\processor.o
 .reginfo       0x00000000       0x18 f:/program files/microchip/xc32/v1.33/bin/bin/../../lib/gcc/pic32mx/4.5.2/../../../../pic32mx/lib/./proc/32MX534F064H\processor.o
 .text          0x00000000        0x0 f:/program files/microchip/xc32/v1.33/bin/bin/../../lib/gcc/pic32mx/4.5.2/../../../../pic32mx/lib/size\libmchp_peripheral.a(open_core_timer_lib.o)
 .data          0x00000000        0x0 f:/program files/microchip/xc32/v1.33/bin/bin/../../lib/gcc/pic32mx/4.5.2/../../../../pic32mx/lib/size\libmchp_peripheral.a(open_core_timer_lib.o)
 .bss           0x00000000        0x0 f:/program files/microchip/xc32/v1.33/bin/bin/../../lib/gcc/pic32mx/4.5.2/../../../../pic32mx/lib/size\libmchp_peripheral.a(open_core_timer_lib.o)
 .reginfo       0x00000000       0x18 f:/program files/microchip/xc32/v1.33/bin/bin/../../lib/gcc/pic32mx/4.5.2/../../../../pic32mx/lib/size\libmchp_peripheral.a(open_core_timer_lib.o)
 .text          0x00000000        0x0 f:/program files/microchip/xc32/v1.33/bin/bin/../../lib/gcc/pic32mx/4.5.2/../../../../pic32mx/lib/size\libmchp_peripheral.a(read_core_timer_lib.o)
 .data          0x00000000        0x0 f:/program files/microchip/xc32/v1.33/bin/bin/../../lib/gcc/pic32mx/4.5.2/../../../../pic32mx/lib/size\libmchp_peripheral.a(read_core_timer_lib.o)
 .bss           0x00000000        0x0 f:/program files/microchip/xc32/v1.33/bin/bin/../../lib/gcc/pic32mx/4.5.2/../../../../pic32mx/lib/size\libmchp_peripheral.a(read_core_timer_lib.o)
 .reginfo       0x00000000       0x18 f:/program files/microchip/xc32/v1.33/bin/bin/../../lib/gcc/pic32mx/4.5.2/../../../../pic32mx/lib/size\libmchp_peripheral.a(read_core_timer_lib.o)
 .text          0x00000000        0x0 f:/program files/microchip/xc32/v1.33/bin/bin/../../lib/gcc/pic32mx/4.5.2/../../../../pic32mx/lib/size\libmchp_peripheral_32MX534F064H.a(soft_reset_lib.o)
 .data          0x00000000        0x0 f:/program files/microchip/xc32/v1.33/bin/bin/../../lib/gcc/pic32mx/4.5.2/../../../../pic32mx/lib/size\libmchp_peripheral_32MX534F064H.a(soft_reset_lib.o)
 .bss           0x00000000        0x0 f:/program files/microchip/xc32/v1.33/bin/bin/../../lib/gcc/pic32mx/4.5.2/../../../../pic32mx/lib/size\libmchp_peripheral_32MX534F064H.a(soft_reset_lib.o)
 .reginfo       0x00000000       0x18 f:/program files/microchip/xc32/v1.33/bin/bin/../../lib/gcc/pic32mx/4.5.2/../../../../pic32mx/lib/size\libmchp_peripheral_32MX534F064H.a(soft_reset_lib.o)
 .text          0x00000000        0x0 f:/program files/microchip/xc32/v1.33/bin/bin/../../lib/gcc/pic32mx/4.5.2/../../../../pic32mx/lib/size\libmchp_peripheral_32MX534F064H.a(int_enable_interrupts_lib.o)
 .data          0x00000000        0x0 f:/program files/microchip/xc32/v1.33/bin/bin/../../lib/gcc/pic32mx/4.5.2/../../../../pic32mx/lib/size\libmchp_peripheral_32MX534F064H.a(int_enable_interrupts_lib.o)
 .bss           0x00000000        0x0 f:/program files/microchip/xc32/v1.33/bin/bin/../../lib/gcc/pic32mx/4.5.2/../../../../pic32mx/lib/size\libmchp_peripheral_32MX534F064H.a(int_enable_interrupts_lib.o)
 .reginfo       0x00000000       0x18 f:/program files/microchip/xc32/v1.33/bin/bin/../../lib/gcc/pic32mx/4.5.2/../../../../pic32mx/lib/size\libmchp_peripheral_32MX534F064H.a(int_enable_interrupts_lib.o)
 .text          0x00000000        0x0 f:/program files/microchip/xc32/v1.33/bin/bin/../../lib/gcc/pic32mx/4.5.2/../../../../pic32mx/lib/size\libmchp_peripheral_32MX534F064H.a(int_disable_interrupts_lib.o)
 .data          0x00000000        0x0 f:/program files/microchip/xc32/v1.33/bin/bin/../../lib/gcc/pic32mx/4.5.2/../../../../pic32mx/lib/size\libmchp_peripheral_32MX534F064H.a(int_disable_interrupts_lib.o)
 .bss           0x00000000        0x0 f:/program files/microchip/xc32/v1.33/bin/bin/../../lib/gcc/pic32mx/4.5.2/../../../../pic32mx/lib/size\libmchp_peripheral_32MX534F064H.a(int_disable_interrupts_lib.o)
 .reginfo       0x00000000       0x18 f:/program files/microchip/xc32/v1.33/bin/bin/../../lib/gcc/pic32mx/4.5.2/../../../../pic32mx/lib/size\libmchp_peripheral_32MX534F064H.a(int_disable_interrupts_lib.o)
 .text          0x00000000        0x0 f:/program files/microchip/xc32/v1.33/bin/bin/../../lib/gcc/pic32mx/4.5.2/../../../../pic32mx/lib/size\libmchp_peripheral_32MX534F064H.a(int_restore_interrupts_lib.o)
 .data          0x00000000        0x0 f:/program files/microchip/xc32/v1.33/bin/bin/../../lib/gcc/pic32mx/4.5.2/../../../../pic32mx/lib/size\libmchp_peripheral_32MX534F064H.a(int_restore_interrupts_lib.o)
 .bss           0x00000000        0x0 f:/program files/microchip/xc32/v1.33/bin/bin/../../lib/gcc/pic32mx/4.5.2/../../../../pic32mx/lib/size\libmchp_peripheral_32MX534F064H.a(int_restore_interrupts_lib.o)
 .reginfo       0x00000000       0x18 f:/program files/microchip/xc32/v1.33/bin/bin/../../lib/gcc/pic32mx/4.5.2/../../../../pic32mx/lib/size\libmchp_peripheral_32MX534F064H.a(int_restore_interrupts_lib.o)
 .text          0x00000000        0x0 f:/program files/microchip/xc32/v1.33/bin/bin/../../lib/gcc/pic32mx/4.5.2/../../../../pic32mx/lib/size\libmchp_peripheral_32MX534F064H.a(int_enable_mv_int_lib.o)
 .data          0x00000000        0x0 f:/program files/microchip/xc32/v1.33/bin/bin/../../lib/gcc/pic32mx/4.5.2/../../../../pic32mx/lib/size\libmchp_peripheral_32MX534F064H.a(int_enable_mv_int_lib.o)
 .bss           0x00000000        0x0 f:/program files/microchip/xc32/v1.33/bin/bin/../../lib/gcc/pic32mx/4.5.2/../../../../pic32mx/lib/size\libmchp_peripheral_32MX534F064H.a(int_enable_mv_int_lib.o)
 .reginfo       0x00000000       0x18 f:/program files/microchip/xc32/v1.33/bin/bin/../../lib/gcc/pic32mx/4.5.2/../../../../pic32mx/lib/size\libmchp_peripheral_32MX534F064H.a(int_enable_mv_int_lib.o)
 .text          0x00000000        0x0 f:/program files/microchip/xc32/v1.33/bin/bin/../../lib/gcc/pic32mx/4.5.2/../../../../pic32mx/lib/size\libmchp_peripheral_32MX534F064H.a(int_tbl_lib.o)
 .data          0x00000000        0x0 f:/program files/microchip/xc32/v1.33/bin/bin/../../lib/gcc/pic32mx/4.5.2/../../../../pic32mx/lib/size\libmchp_peripheral_32MX534F064H.a(int_tbl_lib.o)
 .bss           0x00000000        0x0 f:/program files/microchip/xc32/v1.33/bin/bin/../../lib/gcc/pic32mx/4.5.2/../../../../pic32mx/lib/size\libmchp_peripheral_32MX534F064H.a(int_tbl_lib.o)
 .reginfo       0x00000000       0x18 f:/program files/microchip/xc32/v1.33/bin/bin/../../lib/gcc/pic32mx/4.5.2/../../../../pic32mx/lib/size\libmchp_peripheral_32MX534F064H.a(int_tbl_lib.o)
 .text.INTGetFlag
                0x00000000       0x28 f:/program files/microchip/xc32/v1.33/bin/bin/../../lib/gcc/pic32mx/4.5.2/../../../../pic32mx/lib/size\libmchp_peripheral_32MX534F064H.a(int_tbl_lib.o)
 .text.INTGetEnable
                0x00000000       0x28 f:/program files/microchip/xc32/v1.33/bin/bin/../../lib/gcc/pic32mx/4.5.2/../../../../pic32mx/lib/size\libmchp_peripheral_32MX534F064H.a(int_tbl_lib.o)
 .text.INTGetVectorPriority
                0x00000000       0x2c f:/program files/microchip/xc32/v1.33/bin/bin/../../lib/gcc/pic32mx/4.5.2/../../../../pic32mx/lib/size\libmchp_peripheral_32MX534F064H.a(int_tbl_lib.o)
 .text.INTGetVectorSubPriority
                0x00000000       0x2c f:/program files/microchip/xc32/v1.33/bin/bin/../../lib/gcc/pic32mx/4.5.2/../../../../pic32mx/lib/size\libmchp_peripheral_32MX534F064H.a(int_tbl_lib.o)
 .text          0x00000000        0x0 f:/program files/microchip/xc32/v1.33/bin/bin/../../lib/gcc/pic32mx/4.5.2/../../../../pic32mx/lib/size\libmchp_peripheral_32MX534F064H.a(spi_chn_close_lib.o)
 .data          0x00000000        0x0 f:/program files/microchip/xc32/v1.33/bin/bin/../../lib/gcc/pic32mx/4.5.2/../../../../pic32mx/lib/size\libmchp_peripheral_32MX534F064H.a(spi_chn_close_lib.o)
 .bss           0x00000000        0x0 f:/program files/microchip/xc32/v1.33/bin/bin/../../lib/gcc/pic32mx/4.5.2/../../../../pic32mx/lib/size\libmchp_peripheral_32MX534F064H.a(spi_chn_close_lib.o)
 .reginfo       0x00000000       0x18 f:/program files/microchip/xc32/v1.33/bin/bin/../../lib/gcc/pic32mx/4.5.2/../../../../pic32mx/lib/size\libmchp_peripheral_32MX534F064H.a(spi_chn_close_lib.o)
 .text          0x00000000        0x0 f:/program files/microchip/xc32/v1.33/bin/bin/../../lib/gcc/pic32mx/4.5.2/../../../../pic32mx/lib/size\libmchp_peripheral_32MX534F064H.a(spi_chn_open_lib.o)
 .data          0x00000000        0x0 f:/program files/microchip/xc32/v1.33/bin/bin/../../lib/gcc/pic32mx/4.5.2/../../../../pic32mx/lib/size\libmchp_peripheral_32MX534F064H.a(spi_chn_open_lib.o)
 .bss           0x00000000        0x0 f:/program files/microchip/xc32/v1.33/bin/bin/../../lib/gcc/pic32mx/4.5.2/../../../../pic32mx/lib/size\libmchp_peripheral_32MX534F064H.a(spi_chn_open_lib.o)
 .reginfo       0x00000000       0x18 f:/program files/microchip/xc32/v1.33/bin/bin/../../lib/gcc/pic32mx/4.5.2/../../../../pic32mx/lib/size\libmchp_peripheral_32MX534F064H.a(spi_chn_open_lib.o)
 .text          0x00000000        0x0 f:/program files/microchip/xc32/v1.33/bin/bin/../../lib/gcc/pic32mx/4.5.2/../../../../pic32mx/lib/size\libmchp_peripheral_32MX534F064H.a(spi_chn_putc_lib.o)
 .data          0x00000000        0x0 f:/program files/microchip/xc32/v1.33/bin/bin/../../lib/gcc/pic32mx/4.5.2/../../../../pic32mx/lib/size\libmchp_peripheral_32MX534F064H.a(spi_chn_putc_lib.o)
 .bss           0x00000000        0x0 f:/program files/microchip/xc32/v1.33/bin/bin/../../lib/gcc/pic32mx/4.5.2/../../../../pic32mx/lib/size\libmchp_peripheral_32MX534F064H.a(spi_chn_putc_lib.o)
 .reginfo       0x00000000       0x18 f:/program files/microchip/xc32/v1.33/bin/bin/../../lib/gcc/pic32mx/4.5.2/../../../../pic32mx/lib/size\libmchp_peripheral_32MX534F064H.a(spi_chn_putc_lib.o)
 .text.SpiChnWriteC
                0x00000000       0x20 f:/program files/microchip/xc32/v1.33/bin/bin/../../lib/gcc/pic32mx/4.5.2/../../../../pic32mx/lib/size\libmchp_peripheral_32MX534F064H.a(spi_chn_putc_lib.o)
 .text.SpiChnBuffer
                0x00000000       0x1c f:/program files/microchip/xc32/v1.33/bin/bin/../../lib/gcc/pic32mx/4.5.2/../../../../pic32mx/lib/size\libmchp_peripheral_32MX534F064H.a(spi_chn_putc_lib.o)
 .text          0x00000000        0x0 f:/program files/microchip/xc32/v1.33/bin/bin/../../lib/gcc/pic32mx/4.5.2/../../../../pic32mx/lib/size\libmchp_peripheral_32MX534F064H.a(spi_chn_puts_lib.o)
 .data          0x00000000        0x0 f:/program files/microchip/xc32/v1.33/bin/bin/../../lib/gcc/pic32mx/4.5.2/../../../../pic32mx/lib/size\libmchp_peripheral_32MX534F064H.a(spi_chn_puts_lib.o)
 .bss           0x00000000        0x0 f:/program files/microchip/xc32/v1.33/bin/bin/../../lib/gcc/pic32mx/4.5.2/../../../../pic32mx/lib/size\libmchp_peripheral_32MX534F064H.a(spi_chn_puts_lib.o)
 .reginfo       0x00000000       0x18 f:/program files/microchip/xc32/v1.33/bin/bin/../../lib/gcc/pic32mx/4.5.2/../../../../pic32mx/lib/size\libmchp_peripheral_32MX534F064H.a(spi_chn_puts_lib.o)
 .text          0x00000000        0x0 f:/program files/microchip/xc32/v1.33/bin/bin/../../lib/gcc/pic32mx/4.5.2/../../../../pic32mx/lib/size\libmchp_peripheral_32MX534F064H.a(spi_chn_is_busy_lib.o)
 .data          0x00000000        0x0 f:/program files/microchip/xc32/v1.33/bin/bin/../../lib/gcc/pic32mx/4.5.2/../../../../pic32mx/lib/size\libmchp_peripheral_32MX534F064H.a(spi_chn_is_busy_lib.o)
 .bss           0x00000000        0x0 f:/program files/microchip/xc32/v1.33/bin/bin/../../lib/gcc/pic32mx/4.5.2/../../../../pic32mx/lib/size\libmchp_peripheral_32MX534F064H.a(spi_chn_is_busy_lib.o)
 .reginfo       0x00000000       0x18 f:/program files/microchip/xc32/v1.33/bin/bin/../../lib/gcc/pic32mx/4.5.2/../../../../pic32mx/lib/size\libmchp_peripheral_32MX534F064H.a(spi_chn_is_busy_lib.o)
 .text.SpiChnIsSrEmpty
                0x00000000       0x20 f:/program files/microchip/xc32/v1.33/bin/bin/../../lib/gcc/pic32mx/4.5.2/../../../../pic32mx/lib/size\libmchp_peripheral_32MX534F064H.a(spi_chn_is_busy_lib.o)
 .text          0x00000000        0x0 f:/program files/microchip/xc32/v1.33/bin/bin/../../lib/gcc/pic32mx/4.5.2/../../../../pic32mx/lib/size\libmchp_peripheral_32MX534F064H.a(spi_io_tbl_libp.o)
 .data          0x00000000        0x0 f:/program files/microchip/xc32/v1.33/bin/bin/../../lib/gcc/pic32mx/4.5.2/../../../../pic32mx/lib/size\libmchp_peripheral_32MX534F064H.a(spi_io_tbl_libp.o)
 .bss           0x00000000        0x0 f:/program files/microchip/xc32/v1.33/bin/bin/../../lib/gcc/pic32mx/4.5.2/../../../../pic32mx/lib/size\libmchp_peripheral_32MX534F064H.a(spi_io_tbl_libp.o)
 .reginfo       0x00000000       0x18 f:/program files/microchip/xc32/v1.33/bin/bin/../../lib/gcc/pic32mx/4.5.2/../../../../pic32mx/lib/size\libmchp_peripheral_32MX534F064H.a(spi_io_tbl_libp.o)
 .text          0x00000000        0x0 f:/program files/microchip/xc32/v1.33/bin/bin/../../lib/gcc/pic32mx/4.5.2/../../../../pic32mx/lib/size\libmchp_peripheral_32MX534F064H.a(spi_map_tbl_libp.o)
 .data          0x00000000        0x0 f:/program files/microchip/xc32/v1.33/bin/bin/../../lib/gcc/pic32mx/4.5.2/../../../../pic32mx/lib/size\libmchp_peripheral_32MX534F064H.a(spi_map_tbl_libp.o)
 .bss           0x00000000        0x0 f:/program files/microchip/xc32/v1.33/bin/bin/../../lib/gcc/pic32mx/4.5.2/../../../../pic32mx/lib/size\libmchp_peripheral_32MX534F064H.a(spi_map_tbl_libp.o)
 .reginfo       0x00000000       0x18 f:/program files/microchip/xc32/v1.33/bin/bin/../../lib/gcc/pic32mx/4.5.2/../../../../pic32mx/lib/size\libmchp_peripheral_32MX534F064H.a(spi_map_tbl_libp.o)
 .text          0x00000000        0x0 f:/program files/microchip/xc32/v1.33/bin/bin/../../lib/gcc/pic32mx/4.5.2/../../../../pic32mx/lib/size\libmchp_peripheral_32MX534F064H.a(dma_chn_abort_txfer_lib.o)
 .data          0x00000000        0x0 f:/program files/microchip/xc32/v1.33/bin/bin/../../lib/gcc/pic32mx/4.5.2/../../../../pic32mx/lib/size\libmchp_peripheral_32MX534F064H.a(dma_chn_abort_txfer_lib.o)
 .bss           0x00000000        0x0 f:/program files/microchip/xc32/v1.33/bin/bin/../../lib/gcc/pic32mx/4.5.2/../../../../pic32mx/lib/size\libmchp_peripheral_32MX534F064H.a(dma_chn_abort_txfer_lib.o)
 .reginfo       0x00000000       0x18 f:/program files/microchip/xc32/v1.33/bin/bin/../../lib/gcc/pic32mx/4.5.2/../../../../pic32mx/lib/size\libmchp_peripheral_32MX534F064H.a(dma_chn_abort_txfer_lib.o)
 .text          0x00000000        0x0 f:/program files/microchip/xc32/v1.33/bin/bin/../../lib/gcc/pic32mx/4.5.2/../../../../pic32mx/lib/size\libmchp_peripheral_32MX534F064H.a(dma_chn_open_lib.o)
 .data          0x00000000        0x0 f:/program files/microchip/xc32/v1.33/bin/bin/../../lib/gcc/pic32mx/4.5.2/../../../../pic32mx/lib/size\libmchp_peripheral_32MX534F064H.a(dma_chn_open_lib.o)
 .bss           0x00000000        0x0 f:/program files/microchip/xc32/v1.33/bin/bin/../../lib/gcc/pic32mx/4.5.2/../../../../pic32mx/lib/size\libmchp_peripheral_32MX534F064H.a(dma_chn_open_lib.o)
 .reginfo       0x00000000       0x18 f:/program files/microchip/xc32/v1.33/bin/bin/../../lib/gcc/pic32mx/4.5.2/../../../../pic32mx/lib/size\libmchp_peripheral_32MX534F064H.a(dma_chn_open_lib.o)
 .text          0x00000000        0x0 f:/program files/microchip/xc32/v1.33/bin/bin/../../lib/gcc/pic32mx/4.5.2/../../../../pic32mx/lib/size\libmchp_peripheral_32MX534F064H.a(dma_chn_disable_lib.o)
 .data          0x00000000        0x0 f:/program files/microchip/xc32/v1.33/bin/bin/../../lib/gcc/pic32mx/4.5.2/../../../../pic32mx/lib/size\libmchp_peripheral_32MX534F064H.a(dma_chn_disable_lib.o)
 .bss           0x00000000        0x0 f:/program files/microchip/xc32/v1.33/bin/bin/../../lib/gcc/pic32mx/4.5.2/../../../../pic32mx/lib/size\libmchp_peripheral_32MX534F064H.a(dma_chn_disable_lib.o)
 .reginfo       0x00000000       0x18 f:/program files/microchip/xc32/v1.33/bin/bin/../../lib/gcc/pic32mx/4.5.2/../../../../pic32mx/lib/size\libmchp_peripheral_32MX534F064H.a(dma_chn_disable_lib.o)
 .text          0x00000000        0x0 f:/program files/microchip/xc32/v1.33/bin/bin/../../lib/gcc/pic32mx/4.5.2/../../../../pic32mx/lib/size\libmchp_peripheral_32MX534F064H.a(dma_chn_enable_lib.o)
 .data          0x00000000        0x0 f:/program files/microchip/xc32/v1.33/bin/bin/../../lib/gcc/pic32mx/4.5.2/../../../../pic32mx/lib/size\libmchp_peripheral_32MX534F064H.a(dma_chn_enable_lib.o)
 .bss           0x00000000        0x0 f:/program files/microchip/xc32/v1.33/bin/bin/../../lib/gcc/pic32mx/4.5.2/../../../../pic32mx/lib/size\libmchp_peripheral_32MX534F064H.a(dma_chn_enable_lib.o)
 .reginfo       0x00000000       0x18 f:/program files/microchip/xc32/v1.33/bin/bin/../../lib/gcc/pic32mx/4.5.2/../../../../pic32mx/lib/size\libmchp_peripheral_32MX534F064H.a(dma_chn_enable_lib.o)
 .text          0x00000000        0x0 f:/program files/microchip/xc32/v1.33/bin/bin/../../lib/gcc/pic32mx/4.5.2/../../../../pic32mx/lib/size\libmchp_peripheral_32MX534F064H.a(dma_chn_get_dst_pnt_lib.o)
 .data          0x00000000        0x0 f:/program files/microchip/xc32/v1.33/bin/bin/../../lib/gcc/pic32mx/4.5.2/../../../../pic32mx/lib/size\libmchp_peripheral_32MX534F064H.a(dma_chn_get_dst_pnt_lib.o)
 .bss           0x00000000        0x0 f:/program files/microchip/xc32/v1.33/bin/bin/../../lib/gcc/pic32mx/4.5.2/../../../../pic32mx/lib/size\libmchp_peripheral_32MX534F064H.a(dma_chn_get_dst_pnt_lib.o)
 .reginfo       0x00000000       0x18 f:/program files/microchip/xc32/v1.33/bin/bin/../../lib/gcc/pic32mx/4.5.2/../../../../pic32mx/lib/size\libmchp_peripheral_32MX534F064H.a(dma_chn_get_dst_pnt_lib.o)
 .text          0x00000000        0x0 f:/program files/microchip/xc32/v1.33/bin/bin/../../lib/gcc/pic32mx/4.5.2/../../../../pic32mx/lib/size\libmchp_peripheral_32MX534F064H.a(dma_chn_write_event_control_flags_lib.o)
 .data          0x00000000        0x0 f:/program files/microchip/xc32/v1.33/bin/bin/../../lib/gcc/pic32mx/4.5.2/../../../../pic32mx/lib/size\libmchp_peripheral_32MX534F064H.a(dma_chn_write_event_control_flags_lib.o)
 .bss           0x00000000        0x0 f:/program files/microchip/xc32/v1.33/bin/bin/../../lib/gcc/pic32mx/4.5.2/../../../../pic32mx/lib/size\libmchp_peripheral_32MX534F064H.a(dma_chn_write_event_control_flags_lib.o)
 .reginfo       0x00000000       0x18 f:/program files/microchip/xc32/v1.33/bin/bin/../../lib/gcc/pic32mx/4.5.2/../../../../pic32mx/lib/size\libmchp_peripheral_32MX534F064H.a(dma_chn_write_event_control_flags_lib.o)
 .text          0x00000000        0x0 f:/program files/microchip/xc32/v1.33/bin/bin/../../lib/gcc/pic32mx/4.5.2/../../../../pic32mx/lib/size\libmchp_peripheral_32MX534F064H.a(dma_chn_set_txfer_lib.o)
 .data          0x00000000        0x0 f:/program files/microchip/xc32/v1.33/bin/bin/../../lib/gcc/pic32mx/4.5.2/../../../../pic32mx/lib/size\libmchp_peripheral_32MX534F064H.a(dma_chn_set_txfer_lib.o)
 .bss           0x00000000        0x0 f:/program files/microchip/xc32/v1.33/bin/bin/../../lib/gcc/pic32mx/4.5.2/../../../../pic32mx/lib/size\libmchp_peripheral_32MX534F064H.a(dma_chn_set_txfer_lib.o)
 .reginfo       0x00000000       0x18 f:/program files/microchip/xc32/v1.33/bin/bin/../../lib/gcc/pic32mx/4.5.2/../../../../pic32mx/lib/size\libmchp_peripheral_32MX534F064H.a(dma_chn_set_txfer_lib.o)
 .text          0x00000000        0x0 f:/program files/microchip/xc32/v1.33/bin/bin/../../lib/gcc/pic32mx/4.5.2/../../../../pic32mx/lib/size\libmchp_peripheral_32MX534F064H.a(dma_chn_write_ev_enable_flags_lib.o)
 .data          0x00000000        0x0 f:/program files/microchip/xc32/v1.33/bin/bin/../../lib/gcc/pic32mx/4.5.2/../../../../pic32mx/lib/size\libmchp_peripheral_32MX534F064H.a(dma_chn_write_ev_enable_flags_lib.o)
 .bss           0x00000000        0x0 f:/program files/microchip/xc32/v1.33/bin/bin/../../lib/gcc/pic32mx/4.5.2/../../../../pic32mx/lib/size\libmchp_peripheral_32MX534F064H.a(dma_chn_write_ev_enable_flags_lib.o)
 .reginfo       0x00000000       0x18 f:/program files/microchip/xc32/v1.33/bin/bin/../../lib/gcc/pic32mx/4.5.2/../../../../pic32mx/lib/size\libmchp_peripheral_32MX534F064H.a(dma_chn_write_ev_enable_flags_lib.o)
 .text          0x00000000        0x0 f:/program files/microchip/xc32/v1.33/bin/bin/../../lib/gcc/pic32mx/4.5.2/../../../../pic32mx/lib/size\libmchp_peripheral_32MX534F064H.a(dma_reg_map_tbl_lib.o)
 .data          0x00000000        0x0 f:/program files/microchip/xc32/v1.33/bin/bin/../../lib/gcc/pic32mx/4.5.2/../../../../pic32mx/lib/size\libmchp_peripheral_32MX534F064H.a(dma_reg_map_tbl_lib.o)
 .bss           0x00000000        0x0 f:/program files/microchip/xc32/v1.33/bin/bin/../../lib/gcc/pic32mx/4.5.2/../../../../pic32mx/lib/size\libmchp_peripheral_32MX534F064H.a(dma_reg_map_tbl_lib.o)
 .reginfo       0x00000000       0x18 f:/program files/microchip/xc32/v1.33/bin/bin/../../lib/gcc/pic32mx/4.5.2/../../../../pic32mx/lib/size\libmchp_peripheral_32MX534F064H.a(dma_reg_map_tbl_lib.o)
 .text          0x00000000        0x0 f:/program files/microchip/xc32/v1.33/bin/bin/../../lib/gcc/pic32mx/4.5.2/../../../../pic32mx/lib/size\libmchp_peripheral_32MX534F064H.a(port_reset_pins_lib.o)
 .data          0x00000000        0x0 f:/program files/microchip/xc32/v1.33/bin/bin/../../lib/gcc/pic32mx/4.5.2/../../../../pic32mx/lib/size\libmchp_peripheral_32MX534F064H.a(port_reset_pins_lib.o)
 .bss           0x00000000        0x0 f:/program files/microchip/xc32/v1.33/bin/bin/../../lib/gcc/pic32mx/4.5.2/../../../../pic32mx/lib/size\libmchp_peripheral_32MX534F064H.a(port_reset_pins_lib.o)
 .reginfo       0x00000000       0x18 f:/program files/microchip/xc32/v1.33/bin/bin/../../lib/gcc/pic32mx/4.5.2/../../../../pic32mx/lib/size\libmchp_peripheral_32MX534F064H.a(port_reset_pins_lib.o)
 .text          0x00000000        0x0 f:/program files/microchip/xc32/v1.33/bin/bin/../../lib/gcc/pic32mx/4.5.2/../../../../pic32mx/lib/size\libmchp_peripheral_32MX534F064H.a(port_set_pins_digital_in_lib.o)
 .data          0x00000000        0x0 f:/program files/microchip/xc32/v1.33/bin/bin/../../lib/gcc/pic32mx/4.5.2/../../../../pic32mx/lib/size\libmchp_peripheral_32MX534F064H.a(port_set_pins_digital_in_lib.o)
 .bss           0x00000000        0x0 f:/program files/microchip/xc32/v1.33/bin/bin/../../lib/gcc/pic32mx/4.5.2/../../../../pic32mx/lib/size\libmchp_peripheral_32MX534F064H.a(port_set_pins_digital_in_lib.o)
 .reginfo       0x00000000       0x18 f:/program files/microchip/xc32/v1.33/bin/bin/../../lib/gcc/pic32mx/4.5.2/../../../../pic32mx/lib/size\libmchp_peripheral_32MX534F064H.a(port_set_pins_digital_in_lib.o)
 .text          0x00000000        0x0 f:/program files/microchip/xc32/v1.33/bin/bin/../../lib/gcc/pic32mx/4.5.2/../../../../pic32mx/lib/size\libmchp_peripheral_32MX534F064H.a(port_set_pins_digital_out_lib.o)
 .data          0x00000000        0x0 f:/program files/microchip/xc32/v1.33/bin/bin/../../lib/gcc/pic32mx/4.5.2/../../../../pic32mx/lib/size\libmchp_peripheral_32MX534F064H.a(port_set_pins_digital_out_lib.o)
 .bss           0x00000000        0x0 f:/program files/microchip/xc32/v1.33/bin/bin/../../lib/gcc/pic32mx/4.5.2/../../../../pic32mx/lib/size\libmchp_peripheral_32MX534F064H.a(port_set_pins_digital_out_lib.o)
 .reginfo       0x00000000       0x18 f:/program files/microchip/xc32/v1.33/bin/bin/../../lib/gcc/pic32mx/4.5.2/../../../../pic32mx/lib/size\libmchp_peripheral_32MX534F064H.a(port_set_pins_digital_out_lib.o)
 .text          0x00000000        0x0 f:/program files/microchip/xc32/v1.33/bin/bin/../../lib/gcc/pic32mx/4.5.2/../../../../pic32mx/lib/size\libmchp_peripheral_32MX534F064H.a(_ports_tbl_libp.o)
 .data          0x00000000        0x0 f:/program files/microchip/xc32/v1.33/bin/bin/../../lib/gcc/pic32mx/4.5.2/../../../../pic32mx/lib/size\libmchp_peripheral_32MX534F064H.a(_ports_tbl_libp.o)
 .bss           0x00000000        0x0 f:/program files/microchip/xc32/v1.33/bin/bin/../../lib/gcc/pic32mx/4.5.2/../../../../pic32mx/lib/size\libmchp_peripheral_32MX534F064H.a(_ports_tbl_libp.o)
 .reginfo       0x00000000       0x18 f:/program files/microchip/xc32/v1.33/bin/bin/../../lib/gcc/pic32mx/4.5.2/../../../../pic32mx/lib/size\libmchp_peripheral_32MX534F064H.a(_ports_tbl_libp.o)
 .text          0x00000000        0x0 f:/program files/microchip/xc32/v1.33/bin/bin/../../lib/gcc/pic32mx/4.5.2/../../../../pic32mx/lib/size\libmchp_peripheral_32MX534F064H.a(I2CAcknowledgeByte.o)
 .data          0x00000000        0x0 f:/program files/microchip/xc32/v1.33/bin/bin/../../lib/gcc/pic32mx/4.5.2/../../../../pic32mx/lib/size\libmchp_peripheral_32MX534F064H.a(I2CAcknowledgeByte.o)
 .bss           0x00000000        0x0 f:/program files/microchip/xc32/v1.33/bin/bin/../../lib/gcc/pic32mx/4.5.2/../../../../pic32mx/lib/size\libmchp_peripheral_32MX534F064H.a(I2CAcknowledgeByte.o)
 .reginfo       0x00000000       0x18 f:/program files/microchip/xc32/v1.33/bin/bin/../../lib/gcc/pic32mx/4.5.2/../../../../pic32mx/lib/size\libmchp_peripheral_32MX534F064H.a(I2CAcknowledgeByte.o)
 .text          0x00000000        0x0 f:/program files/microchip/xc32/v1.33/bin/bin/../../lib/gcc/pic32mx/4.5.2/../../../../pic32mx/lib/size\libmchp_peripheral_32MX534F064H.a(I2CByteWasAcknowledged.o)
 .data          0x00000000        0x0 f:/program files/microchip/xc32/v1.33/bin/bin/../../lib/gcc/pic32mx/4.5.2/../../../../pic32mx/lib/size\libmchp_peripheral_32MX534F064H.a(I2CByteWasAcknowledged.o)
 .bss           0x00000000        0x0 f:/program files/microchip/xc32/v1.33/bin/bin/../../lib/gcc/pic32mx/4.5.2/../../../../pic32mx/lib/size\libmchp_peripheral_32MX534F064H.a(I2CByteWasAcknowledged.o)
 .reginfo       0x00000000       0x18 f:/program files/microchip/xc32/v1.33/bin/bin/../../lib/gcc/pic32mx/4.5.2/../../../../pic32mx/lib/size\libmchp_peripheral_32MX534F064H.a(I2CByteWasAcknowledged.o)
 .text          0x00000000        0x0 f:/program files/microchip/xc32/v1.33/bin/bin/../../lib/gcc/pic32mx/4.5.2/../../../../pic32mx/lib/size\libmchp_peripheral_32MX534F064H.a(I2CEnable.o)
 .data          0x00000000        0x0 f:/program files/microchip/xc32/v1.33/bin/bin/../../lib/gcc/pic32mx/4.5.2/../../../../pic32mx/lib/size\libmchp_peripheral_32MX534F064H.a(I2CEnable.o)
 .bss           0x00000000        0x0 f:/program files/microchip/xc32/v1.33/bin/bin/../../lib/gcc/pic32mx/4.5.2/../../../../pic32mx/lib/size\libmchp_peripheral_32MX534F064H.a(I2CEnable.o)
 .reginfo       0x00000000       0x18 f:/program files/microchip/xc32/v1.33/bin/bin/../../lib/gcc/pic32mx/4.5.2/../../../../pic32mx/lib/size\libmchp_peripheral_32MX534F064H.a(I2CEnable.o)
 .text          0x00000000        0x0 f:/program files/microchip/xc32/v1.33/bin/bin/../../lib/gcc/pic32mx/4.5.2/../../../../pic32mx/lib/size\libmchp_peripheral_32MX534F064H.a(I2CGetByte.o)
 .data          0x00000000        0x0 f:/program files/microchip/xc32/v1.33/bin/bin/../../lib/gcc/pic32mx/4.5.2/../../../../pic32mx/lib/size\libmchp_peripheral_32MX534F064H.a(I2CGetByte.o)
 .bss           0x00000000        0x0 f:/program files/microchip/xc32/v1.33/bin/bin/../../lib/gcc/pic32mx/4.5.2/../../../../pic32mx/lib/size\libmchp_peripheral_32MX534F064H.a(I2CGetByte.o)
 .reginfo       0x00000000       0x18 f:/program files/microchip/xc32/v1.33/bin/bin/../../lib/gcc/pic32mx/4.5.2/../../../../pic32mx/lib/size\libmchp_peripheral_32MX534F064H.a(I2CGetByte.o)
 .text          0x00000000        0x0 f:/program files/microchip/xc32/v1.33/bin/bin/../../lib/gcc/pic32mx/4.5.2/../../../../pic32mx/lib/size\libmchp_peripheral_32MX534F064H.a(I2CReceiverEnable.o)
 .data          0x00000000        0x0 f:/program files/microchip/xc32/v1.33/bin/bin/../../lib/gcc/pic32mx/4.5.2/../../../../pic32mx/lib/size\libmchp_peripheral_32MX534F064H.a(I2CReceiverEnable.o)
 .bss           0x00000000        0x0 f:/program files/microchip/xc32/v1.33/bin/bin/../../lib/gcc/pic32mx/4.5.2/../../../../pic32mx/lib/size\libmchp_peripheral_32MX534F064H.a(I2CReceiverEnable.o)
 .reginfo       0x00000000       0x18 f:/program files/microchip/xc32/v1.33/bin/bin/../../lib/gcc/pic32mx/4.5.2/../../../../pic32mx/lib/size\libmchp_peripheral_32MX534F064H.a(I2CReceiverEnable.o)
 .text          0x00000000        0x0 f:/program files/microchip/xc32/v1.33/bin/bin/../../lib/gcc/pic32mx/4.5.2/../../../../pic32mx/lib/size\libmchp_peripheral_32MX534F064H.a(I2CSendByte.o)
 .data          0x00000000        0x0 f:/program files/microchip/xc32/v1.33/bin/bin/../../lib/gcc/pic32mx/4.5.2/../../../../pic32mx/lib/size\libmchp_peripheral_32MX534F064H.a(I2CSendByte.o)
 .bss           0x00000000        0x0 f:/program files/microchip/xc32/v1.33/bin/bin/../../lib/gcc/pic32mx/4.5.2/../../../../pic32mx/lib/size\libmchp_peripheral_32MX534F064H.a(I2CSendByte.o)
 .reginfo       0x00000000       0x18 f:/program files/microchip/xc32/v1.33/bin/bin/../../lib/gcc/pic32mx/4.5.2/../../../../pic32mx/lib/size\libmchp_peripheral_32MX534F064H.a(I2CSendByte.o)
 .text          0x00000000        0x0 f:/program files/microchip/xc32/v1.33/bin/bin/../../lib/gcc/pic32mx/4.5.2/../../../../pic32mx/lib/size\libmchp_peripheral_32MX534F064H.a(I2CSetFrequency.o)
 .data          0x00000000        0x0 f:/program files/microchip/xc32/v1.33/bin/bin/../../lib/gcc/pic32mx/4.5.2/../../../../pic32mx/lib/size\libmchp_peripheral_32MX534F064H.a(I2CSetFrequency.o)
 .bss           0x00000000        0x0 f:/program files/microchip/xc32/v1.33/bin/bin/../../lib/gcc/pic32mx/4.5.2/../../../../pic32mx/lib/size\libmchp_peripheral_32MX534F064H.a(I2CSetFrequency.o)
 .reginfo       0x00000000       0x18 f:/program files/microchip/xc32/v1.33/bin/bin/../../lib/gcc/pic32mx/4.5.2/../../../../pic32mx/lib/size\libmchp_peripheral_32MX534F064H.a(I2CSetFrequency.o)
 .text          0x00000000        0x0 f:/program files/microchip/xc32/v1.33/bin/bin/../../lib/gcc/pic32mx/4.5.2/../../../../pic32mx/lib/size\libmchp_peripheral_32MX534F064H.a(I2CStart.o)
 .data          0x00000000        0x0 f:/program files/microchip/xc32/v1.33/bin/bin/../../lib/gcc/pic32mx/4.5.2/../../../../pic32mx/lib/size\libmchp_peripheral_32MX534F064H.a(I2CStart.o)
 .bss           0x00000000        0x0 f:/program files/microchip/xc32/v1.33/bin/bin/../../lib/gcc/pic32mx/4.5.2/../../../../pic32mx/lib/size\libmchp_peripheral_32MX534F064H.a(I2CStart.o)
 .reginfo       0x00000000       0x18 f:/program files/microchip/xc32/v1.33/bin/bin/../../lib/gcc/pic32mx/4.5.2/../../../../pic32mx/lib/size\libmchp_peripheral_32MX534F064H.a(I2CStart.o)
 .text          0x00000000        0x0 f:/program files/microchip/xc32/v1.33/bin/bin/../../lib/gcc/pic32mx/4.5.2/../../../../pic32mx/lib/size\libmchp_peripheral_32MX534F064H.a(I2CStop.o)
 .data          0x00000000        0x0 f:/program files/microchip/xc32/v1.33/bin/bin/../../lib/gcc/pic32mx/4.5.2/../../../../pic32mx/lib/size\libmchp_peripheral_32MX534F064H.a(I2CStop.o)
 .bss           0x00000000        0x0 f:/program files/microchip/xc32/v1.33/bin/bin/../../lib/gcc/pic32mx/4.5.2/../../../../pic32mx/lib/size\libmchp_peripheral_32MX534F064H.a(I2CStop.o)
 .reginfo       0x00000000       0x18 f:/program files/microchip/xc32/v1.33/bin/bin/../../lib/gcc/pic32mx/4.5.2/../../../../pic32mx/lib/size\libmchp_peripheral_32MX534F064H.a(I2CStop.o)
 .text          0x00000000        0x0 f:/program files/microchip/xc32/v1.33/bin/bin/../../lib/gcc/pic32mx/4.5.2/../../../../pic32mx/lib/size\libmchp_peripheral_32MX534F064H.a(I2CPrivate.o)
 .data          0x00000000        0x0 f:/program files/microchip/xc32/v1.33/bin/bin/../../lib/gcc/pic32mx/4.5.2/../../../../pic32mx/lib/size\libmchp_peripheral_32MX534F064H.a(I2CPrivate.o)
 .bss           0x00000000        0x0 f:/program files/microchip/xc32/v1.33/bin/bin/../../lib/gcc/pic32mx/4.5.2/../../../../pic32mx/lib/size\libmchp_peripheral_32MX534F064H.a(I2CPrivate.o)
 .reginfo       0x00000000       0x18 f:/program files/microchip/xc32/v1.33/bin/bin/../../lib/gcc/pic32mx/4.5.2/../../../../pic32mx/lib/size\libmchp_peripheral_32MX534F064H.a(I2CPrivate.o)
 .data          0x00000000        0x0 f:/program files/microchip/xc32/v1.33/bin/bin/../../lib/gcc/pic32mx/4.5.2/size\libgcc.a(_ashldi3.o)
 .bss           0x00000000        0x0 f:/program files/microchip/xc32/v1.33/bin/bin/../../lib/gcc/pic32mx/4.5.2/size\libgcc.a(_ashldi3.o)
 .reginfo       0x00000000       0x18 f:/program files/microchip/xc32/v1.33/bin/bin/../../lib/gcc/pic32mx/4.5.2/size\libgcc.a(_ashldi3.o)
 .data          0x00000000        0x0 f:/program files/microchip/xc32/v1.33/bin/bin/../../lib/gcc/pic32mx/4.5.2/../../../../pic32mx/lib/size\libpic32.a(memcpy.o)
 .bss           0x00000000        0x0 f:/program files/microchip/xc32/v1.33/bin/bin/../../lib/gcc/pic32mx/4.5.2/../../../../pic32mx/lib/size\libpic32.a(memcpy.o)
 .reginfo       0x00000000       0x18 f:/program files/microchip/xc32/v1.33/bin/bin/../../lib/gcc/pic32mx/4.5.2/../../../../pic32mx/lib/size\libpic32.a(memcpy.o)
 .data          0x00000000        0x0 f:/program files/microchip/xc32/v1.33/bin/bin/../../lib/gcc/pic32mx/4.5.2/../../../../pic32mx/lib/size\libpic32.a(memset.o)
 .bss           0x00000000        0x0 f:/program files/microchip/xc32/v1.33/bin/bin/../../lib/gcc/pic32mx/4.5.2/../../../../pic32mx/lib/size\libpic32.a(memset.o)
 .reginfo       0x00000000       0x18 f:/program files/microchip/xc32/v1.33/bin/bin/../../lib/gcc/pic32mx/4.5.2/../../../../pic32mx/lib/size\libpic32.a(memset.o)
 .text          0x00000000        0x0 f:/program files/microchip/xc32/v1.33/bin/bin/../../lib/gcc/pic32mx/4.5.2/../../../../pic32mx/lib/size\libpic32.a(default-bootstrap-exception-handler.o)
 .data          0x00000000        0x0 f:/program files/microchip/xc32/v1.33/bin/bin/../../lib/gcc/pic32mx/4.5.2/../../../../pic32mx/lib/size\libpic32.a(default-bootstrap-exception-handler.o)
 .bss           0x00000000        0x0 f:/program files/microchip/xc32/v1.33/bin/bin/../../lib/gcc/pic32mx/4.5.2/../../../../pic32mx/lib/size\libpic32.a(default-bootstrap-exception-handler.o)
 .reginfo       0x00000000       0x18 f:/program files/microchip/xc32/v1.33/bin/bin/../../lib/gcc/pic32mx/4.5.2/../../../../pic32mx/lib/size\libpic32.a(default-bootstrap-exception-handler.o)
 .text          0x00000000        0x0 f:/program files/microchip/xc32/v1.33/bin/bin/../../lib/gcc/pic32mx/4.5.2/../../../../pic32mx/lib/size\libpic32.a(default-on-reset.o)
 .data          0x00000000        0x0 f:/program files/microchip/xc32/v1.33/bin/bin/../../lib/gcc/pic32mx/4.5.2/../../../../pic32mx/lib/size\libpic32.a(default-on-reset.o)
 .bss           0x00000000        0x0 f:/program files/microchip/xc32/v1.33/bin/bin/../../lib/gcc/pic32mx/4.5.2/../../../../pic32mx/lib/size\libpic32.a(default-on-reset.o)
 .reginfo       0x00000000       0x18 f:/program files/microchip/xc32/v1.33/bin/bin/../../lib/gcc/pic32mx/4.5.2/../../../../pic32mx/lib/size\libpic32.a(default-on-reset.o)
 .text          0x00000000        0x0 f:/program files/microchip/xc32/v1.33/bin/bin/../../lib/gcc/pic32mx/4.5.2/../../../../pic32mx/lib/size\libpic32.a(default-on-bootstrap.o)
 .data          0x00000000        0x0 f:/program files/microchip/xc32/v1.33/bin/bin/../../lib/gcc/pic32mx/4.5.2/../../../../pic32mx/lib/size\libpic32.a(default-on-bootstrap.o)
 .bss           0x00000000        0x0 f:/program files/microchip/xc32/v1.33/bin/bin/../../lib/gcc/pic32mx/4.5.2/../../../../pic32mx/lib/size\libpic32.a(default-on-bootstrap.o)
 .reginfo       0x00000000       0x18 f:/program files/microchip/xc32/v1.33/bin/bin/../../lib/gcc/pic32mx/4.5.2/../../../../pic32mx/lib/size\libpic32.a(default-on-bootstrap.o)
 .data          0x00000000        0x0 f:/program files/microchip/xc32/v1.33/bin/bin/../../lib/gcc/pic32mx/4.5.2/../../../../pic32mx/lib/size\libpic32.a(default-nmi-handler.o)
 .bss           0x00000000        0x0 f:/program files/microchip/xc32/v1.33/bin/bin/../../lib/gcc/pic32mx/4.5.2/../../../../pic32mx/lib/size\libpic32.a(default-nmi-handler.o)
 .reginfo       0x00000000       0x18 f:/program files/microchip/xc32/v1.33/bin/bin/../../lib/gcc/pic32mx/4.5.2/../../../../pic32mx/lib/size\libpic32.a(default-nmi-handler.o)
 .text          0x00000000        0x0 f:/program files/microchip/xc32/v1.33/bin/bin/../../lib/gcc/pic32mx/4.5.2/../../../../pic32mx/lib/size\libpic32.a(general-exception.o)
 .data          0x00000000        0x0 f:/program files/microchip/xc32/v1.33/bin/bin/../../lib/gcc/pic32mx/4.5.2/../../../../pic32mx/lib/size\libpic32.a(general-exception.o)
 .bss           0x00000000        0x0 f:/program files/microchip/xc32/v1.33/bin/bin/../../lib/gcc/pic32mx/4.5.2/../../../../pic32mx/lib/size\libpic32.a(general-exception.o)
 .reginfo       0x00000000       0x18 f:/program files/microchip/xc32/v1.33/bin/bin/../../lib/gcc/pic32mx/4.5.2/../../../../pic32mx/lib/size\libpic32.a(general-exception.o)
 .text          0x00000000        0x0 f:/program files/microchip/xc32/v1.33/bin/bin/../../lib/gcc/pic32mx/4.5.2/../../../../pic32mx/lib/size\libpic32.a(vector0.o)
 .data          0x00000000        0x0 f:/program files/microchip/xc32/v1.33/bin/bin/../../lib/gcc/pic32mx/4.5.2/../../../../pic32mx/lib/size\libpic32.a(vector0.o)
 .bss           0x00000000        0x0 f:/program files/microchip/xc32/v1.33/bin/bin/../../lib/gcc/pic32mx/4.5.2/../../../../pic32mx/lib/size\libpic32.a(vector0.o)
 .reginfo       0x00000000       0x18 f:/program files/microchip/xc32/v1.33/bin/bin/../../lib/gcc/pic32mx/4.5.2/../../../../pic32mx/lib/size\libpic32.a(vector0.o)
 .text          0x00000000        0x0 f:/program files/microchip/xc32/v1.33/bin/bin/../../lib/gcc/pic32mx/4.5.2/../../../../pic32mx/lib/size\libpic32.a(vector1.o)
 .data          0x00000000        0x0 f:/program files/microchip/xc32/v1.33/bin/bin/../../lib/gcc/pic32mx/4.5.2/../../../../pic32mx/lib/size\libpic32.a(vector1.o)
 .bss           0x00000000        0x0 f:/program files/microchip/xc32/v1.33/bin/bin/../../lib/gcc/pic32mx/4.5.2/../../../../pic32mx/lib/size\libpic32.a(vector1.o)
 .reginfo       0x00000000       0x18 f:/program files/microchip/xc32/v1.33/bin/bin/../../lib/gcc/pic32mx/4.5.2/../../../../pic32mx/lib/size\libpic32.a(vector1.o)
 .text          0x00000000        0x0 f:/program files/microchip/xc32/v1.33/bin/bin/../../lib/gcc/pic32mx/4.5.2/../../../../pic32mx/lib/size\libpic32.a(vector2.o)
 .data          0x00000000        0x0 f:/program files/microchip/xc32/v1.33/bin/bin/../../lib/gcc/pic32mx/4.5.2/../../../../pic32mx/lib/size\libpic32.a(vector2.o)
 .bss           0x00000000        0x0 f:/program files/microchip/xc32/v1.33/bin/bin/../../lib/gcc/pic32mx/4.5.2/../../../../pic32mx/lib/size\libpic32.a(vector2.o)
 .reginfo       0x00000000       0x18 f:/program files/microchip/xc32/v1.33/bin/bin/../../lib/gcc/pic32mx/4.5.2/../../../../pic32mx/lib/size\libpic32.a(vector2.o)
 .text          0x00000000        0x0 f:/program files/microchip/xc32/v1.33/bin/bin/../../lib/gcc/pic32mx/4.5.2/../../../../pic32mx/lib/size\libpic32.a(vector3.o)
 .data          0x00000000        0x0 f:/program files/microchip/xc32/v1.33/bin/bin/../../lib/gcc/pic32mx/4.5.2/../../../../pic32mx/lib/size\libpic32.a(vector3.o)
 .bss           0x00000000        0x0 f:/program files/microchip/xc32/v1.33/bin/bin/../../lib/gcc/pic32mx/4.5.2/../../../../pic32mx/lib/size\libpic32.a(vector3.o)
 .reginfo       0x00000000       0x18 f:/program files/microchip/xc32/v1.33/bin/bin/../../lib/gcc/pic32mx/4.5.2/../../../../pic32mx/lib/size\libpic32.a(vector3.o)
 .text          0x00000000        0x0 f:/program files/microchip/xc32/v1.33/bin/bin/../../lib/gcc/pic32mx/4.5.2/../../../../pic32mx/lib/size\libpic32.a(vector5.o)
 .data          0x00000000        0x0 f:/program files/microchip/xc32/v1.33/bin/bin/../../lib/gcc/pic32mx/4.5.2/../../../../pic32mx/lib/size\libpic32.a(vector5.o)
 .bss           0x00000000        0x0 f:/program files/microchip/xc32/v1.33/bin/bin/../../lib/gcc/pic32mx/4.5.2/../../../../pic32mx/lib/size\libpic32.a(vector5.o)
 .reginfo       0x00000000       0x18 f:/program files/microchip/xc32/v1.33/bin/bin/../../lib/gcc/pic32mx/4.5.2/../../../../pic32mx/lib/size\libpic32.a(vector5.o)
 .text          0x00000000        0x0 f:/program files/microchip/xc32/v1.33/bin/bin/../../lib/gcc/pic32mx/4.5.2/../../../../pic32mx/lib/size\libpic32.a(vector6.o)
 .data          0x00000000        0x0 f:/program files/microchip/xc32/v1.33/bin/bin/../../lib/gcc/pic32mx/4.5.2/../../../../pic32mx/lib/size\libpic32.a(vector6.o)
 .bss           0x00000000        0x0 f:/program files/microchip/xc32/v1.33/bin/bin/../../lib/gcc/pic32mx/4.5.2/../../../../pic32mx/lib/size\libpic32.a(vector6.o)
 .reginfo       0x00000000       0x18 f:/program files/microchip/xc32/v1.33/bin/bin/../../lib/gcc/pic32mx/4.5.2/../../../../pic32mx/lib/size\libpic32.a(vector6.o)
 .text          0x00000000        0x0 f:/program files/microchip/xc32/v1.33/bin/bin/../../lib/gcc/pic32mx/4.5.2/../../../../pic32mx/lib/size\libpic32.a(vector7.o)
 .data          0x00000000        0x0 f:/program files/microchip/xc32/v1.33/bin/bin/../../lib/gcc/pic32mx/4.5.2/../../../../pic32mx/lib/size\libpic32.a(vector7.o)
 .bss           0x00000000        0x0 f:/program files/microchip/xc32/v1.33/bin/bin/../../lib/gcc/pic32mx/4.5.2/../../../../pic32mx/lib/size\libpic32.a(vector7.o)
 .reginfo       0x00000000       0x18 f:/program files/microchip/xc32/v1.33/bin/bin/../../lib/gcc/pic32mx/4.5.2/../../../../pic32mx/lib/size\libpic32.a(vector7.o)
 .text          0x00000000        0x0 f:/program files/microchip/xc32/v1.33/bin/bin/../../lib/gcc/pic32mx/4.5.2/../../../../pic32mx/lib/size\libpic32.a(vector9.o)
 .data          0x00000000        0x0 f:/program files/microchip/xc32/v1.33/bin/bin/../../lib/gcc/pic32mx/4.5.2/../../../../pic32mx/lib/size\libpic32.a(vector9.o)
 .bss           0x00000000        0x0 f:/program files/microchip/xc32/v1.33/bin/bin/../../lib/gcc/pic32mx/4.5.2/../../../../pic32mx/lib/size\libpic32.a(vector9.o)
 .reginfo       0x00000000       0x18 f:/program files/microchip/xc32/v1.33/bin/bin/../../lib/gcc/pic32mx/4.5.2/../../../../pic32mx/lib/size\libpic32.a(vector9.o)
 .text          0x00000000        0x0 f:/program files/microchip/xc32/v1.33/bin/bin/../../lib/gcc/pic32mx/4.5.2/../../../../pic32mx/lib/size\libpic32.a(vector11.o)
 .data          0x00000000        0x0 f:/program files/microchip/xc32/v1.33/bin/bin/../../lib/gcc/pic32mx/4.5.2/../../../../pic32mx/lib/size\libpic32.a(vector11.o)
 .bss           0x00000000        0x0 f:/program files/microchip/xc32/v1.33/bin/bin/../../lib/gcc/pic32mx/4.5.2/../../../../pic32mx/lib/size\libpic32.a(vector11.o)
 .reginfo       0x00000000       0x18 f:/program files/microchip/xc32/v1.33/bin/bin/../../lib/gcc/pic32mx/4.5.2/../../../../pic32mx/lib/size\libpic32.a(vector11.o)
 .text          0x00000000        0x0 f:/program files/microchip/xc32/v1.33/bin/bin/../../lib/gcc/pic32mx/4.5.2/../../../../pic32mx/lib/size\libpic32.a(vector12.o)
 .data          0x00000000        0x0 f:/program files/microchip/xc32/v1.33/bin/bin/../../lib/gcc/pic32mx/4.5.2/../../../../pic32mx/lib/size\libpic32.a(vector12.o)
 .bss           0x00000000        0x0 f:/program files/microchip/xc32/v1.33/bin/bin/../../lib/gcc/pic32mx/4.5.2/../../../../pic32mx/lib/size\libpic32.a(vector12.o)
 .reginfo       0x00000000       0x18 f:/program files/microchip/xc32/v1.33/bin/bin/../../lib/gcc/pic32mx/4.5.2/../../../../pic32mx/lib/size\libpic32.a(vector12.o)
 .text          0x00000000        0x0 f:/program files/microchip/xc32/v1.33/bin/bin/../../lib/gcc/pic32mx/4.5.2/../../../../pic32mx/lib/size\libpic32.a(vector13.o)
 .data          0x00000000        0x0 f:/program files/microchip/xc32/v1.33/bin/bin/../../lib/gcc/pic32mx/4.5.2/../../../../pic32mx/lib/size\libpic32.a(vector13.o)
 .bss           0x00000000        0x0 f:/program files/microchip/xc32/v1.33/bin/bin/../../lib/gcc/pic32mx/4.5.2/../../../../pic32mx/lib/size\libpic32.a(vector13.o)
 .reginfo       0x00000000       0x18 f:/program files/microchip/xc32/v1.33/bin/bin/../../lib/gcc/pic32mx/4.5.2/../../../../pic32mx/lib/size\libpic32.a(vector13.o)
 .text          0x00000000        0x0 f:/program files/microchip/xc32/v1.33/bin/bin/../../lib/gcc/pic32mx/4.5.2/../../../../pic32mx/lib/size\libpic32.a(vector14.o)
 .data          0x00000000        0x0 f:/program files/microchip/xc32/v1.33/bin/bin/../../lib/gcc/pic32mx/4.5.2/../../../../pic32mx/lib/size\libpic32.a(vector14.o)
 .bss           0x00000000        0x0 f:/program files/microchip/xc32/v1.33/bin/bin/../../lib/gcc/pic32mx/4.5.2/../../../../pic32mx/lib/size\libpic32.a(vector14.o)
 .reginfo       0x00000000       0x18 f:/program files/microchip/xc32/v1.33/bin/bin/../../lib/gcc/pic32mx/4.5.2/../../../../pic32mx/lib/size\libpic32.a(vector14.o)
 .text          0x00000000        0x0 f:/program files/microchip/xc32/v1.33/bin/bin/../../lib/gcc/pic32mx/4.5.2/../../../../pic32mx/lib/size\libpic32.a(vector15.o)
 .data          0x00000000        0x0 f:/program files/microchip/xc32/v1.33/bin/bin/../../lib/gcc/pic32mx/4.5.2/../../../../pic32mx/lib/size\libpic32.a(vector15.o)
 .bss           0x00000000        0x0 f:/program files/microchip/xc32/v1.33/bin/bin/../../lib/gcc/pic32mx/4.5.2/../../../../pic32mx/lib/size\libpic32.a(vector15.o)
 .reginfo       0x00000000       0x18 f:/program files/microchip/xc32/v1.33/bin/bin/../../lib/gcc/pic32mx/4.5.2/../../../../pic32mx/lib/size\libpic32.a(vector15.o)
 .text          0x00000000        0x0 f:/program files/microchip/xc32/v1.33/bin/bin/../../lib/gcc/pic32mx/4.5.2/../../../../pic32mx/lib/size\libpic32.a(vector16.o)
 .data          0x00000000        0x0 f:/program files/microchip/xc32/v1.33/bin/bin/../../lib/gcc/pic32mx/4.5.2/../../../../pic32mx/lib/size\libpic32.a(vector16.o)
 .bss           0x00000000        0x0 f:/program files/microchip/xc32/v1.33/bin/bin/../../lib/gcc/pic32mx/4.5.2/../../../../pic32mx/lib/size\libpic32.a(vector16.o)
 .reginfo       0x00000000       0x18 f:/program files/microchip/xc32/v1.33/bin/bin/../../lib/gcc/pic32mx/4.5.2/../../../../pic32mx/lib/size\libpic32.a(vector16.o)
 .text          0x00000000        0x0 f:/program files/microchip/xc32/v1.33/bin/bin/../../lib/gcc/pic32mx/4.5.2/../../../../pic32mx/lib/size\libpic32.a(vector17.o)
 .data          0x00000000        0x0 f:/program files/microchip/xc32/v1.33/bin/bin/../../lib/gcc/pic32mx/4.5.2/../../../../pic32mx/lib/size\libpic32.a(vector17.o)
 .bss           0x00000000        0x0 f:/program files/microchip/xc32/v1.33/bin/bin/../../lib/gcc/pic32mx/4.5.2/../../../../pic32mx/lib/size\libpic32.a(vector17.o)
 .reginfo       0x00000000       0x18 f:/program files/microchip/xc32/v1.33/bin/bin/../../lib/gcc/pic32mx/4.5.2/../../../../pic32mx/lib/size\libpic32.a(vector17.o)
 .text          0x00000000        0x0 f:/program files/microchip/xc32/v1.33/bin/bin/../../lib/gcc/pic32mx/4.5.2/../../../../pic32mx/lib/size\libpic32.a(vector18.o)
 .data          0x00000000        0x0 f:/program files/microchip/xc32/v1.33/bin/bin/../../lib/gcc/pic32mx/4.5.2/../../../../pic32mx/lib/size\libpic32.a(vector18.o)
 .bss           0x00000000        0x0 f:/program files/microchip/xc32/v1.33/bin/bin/../../lib/gcc/pic32mx/4.5.2/../../../../pic32mx/lib/size\libpic32.a(vector18.o)
 .reginfo       0x00000000       0x18 f:/program files/microchip/xc32/v1.33/bin/bin/../../lib/gcc/pic32mx/4.5.2/../../../../pic32mx/lib/size\libpic32.a(vector18.o)
 .text          0x00000000        0x0 f:/program files/microchip/xc32/v1.33/bin/bin/../../lib/gcc/pic32mx/4.5.2/../../../../pic32mx/lib/size\libpic32.a(vector19.o)
 .data          0x00000000        0x0 f:/program files/microchip/xc32/v1.33/bin/bin/../../lib/gcc/pic32mx/4.5.2/../../../../pic32mx/lib/size\libpic32.a(vector19.o)
 .bss           0x00000000        0x0 f:/program files/microchip/xc32/v1.33/bin/bin/../../lib/gcc/pic32mx/4.5.2/../../../../pic32mx/lib/size\libpic32.a(vector19.o)
 .reginfo       0x00000000       0x18 f:/program files/microchip/xc32/v1.33/bin/bin/../../lib/gcc/pic32mx/4.5.2/../../../../pic32mx/lib/size\libpic32.a(vector19.o)
 .text          0x00000000        0x0 f:/program files/microchip/xc32/v1.33/bin/bin/../../lib/gcc/pic32mx/4.5.2/../../../../pic32mx/lib/size\libpic32.a(vector20.o)
 .data          0x00000000        0x0 f:/program files/microchip/xc32/v1.33/bin/bin/../../lib/gcc/pic32mx/4.5.2/../../../../pic32mx/lib/size\libpic32.a(vector20.o)
 .bss           0x00000000        0x0 f:/program files/microchip/xc32/v1.33/bin/bin/../../lib/gcc/pic32mx/4.5.2/../../../../pic32mx/lib/size\libpic32.a(vector20.o)
 .reginfo       0x00000000       0x18 f:/program files/microchip/xc32/v1.33/bin/bin/../../lib/gcc/pic32mx/4.5.2/../../../../pic32mx/lib/size\libpic32.a(vector20.o)
 .text          0x00000000        0x0 f:/program files/microchip/xc32/v1.33/bin/bin/../../lib/gcc/pic32mx/4.5.2/../../../../pic32mx/lib/size\libpic32.a(vector21.o)
 .data          0x00000000        0x0 f:/program files/microchip/xc32/v1.33/bin/bin/../../lib/gcc/pic32mx/4.5.2/../../../../pic32mx/lib/size\libpic32.a(vector21.o)
 .bss           0x00000000        0x0 f:/program files/microchip/xc32/v1.33/bin/bin/../../lib/gcc/pic32mx/4.5.2/../../../../pic32mx/lib/size\libpic32.a(vector21.o)
 .reginfo       0x00000000       0x18 f:/program files/microchip/xc32/v1.33/bin/bin/../../lib/gcc/pic32mx/4.5.2/../../../../pic32mx/lib/size\libpic32.a(vector21.o)
 .text          0x00000000        0x0 f:/program files/microchip/xc32/v1.33/bin/bin/../../lib/gcc/pic32mx/4.5.2/../../../../pic32mx/lib/size\libpic32.a(vector22.o)
 .data          0x00000000        0x0 f:/program files/microchip/xc32/v1.33/bin/bin/../../lib/gcc/pic32mx/4.5.2/../../../../pic32mx/lib/size\libpic32.a(vector22.o)
 .bss           0x00000000        0x0 f:/program files/microchip/xc32/v1.33/bin/bin/../../lib/gcc/pic32mx/4.5.2/../../../../pic32mx/lib/size\libpic32.a(vector22.o)
 .reginfo       0x00000000       0x18 f:/program files/microchip/xc32/v1.33/bin/bin/../../lib/gcc/pic32mx/4.5.2/../../../../pic32mx/lib/size\libpic32.a(vector22.o)
 .text          0x00000000        0x0 f:/program files/microchip/xc32/v1.33/bin/bin/../../lib/gcc/pic32mx/4.5.2/../../../../pic32mx/lib/size\libpic32.a(vector23.o)
 .data          0x00000000        0x0 f:/program files/microchip/xc32/v1.33/bin/bin/../../lib/gcc/pic32mx/4.5.2/../../../../pic32mx/lib/size\libpic32.a(vector23.o)
 .bss           0x00000000        0x0 f:/program files/microchip/xc32/v1.33/bin/bin/../../lib/gcc/pic32mx/4.5.2/../../../../pic32mx/lib/size\libpic32.a(vector23.o)
 .reginfo       0x00000000       0x18 f:/program files/microchip/xc32/v1.33/bin/bin/../../lib/gcc/pic32mx/4.5.2/../../../../pic32mx/lib/size\libpic32.a(vector23.o)
 .text          0x00000000        0x0 f:/program files/microchip/xc32/v1.33/bin/bin/../../lib/gcc/pic32mx/4.5.2/../../../../pic32mx/lib/size\libpic32.a(vector24.o)
 .data          0x00000000        0x0 f:/program files/microchip/xc32/v1.33/bin/bin/../../lib/gcc/pic32mx/4.5.2/../../../../pic32mx/lib/size\libpic32.a(vector24.o)
 .bss           0x00000000        0x0 f:/program files/microchip/xc32/v1.33/bin/bin/../../lib/gcc/pic32mx/4.5.2/../../../../pic32mx/lib/size\libpic32.a(vector24.o)
 .reginfo       0x00000000       0x18 f:/program files/microchip/xc32/v1.33/bin/bin/../../lib/gcc/pic32mx/4.5.2/../../../../pic32mx/lib/size\libpic32.a(vector24.o)
 .text          0x00000000        0x0 f:/program files/microchip/xc32/v1.33/bin/bin/../../lib/gcc/pic32mx/4.5.2/../../../../pic32mx/lib/size\libpic32.a(vector25.o)
 .data          0x00000000        0x0 f:/program files/microchip/xc32/v1.33/bin/bin/../../lib/gcc/pic32mx/4.5.2/../../../../pic32mx/lib/size\libpic32.a(vector25.o)
 .bss           0x00000000        0x0 f:/program files/microchip/xc32/v1.33/bin/bin/../../lib/gcc/pic32mx/4.5.2/../../../../pic32mx/lib/size\libpic32.a(vector25.o)
 .reginfo       0x00000000       0x18 f:/program files/microchip/xc32/v1.33/bin/bin/../../lib/gcc/pic32mx/4.5.2/../../../../pic32mx/lib/size\libpic32.a(vector25.o)
 .text          0x00000000        0x0 f:/program files/microchip/xc32/v1.33/bin/bin/../../lib/gcc/pic32mx/4.5.2/../../../../pic32mx/lib/size\libpic32.a(vector26.o)
 .data          0x00000000        0x0 f:/program files/microchip/xc32/v1.33/bin/bin/../../lib/gcc/pic32mx/4.5.2/../../../../pic32mx/lib/size\libpic32.a(vector26.o)
 .bss           0x00000000        0x0 f:/program files/microchip/xc32/v1.33/bin/bin/../../lib/gcc/pic32mx/4.5.2/../../../../pic32mx/lib/size\libpic32.a(vector26.o)
 .reginfo       0x00000000       0x18 f:/program files/microchip/xc32/v1.33/bin/bin/../../lib/gcc/pic32mx/4.5.2/../../../../pic32mx/lib/size\libpic32.a(vector26.o)
 .text          0x00000000        0x0 f:/program files/microchip/xc32/v1.33/bin/bin/../../lib/gcc/pic32mx/4.5.2/../../../../pic32mx/lib/size\libpic32.a(vector28.o)
 .data          0x00000000        0x0 f:/program files/microchip/xc32/v1.33/bin/bin/../../lib/gcc/pic32mx/4.5.2/../../../../pic32mx/lib/size\libpic32.a(vector28.o)
 .bss           0x00000000        0x0 f:/program files/microchip/xc32/v1.33/bin/bin/../../lib/gcc/pic32mx/4.5.2/../../../../pic32mx/lib/size\libpic32.a(vector28.o)
 .reginfo       0x00000000       0x18 f:/program files/microchip/xc32/v1.33/bin/bin/../../lib/gcc/pic32mx/4.5.2/../../../../pic32mx/lib/size\libpic32.a(vector28.o)
 .text          0x00000000        0x0 f:/program files/microchip/xc32/v1.33/bin/bin/../../lib/gcc/pic32mx/4.5.2/../../../../pic32mx/lib/size\libpic32.a(vector29.o)
 .data          0x00000000        0x0 f:/program files/microchip/xc32/v1.33/bin/bin/../../lib/gcc/pic32mx/4.5.2/../../../../pic32mx/lib/size\libpic32.a(vector29.o)
 .bss           0x00000000        0x0 f:/program files/microchip/xc32/v1.33/bin/bin/../../lib/gcc/pic32mx/4.5.2/../../../../pic32mx/lib/size\libpic32.a(vector29.o)
 .reginfo       0x00000000       0x18 f:/program files/microchip/xc32/v1.33/bin/bin/../../lib/gcc/pic32mx/4.5.2/../../../../pic32mx/lib/size\libpic32.a(vector29.o)
 .text          0x00000000        0x0 f:/program files/microchip/xc32/v1.33/bin/bin/../../lib/gcc/pic32mx/4.5.2/../../../../pic32mx/lib/size\libpic32.a(vector32.o)
 .data          0x00000000        0x0 f:/program files/microchip/xc32/v1.33/bin/bin/../../lib/gcc/pic32mx/4.5.2/../../../../pic32mx/lib/size\libpic32.a(vector32.o)
 .bss           0x00000000        0x0 f:/program files/microchip/xc32/v1.33/bin/bin/../../lib/gcc/pic32mx/4.5.2/../../../../pic32mx/lib/size\libpic32.a(vector32.o)
 .reginfo       0x00000000       0x18 f:/program files/microchip/xc32/v1.33/bin/bin/../../lib/gcc/pic32mx/4.5.2/../../../../pic32mx/lib/size\libpic32.a(vector32.o)
 .text          0x00000000        0x0 f:/program files/microchip/xc32/v1.33/bin/bin/../../lib/gcc/pic32mx/4.5.2/../../../../pic32mx/lib/size\libpic32.a(vector33.o)
 .data          0x00000000        0x0 f:/program files/microchip/xc32/v1.33/bin/bin/../../lib/gcc/pic32mx/4.5.2/../../../../pic32mx/lib/size\libpic32.a(vector33.o)
 .bss           0x00000000        0x0 f:/program files/microchip/xc32/v1.33/bin/bin/../../lib/gcc/pic32mx/4.5.2/../../../../pic32mx/lib/size\libpic32.a(vector33.o)
 .reginfo       0x00000000       0x18 f:/program files/microchip/xc32/v1.33/bin/bin/../../lib/gcc/pic32mx/4.5.2/../../../../pic32mx/lib/size\libpic32.a(vector33.o)
 .text          0x00000000        0x0 f:/program files/microchip/xc32/v1.33/bin/bin/../../lib/gcc/pic32mx/4.5.2/../../../../pic32mx/lib/size\libpic32.a(vector34.o)
 .data          0x00000000        0x0 f:/program files/microchip/xc32/v1.33/bin/bin/../../lib/gcc/pic32mx/4.5.2/../../../../pic32mx/lib/size\libpic32.a(vector34.o)
 .bss           0x00000000        0x0 f:/program files/microchip/xc32/v1.33/bin/bin/../../lib/gcc/pic32mx/4.5.2/../../../../pic32mx/lib/size\libpic32.a(vector34.o)
 .reginfo       0x00000000       0x18 f:/program files/microchip/xc32/v1.33/bin/bin/../../lib/gcc/pic32mx/4.5.2/../../../../pic32mx/lib/size\libpic32.a(vector34.o)
 .text          0x00000000        0x0 f:/program files/microchip/xc32/v1.33/bin/bin/../../lib/gcc/pic32mx/4.5.2/../../../../pic32mx/lib/size\libpic32.a(vector35.o)
 .data          0x00000000        0x0 f:/program files/microchip/xc32/v1.33/bin/bin/../../lib/gcc/pic32mx/4.5.2/../../../../pic32mx/lib/size\libpic32.a(vector35.o)
 .bss           0x00000000        0x0 f:/program files/microchip/xc32/v1.33/bin/bin/../../lib/gcc/pic32mx/4.5.2/../../../../pic32mx/lib/size\libpic32.a(vector35.o)
 .reginfo       0x00000000       0x18 f:/program files/microchip/xc32/v1.33/bin/bin/../../lib/gcc/pic32mx/4.5.2/../../../../pic32mx/lib/size\libpic32.a(vector35.o)
 .text          0x00000000        0x0 f:/program files/microchip/xc32/v1.33/bin/bin/../../lib/gcc/pic32mx/4.5.2/../../../../pic32mx/lib/size\libpic32.a(vector36.o)
 .data          0x00000000        0x0 f:/program files/microchip/xc32/v1.33/bin/bin/../../lib/gcc/pic32mx/4.5.2/../../../../pic32mx/lib/size\libpic32.a(vector36.o)
 .bss           0x00000000        0x0 f:/program files/microchip/xc32/v1.33/bin/bin/../../lib/gcc/pic32mx/4.5.2/../../../../pic32mx/lib/size\libpic32.a(vector36.o)
 .reginfo       0x00000000       0x18 f:/program files/microchip/xc32/v1.33/bin/bin/../../lib/gcc/pic32mx/4.5.2/../../../../pic32mx/lib/size\libpic32.a(vector36.o)
 .text          0x00000000        0x0 f:/program files/microchip/xc32/v1.33/bin/bin/../../lib/gcc/pic32mx/4.5.2/../../../../pic32mx/lib/size\libpic32.a(vector37.o)
 .data          0x00000000        0x0 f:/program files/microchip/xc32/v1.33/bin/bin/../../lib/gcc/pic32mx/4.5.2/../../../../pic32mx/lib/size\libpic32.a(vector37.o)
 .bss           0x00000000        0x0 f:/program files/microchip/xc32/v1.33/bin/bin/../../lib/gcc/pic32mx/4.5.2/../../../../pic32mx/lib/size\libpic32.a(vector37.o)
 .reginfo       0x00000000       0x18 f:/program files/microchip/xc32/v1.33/bin/bin/../../lib/gcc/pic32mx/4.5.2/../../../../pic32mx/lib/size\libpic32.a(vector37.o)
 .text          0x00000000        0x0 f:/program files/microchip/xc32/v1.33/bin/bin/../../lib/gcc/pic32mx/4.5.2/../../../../pic32mx/lib/size\libpic32.a(vector38.o)
 .data          0x00000000        0x0 f:/program files/microchip/xc32/v1.33/bin/bin/../../lib/gcc/pic32mx/4.5.2/../../../../pic32mx/lib/size\libpic32.a(vector38.o)
 .bss           0x00000000        0x0 f:/program files/microchip/xc32/v1.33/bin/bin/../../lib/gcc/pic32mx/4.5.2/../../../../pic32mx/lib/size\libpic32.a(vector38.o)
 .reginfo       0x00000000       0x18 f:/program files/microchip/xc32/v1.33/bin/bin/../../lib/gcc/pic32mx/4.5.2/../../../../pic32mx/lib/size\libpic32.a(vector38.o)
 .text          0x00000000        0x0 f:/program files/microchip/xc32/v1.33/bin/bin/../../lib/gcc/pic32mx/4.5.2/../../../../pic32mx/lib/size\libpic32.a(vector39.o)
 .data          0x00000000        0x0 f:/program files/microchip/xc32/v1.33/bin/bin/../../lib/gcc/pic32mx/4.5.2/../../../../pic32mx/lib/size\libpic32.a(vector39.o)
 .bss           0x00000000        0x0 f:/program files/microchip/xc32/v1.33/bin/bin/../../lib/gcc/pic32mx/4.5.2/../../../../pic32mx/lib/size\libpic32.a(vector39.o)
 .reginfo       0x00000000       0x18 f:/program files/microchip/xc32/v1.33/bin/bin/../../lib/gcc/pic32mx/4.5.2/../../../../pic32mx/lib/size\libpic32.a(vector39.o)
 .text          0x00000000        0x0 f:/program files/microchip/xc32/v1.33/bin/bin/../../lib/gcc/pic32mx/4.5.2/../../../../pic32mx/lib/size\libpic32.a(vector40.o)
 .data          0x00000000        0x0 f:/program files/microchip/xc32/v1.33/bin/bin/../../lib/gcc/pic32mx/4.5.2/../../../../pic32mx/lib/size\libpic32.a(vector40.o)
 .bss           0x00000000        0x0 f:/program files/microchip/xc32/v1.33/bin/bin/../../lib/gcc/pic32mx/4.5.2/../../../../pic32mx/lib/size\libpic32.a(vector40.o)
 .reginfo       0x00000000       0x18 f:/program files/microchip/xc32/v1.33/bin/bin/../../lib/gcc/pic32mx/4.5.2/../../../../pic32mx/lib/size\libpic32.a(vector40.o)
 .text          0x00000000        0x0 f:/program files/microchip/xc32/v1.33/bin/bin/../../lib/gcc/pic32mx/4.5.2/../../../../pic32mx/lib/size\libpic32.a(vector41.o)
 .data          0x00000000        0x0 f:/program files/microchip/xc32/v1.33/bin/bin/../../lib/gcc/pic32mx/4.5.2/../../../../pic32mx/lib/size\libpic32.a(vector41.o)
 .bss           0x00000000        0x0 f:/program files/microchip/xc32/v1.33/bin/bin/../../lib/gcc/pic32mx/4.5.2/../../../../pic32mx/lib/size\libpic32.a(vector41.o)
 .reginfo       0x00000000       0x18 f:/program files/microchip/xc32/v1.33/bin/bin/../../lib/gcc/pic32mx/4.5.2/../../../../pic32mx/lib/size\libpic32.a(vector41.o)
 .text          0x00000000        0x0 f:/program files/microchip/xc32/v1.33/bin/bin/../../lib/gcc/pic32mx/4.5.2/../../../../pic32mx/lib/size\libpic32.a(vector42.o)
 .data          0x00000000        0x0 f:/program files/microchip/xc32/v1.33/bin/bin/../../lib/gcc/pic32mx/4.5.2/../../../../pic32mx/lib/size\libpic32.a(vector42.o)
 .bss           0x00000000        0x0 f:/program files/microchip/xc32/v1.33/bin/bin/../../lib/gcc/pic32mx/4.5.2/../../../../pic32mx/lib/size\libpic32.a(vector42.o)
 .reginfo       0x00000000       0x18 f:/program files/microchip/xc32/v1.33/bin/bin/../../lib/gcc/pic32mx/4.5.2/../../../../pic32mx/lib/size\libpic32.a(vector42.o)
 .text          0x00000000        0x0 f:/program files/microchip/xc32/v1.33/bin/bin/../../lib/gcc/pic32mx/4.5.2/../../../../pic32mx/lib/size\libpic32.a(vector43.o)
 .data          0x00000000        0x0 f:/program files/microchip/xc32/v1.33/bin/bin/../../lib/gcc/pic32mx/4.5.2/../../../../pic32mx/lib/size\libpic32.a(vector43.o)
 .bss           0x00000000        0x0 f:/program files/microchip/xc32/v1.33/bin/bin/../../lib/gcc/pic32mx/4.5.2/../../../../pic32mx/lib/size\libpic32.a(vector43.o)
 .reginfo       0x00000000       0x18 f:/program files/microchip/xc32/v1.33/bin/bin/../../lib/gcc/pic32mx/4.5.2/../../../../pic32mx/lib/size\libpic32.a(vector43.o)
 .text          0x00000000        0x0 f:/program files/microchip/xc32/v1.33/bin/bin/../../lib/gcc/pic32mx/4.5.2/../../../../pic32mx/lib/size\libpic32.a(vector44.o)
 .data          0x00000000        0x0 f:/program files/microchip/xc32/v1.33/bin/bin/../../lib/gcc/pic32mx/4.5.2/../../../../pic32mx/lib/size\libpic32.a(vector44.o)
 .bss           0x00000000        0x0 f:/program files/microchip/xc32/v1.33/bin/bin/../../lib/gcc/pic32mx/4.5.2/../../../../pic32mx/lib/size\libpic32.a(vector44.o)
 .reginfo       0x00000000       0x18 f:/program files/microchip/xc32/v1.33/bin/bin/../../lib/gcc/pic32mx/4.5.2/../../../../pic32mx/lib/size\libpic32.a(vector44.o)
 .text          0x00000000        0x0 f:/program files/microchip/xc32/v1.33/bin/bin/../../lib/gcc/pic32mx/4.5.2/../../../../pic32mx/lib/size\libpic32.a(vector45.o)
 .data          0x00000000        0x0 f:/program files/microchip/xc32/v1.33/bin/bin/../../lib/gcc/pic32mx/4.5.2/../../../../pic32mx/lib/size\libpic32.a(vector45.o)
 .bss           0x00000000        0x0 f:/program files/microchip/xc32/v1.33/bin/bin/../../lib/gcc/pic32mx/4.5.2/../../../../pic32mx/lib/size\libpic32.a(vector45.o)
 .reginfo       0x00000000       0x18 f:/program files/microchip/xc32/v1.33/bin/bin/../../lib/gcc/pic32mx/4.5.2/../../../../pic32mx/lib/size\libpic32.a(vector45.o)
 .text          0x00000000        0x0 f:/program files/microchip/xc32/v1.33/bin/bin/../../lib/gcc/pic32mx/4.5.2/../../../../pic32mx/lib/size\libpic32.a(vector46.o)
 .data          0x00000000        0x0 f:/program files/microchip/xc32/v1.33/bin/bin/../../lib/gcc/pic32mx/4.5.2/../../../../pic32mx/lib/size\libpic32.a(vector46.o)
 .bss           0x00000000        0x0 f:/program files/microchip/xc32/v1.33/bin/bin/../../lib/gcc/pic32mx/4.5.2/../../../../pic32mx/lib/size\libpic32.a(vector46.o)
 .reginfo       0x00000000       0x18 f:/program files/microchip/xc32/v1.33/bin/bin/../../lib/gcc/pic32mx/4.5.2/../../../../pic32mx/lib/size\libpic32.a(vector46.o)
 .text          0x00000000        0x0 f:/program files/microchip/xc32/v1.33/bin/bin/../../lib/gcc/pic32mx/4.5.2/../../../../pic32mx/lib/size\libpic32.a(vector47.o)
 .data          0x00000000        0x0 f:/program files/microchip/xc32/v1.33/bin/bin/../../lib/gcc/pic32mx/4.5.2/../../../../pic32mx/lib/size\libpic32.a(vector47.o)
 .bss           0x00000000        0x0 f:/program files/microchip/xc32/v1.33/bin/bin/../../lib/gcc/pic32mx/4.5.2/../../../../pic32mx/lib/size\libpic32.a(vector47.o)
 .reginfo       0x00000000       0x18 f:/program files/microchip/xc32/v1.33/bin/bin/../../lib/gcc/pic32mx/4.5.2/../../../../pic32mx/lib/size\libpic32.a(vector47.o)
 .text          0x00000000        0x0 f:/program files/microchip/xc32/v1.33/bin/bin/../../lib/gcc/pic32mx/4.5.2/../../../../pic32mx/lib/size\libpic32.a(vector48.o)
 .data          0x00000000        0x0 f:/program files/microchip/xc32/v1.33/bin/bin/../../lib/gcc/pic32mx/4.5.2/../../../../pic32mx/lib/size\libpic32.a(vector48.o)
 .bss           0x00000000        0x0 f:/program files/microchip/xc32/v1.33/bin/bin/../../lib/gcc/pic32mx/4.5.2/../../../../pic32mx/lib/size\libpic32.a(vector48.o)
 .reginfo       0x00000000       0x18 f:/program files/microchip/xc32/v1.33/bin/bin/../../lib/gcc/pic32mx/4.5.2/../../../../pic32mx/lib/size\libpic32.a(vector48.o)
 .text          0x00000000        0x0 f:/program files/microchip/xc32/v1.33/bin/bin/../../lib/gcc/pic32mx/4.5.2/../../../../pic32mx/lib/size\libpic32.a(vector49.o)
 .data          0x00000000        0x0 f:/program files/microchip/xc32/v1.33/bin/bin/../../lib/gcc/pic32mx/4.5.2/../../../../pic32mx/lib/size\libpic32.a(vector49.o)
 .bss           0x00000000        0x0 f:/program files/microchip/xc32/v1.33/bin/bin/../../lib/gcc/pic32mx/4.5.2/../../../../pic32mx/lib/size\libpic32.a(vector49.o)
 .reginfo       0x00000000       0x18 f:/program files/microchip/xc32/v1.33/bin/bin/../../lib/gcc/pic32mx/4.5.2/../../../../pic32mx/lib/size\libpic32.a(vector49.o)
 .text          0x00000000        0x0 f:/program files/microchip/xc32/v1.33/bin/bin/../../lib/gcc/pic32mx/4.5.2/../../../../pic32mx/lib/size\libpic32.a(vector50.o)
 .data          0x00000000        0x0 f:/program files/microchip/xc32/v1.33/bin/bin/../../lib/gcc/pic32mx/4.5.2/../../../../pic32mx/lib/size\libpic32.a(vector50.o)
 .bss           0x00000000        0x0 f:/program files/microchip/xc32/v1.33/bin/bin/../../lib/gcc/pic32mx/4.5.2/../../../../pic32mx/lib/size\libpic32.a(vector50.o)
 .reginfo       0x00000000       0x18 f:/program files/microchip/xc32/v1.33/bin/bin/../../lib/gcc/pic32mx/4.5.2/../../../../pic32mx/lib/size\libpic32.a(vector50.o)
 .text          0x00000000        0x0 f:/program files/microchip/xc32/v1.33/bin/bin/../../lib/gcc/pic32mx/4.5.2/../../../../pic32mx/lib/size\libpic32.a(vector51.o)
 .data          0x00000000        0x0 f:/program files/microchip/xc32/v1.33/bin/bin/../../lib/gcc/pic32mx/4.5.2/../../../../pic32mx/lib/size\libpic32.a(vector51.o)
 .bss           0x00000000        0x0 f:/program files/microchip/xc32/v1.33/bin/bin/../../lib/gcc/pic32mx/4.5.2/../../../../pic32mx/lib/size\libpic32.a(vector51.o)
 .reginfo       0x00000000       0x18 f:/program files/microchip/xc32/v1.33/bin/bin/../../lib/gcc/pic32mx/4.5.2/../../../../pic32mx/lib/size\libpic32.a(vector51.o)
 .text          0x00000000        0x0 f:/program files/microchip/xc32/v1.33/bin/bin/../../lib/gcc/pic32mx/4.5.2/../../../../pic32mx/lib/size\libpic32.a(vector52.o)
 .data          0x00000000        0x0 f:/program files/microchip/xc32/v1.33/bin/bin/../../lib/gcc/pic32mx/4.5.2/../../../../pic32mx/lib/size\libpic32.a(vector52.o)
 .bss           0x00000000        0x0 f:/program files/microchip/xc32/v1.33/bin/bin/../../lib/gcc/pic32mx/4.5.2/../../../../pic32mx/lib/size\libpic32.a(vector52.o)
 .reginfo       0x00000000       0x18 f:/program files/microchip/xc32/v1.33/bin/bin/../../lib/gcc/pic32mx/4.5.2/../../../../pic32mx/lib/size\libpic32.a(vector52.o)
 .text          0x00000000        0x0 f:/program files/microchip/xc32/v1.33/bin/bin/../../lib/gcc/pic32mx/4.5.2/../../../../pic32mx/lib/size\libpic32.a(vector53.o)
 .data          0x00000000        0x0 f:/program files/microchip/xc32/v1.33/bin/bin/../../lib/gcc/pic32mx/4.5.2/../../../../pic32mx/lib/size\libpic32.a(vector53.o)
 .bss           0x00000000        0x0 f:/program files/microchip/xc32/v1.33/bin/bin/../../lib/gcc/pic32mx/4.5.2/../../../../pic32mx/lib/size\libpic32.a(vector53.o)
 .reginfo       0x00000000       0x18 f:/program files/microchip/xc32/v1.33/bin/bin/../../lib/gcc/pic32mx/4.5.2/../../../../pic32mx/lib/size\libpic32.a(vector53.o)
 .text          0x00000000        0x0 f:/program files/microchip/xc32/v1.33/bin/bin/../../lib/gcc/pic32mx/4.5.2/../../../../pic32mx/lib/size\libpic32.a(vector54.o)
 .data          0x00000000        0x0 f:/program files/microchip/xc32/v1.33/bin/bin/../../lib/gcc/pic32mx/4.5.2/../../../../pic32mx/lib/size\libpic32.a(vector54.o)
 .bss           0x00000000        0x0 f:/program files/microchip/xc32/v1.33/bin/bin/../../lib/gcc/pic32mx/4.5.2/../../../../pic32mx/lib/size\libpic32.a(vector54.o)
 .reginfo       0x00000000       0x18 f:/program files/microchip/xc32/v1.33/bin/bin/../../lib/gcc/pic32mx/4.5.2/../../../../pic32mx/lib/size\libpic32.a(vector54.o)
 .text          0x00000000        0x0 f:/program files/microchip/xc32/v1.33/bin/bin/../../lib/gcc/pic32mx/4.5.2/../../../../pic32mx/lib/size\libpic32.a(vector55.o)
 .data          0x00000000        0x0 f:/program files/microchip/xc32/v1.33/bin/bin/../../lib/gcc/pic32mx/4.5.2/../../../../pic32mx/lib/size\libpic32.a(vector55.o)
 .bss           0x00000000        0x0 f:/program files/microchip/xc32/v1.33/bin/bin/../../lib/gcc/pic32mx/4.5.2/../../../../pic32mx/lib/size\libpic32.a(vector55.o)
 .reginfo       0x00000000       0x18 f:/program files/microchip/xc32/v1.33/bin/bin/../../lib/gcc/pic32mx/4.5.2/../../../../pic32mx/lib/size\libpic32.a(vector55.o)
 .text          0x00000000        0x0 f:/program files/microchip/xc32/v1.33/bin/bin/../../lib/gcc/pic32mx/4.5.2/../../../../pic32mx/lib/size\libpic32.a(vector56.o)
 .data          0x00000000        0x0 f:/program files/microchip/xc32/v1.33/bin/bin/../../lib/gcc/pic32mx/4.5.2/../../../../pic32mx/lib/size\libpic32.a(vector56.o)
 .bss           0x00000000        0x0 f:/program files/microchip/xc32/v1.33/bin/bin/../../lib/gcc/pic32mx/4.5.2/../../../../pic32mx/lib/size\libpic32.a(vector56.o)
 .reginfo       0x00000000       0x18 f:/program files/microchip/xc32/v1.33/bin/bin/../../lib/gcc/pic32mx/4.5.2/../../../../pic32mx/lib/size\libpic32.a(vector56.o)
 .text          0x00000000        0x0 f:/program files/microchip/xc32/v1.33/bin/bin/../../lib/gcc/pic32mx/4.5.2/../../../../pic32mx/lib/size\libpic32.a(vector57.o)
 .data          0x00000000        0x0 f:/program files/microchip/xc32/v1.33/bin/bin/../../lib/gcc/pic32mx/4.5.2/../../../../pic32mx/lib/size\libpic32.a(vector57.o)
 .bss           0x00000000        0x0 f:/program files/microchip/xc32/v1.33/bin/bin/../../lib/gcc/pic32mx/4.5.2/../../../../pic32mx/lib/size\libpic32.a(vector57.o)
 .reginfo       0x00000000       0x18 f:/program files/microchip/xc32/v1.33/bin/bin/../../lib/gcc/pic32mx/4.5.2/../../../../pic32mx/lib/size\libpic32.a(vector57.o)
 .text          0x00000000        0x0 f:/program files/microchip/xc32/v1.33/bin/bin/../../lib/gcc/pic32mx/4.5.2/../../../../pic32mx/lib/size\libpic32.a(vector58.o)
 .data          0x00000000        0x0 f:/program files/microchip/xc32/v1.33/bin/bin/../../lib/gcc/pic32mx/4.5.2/../../../../pic32mx/lib/size\libpic32.a(vector58.o)
 .bss           0x00000000        0x0 f:/program files/microchip/xc32/v1.33/bin/bin/../../lib/gcc/pic32mx/4.5.2/../../../../pic32mx/lib/size\libpic32.a(vector58.o)
 .reginfo       0x00000000       0x18 f:/program files/microchip/xc32/v1.33/bin/bin/../../lib/gcc/pic32mx/4.5.2/../../../../pic32mx/lib/size\libpic32.a(vector58.o)
 .text          0x00000000        0x0 f:/program files/microchip/xc32/v1.33/bin/bin/../../lib/gcc/pic32mx/4.5.2/../../../../pic32mx/lib/size\libpic32.a(vector59.o)
 .data          0x00000000        0x0 f:/program files/microchip/xc32/v1.33/bin/bin/../../lib/gcc/pic32mx/4.5.2/../../../../pic32mx/lib/size\libpic32.a(vector59.o)
 .bss           0x00000000        0x0 f:/program files/microchip/xc32/v1.33/bin/bin/../../lib/gcc/pic32mx/4.5.2/../../../../pic32mx/lib/size\libpic32.a(vector59.o)
 .reginfo       0x00000000       0x18 f:/program files/microchip/xc32/v1.33/bin/bin/../../lib/gcc/pic32mx/4.5.2/../../../../pic32mx/lib/size\libpic32.a(vector59.o)
 .text          0x00000000        0x0 f:/program files/microchip/xc32/v1.33/bin/bin/../../lib/gcc/pic32mx/4.5.2/../../../../pic32mx/lib/size\libpic32.a(vector60.o)
 .data          0x00000000        0x0 f:/program files/microchip/xc32/v1.33/bin/bin/../../lib/gcc/pic32mx/4.5.2/../../../../pic32mx/lib/size\libpic32.a(vector60.o)
 .bss           0x00000000        0x0 f:/program files/microchip/xc32/v1.33/bin/bin/../../lib/gcc/pic32mx/4.5.2/../../../../pic32mx/lib/size\libpic32.a(vector60.o)
 .reginfo       0x00000000       0x18 f:/program files/microchip/xc32/v1.33/bin/bin/../../lib/gcc/pic32mx/4.5.2/../../../../pic32mx/lib/size\libpic32.a(vector60.o)
 .text          0x00000000        0x0 f:/program files/microchip/xc32/v1.33/bin/bin/../../lib/gcc/pic32mx/4.5.2/../../../../pic32mx/lib/size\libpic32.a(vector61.o)
 .data          0x00000000        0x0 f:/program files/microchip/xc32/v1.33/bin/bin/../../lib/gcc/pic32mx/4.5.2/../../../../pic32mx/lib/size\libpic32.a(vector61.o)
 .bss           0x00000000        0x0 f:/program files/microchip/xc32/v1.33/bin/bin/../../lib/gcc/pic32mx/4.5.2/../../../../pic32mx/lib/size\libpic32.a(vector61.o)
 .reginfo       0x00000000       0x18 f:/program files/microchip/xc32/v1.33/bin/bin/../../lib/gcc/pic32mx/4.5.2/../../../../pic32mx/lib/size\libpic32.a(vector61.o)
 .text          0x00000000        0x0 f:/program files/microchip/xc32/v1.33/bin/bin/../../lib/gcc/pic32mx/4.5.2/../../../../pic32mx/lib/size\libpic32.a(vector62.o)
 .data          0x00000000        0x0 f:/program files/microchip/xc32/v1.33/bin/bin/../../lib/gcc/pic32mx/4.5.2/../../../../pic32mx/lib/size\libpic32.a(vector62.o)
 .bss           0x00000000        0x0 f:/program files/microchip/xc32/v1.33/bin/bin/../../lib/gcc/pic32mx/4.5.2/../../../../pic32mx/lib/size\libpic32.a(vector62.o)
 .reginfo       0x00000000       0x18 f:/program files/microchip/xc32/v1.33/bin/bin/../../lib/gcc/pic32mx/4.5.2/../../../../pic32mx/lib/size\libpic32.a(vector62.o)
 .text          0x00000000        0x0 f:/program files/microchip/xc32/v1.33/bin/bin/../../lib/gcc/pic32mx/4.5.2/../../../../pic32mx/lib/size\libpic32.a(vector63.o)
 .data          0x00000000        0x0 f:/program files/microchip/xc32/v1.33/bin/bin/../../lib/gcc/pic32mx/4.5.2/../../../../pic32mx/lib/size\libpic32.a(vector63.o)
 .bss           0x00000000        0x0 f:/program files/microchip/xc32/v1.33/bin/bin/../../lib/gcc/pic32mx/4.5.2/../../../../pic32mx/lib/size\libpic32.a(vector63.o)
 .reginfo       0x00000000       0x18 f:/program files/microchip/xc32/v1.33/bin/bin/../../lib/gcc/pic32mx/4.5.2/../../../../pic32mx/lib/size\libpic32.a(vector63.o)
 .text          0x00000000        0x0 f:/program files/microchip/xc32/v1.33/bin/bin/../../lib/gcc/pic32mx/4.5.2/../../../../pic32mx/lib/size\libpic32.a(default-general-exception-handler.o)
 .data          0x00000000        0x0 f:/program files/microchip/xc32/v1.33/bin/bin/../../lib/gcc/pic32mx/4.5.2/../../../../pic32mx/lib/size\libpic32.a(default-general-exception-handler.o)
 .bss           0x00000000        0x0 f:/program files/microchip/xc32/v1.33/bin/bin/../../lib/gcc/pic32mx/4.5.2/../../../../pic32mx/lib/size\libpic32.a(default-general-exception-handler.o)
 .reginfo       0x00000000       0x18 f:/program files/microchip/xc32/v1.33/bin/bin/../../lib/gcc/pic32mx/4.5.2/../../../../pic32mx/lib/size\libpic32.a(default-general-exception-handler.o)
 .text          0x00000000        0x0 f:/program files/microchip/xc32/v1.33/bin/bin/../../lib/gcc/pic32mx/4.5.2/../../../../pic32mx/lib/size\libpic32.a(defaultinterrupt.o)
 .data          0x00000000        0x0 f:/program files/microchip/xc32/v1.33/bin/bin/../../lib/gcc/pic32mx/4.5.2/../../../../pic32mx/lib/size\libpic32.a(defaultinterrupt.o)
 .bss           0x00000000        0x0 f:/program files/microchip/xc32/v1.33/bin/bin/../../lib/gcc/pic32mx/4.5.2/../../../../pic32mx/lib/size\libpic32.a(defaultinterrupt.o)
 .reginfo       0x00000000       0x18 f:/program files/microchip/xc32/v1.33/bin/bin/../../lib/gcc/pic32mx/4.5.2/../../../../pic32mx/lib/size\libpic32.a(defaultinterrupt.o)

Memory Configuration

Name             Origin             Length             Attributes
kseg0_program_mem 0x9d000000         0x00010000         xr
kseg0_boot_mem   0x9fc00490         0x00000970
exception_mem    0x9fc01000         0x00001000
kseg1_boot_mem   0xbfc00000         0x00000490
debug_exec_mem   0xbfc02000         0x00000ff0
config3          0xbfc02ff0         0x00000004
config2          0xbfc02ff4         0x00000004
config1          0xbfc02ff8         0x00000004
config0          0xbfc02ffc         0x00000004
kseg1_data_mem   0xa0000000         0x00004000         w !x
sfrs             0xbf800000         0x00100000
configsfrs       0xbfc02ff0         0x00000010
*default*        0x00000000         0xffffffff

Linker script and memory map

LOAD f:/program files/microchip/xc32/v1.33/bin/bin/../../lib/gcc/pic32mx/4.5.2/../../../../pic32mx/lib/./proc/32MX534F064H/crt0_mips32r2.o
LOAD f:/program files/microchip/xc32/v1.33/bin/bin/../../lib/gcc/pic32mx/4.5.2/../../../../pic32mx/lib/size\debug-exception-return.o
LOAD build/PIC32_Standalone/production/usb/usb_descriptors.o
LOAD build/PIC32_Standalone/production/usb/usb_device.o
LOAD build/PIC32_Standalone/production/usb/usb_driver.o
LOAD build/PIC32_Standalone/production/usb/usb_function_hid.o
LOAD build/PIC32_Standalone/production/usb/usb_hal_pic24.o
LOAD build/PIC32_Standalone/production/main.o
LOAD build/PIC32_Standalone/production/isr.o
LOAD build/PIC32_Standalone/production/iron.o
LOAD build/PIC32_Standalone/production/PID.o
LOAD build/PIC32_Standalone/production/io.o
LOAD build/PIC32_Standalone/production/menu.o
LOAD build/PIC32_Standalone/production/PIC32MX534F064H.o
LOAD build/PIC32_Standalone/production/EEP.o
LOAD build/PIC32_Standalone/production/OLED.o
LOAD build/PIC32_Standalone/production/pars.o
                0x00000001                __MPLAB_BUILD = 0x1
LOAD f:/program files/microchip/xc32/v1.33/bin/bin/../../lib/gcc/pic32mx/4.5.2/../../../../pic32mx/lib/./proc/32MX534F064H\default_isr_vectors.o
LOAD f:/program files/microchip/xc32/v1.33/bin/bin/../../lib/gcc/pic32mx/4.5.2/../../../../pic32mx/lib/size\pic32_software_reset.o
                0x00000400                PROVIDE (_min_stack_size, 0x400)
LOAD f:/program files/microchip/xc32/v1.33/bin/bin/../../lib/gcc/pic32mx/4.5.2/../../../../pic32mx/lib/./proc/32MX534F064H\processor.o
START GROUP
LOAD f:/program files/microchip/xc32/v1.33/bin/bin/../../lib/gcc/pic32mx/4.5.2/../../../../pic32mx/lib/size\libmchp_peripheral.a
END GROUP
START GROUP
LOAD f:/program files/microchip/xc32/v1.33/bin/bin/../../lib/gcc/pic32mx/4.5.2/../../../../pic32mx/lib/size\libmchp_peripheral_32MX534F064H.a
END GROUP
                0x00000001                PROVIDE (_vector_spacing, 0x1)
                0x9fc01000                _ebase_address = 0x9fc01000
                0xbfc00000                _RESET_ADDR = 0xbfc00000
                0xbfc00380                _BEV_EXCPT_ADDR = 0xbfc00380
                0xbfc00480                _DBG_EXCPT_ADDR = 0xbfc00480
                0xbfc02000                _DBG_CODE_ADDR = 0xbfc02000
                0x00000ff0                _DBG_CODE_SIZE = 0xff0
                0x9fc01180                _GEN_EXCPT_ADDR = (_ebase_address + 0x180)

.config_BFC02FF0
                0xbfc02ff0        0x4
 *(.config_BFC02FF0)
 .config_BFC02FF0
                0xbfc02ff0        0x4 build/PIC32_Standalone/production/PIC32MX534F064H.o

.config_BFC02FF4
                0xbfc02ff4        0x4
 *(.config_BFC02FF4)
 .config_BFC02FF4
                0xbfc02ff4        0x4 build/PIC32_Standalone/production/PIC32MX534F064H.o

.config_BFC02FF8
                0xbfc02ff8        0x4
 *(.config_BFC02FF8)
 .config_BFC02FF8
                0xbfc02ff8        0x4 build/PIC32_Standalone/production/PIC32MX534F064H.o

.config_BFC02FFC
                0xbfc02ffc        0x4
 *(.config_BFC02FFC)
 .config_BFC02FFC
                0xbfc02ffc        0x4 build/PIC32_Standalone/production/PIC32MX534F064H.o
                0xbfc02000                PROVIDE (_DBG_CODE_ADDR, 0xbfc02000)
                0x00000ff0                PROVIDE (_DBG_CODE_SIZE, 0xff0)

.reset          0xbfc00000      0x1f0
 *(.reset)
 .reset         0xbfc00000        0x8 f:/program files/microchip/xc32/v1.33/bin/bin/../../lib/gcc/pic32mx/4.5.2/../../../../pic32mx/lib/./proc/32MX534F064H/crt0_mips32r2.o
                0xbfc00000                _reset
 *(.reset.startup)
 .reset.startup
                0xbfc00008      0x1e8 f:/program files/microchip/xc32/v1.33/bin/bin/../../lib/gcc/pic32mx/4.5.2/../../../../pic32mx/lib/./proc/32MX534F064H/crt0_mips32r2.o

.bev_excpt      0xbfc00380       0x10
 *(.bev_handler)
 .bev_handler   0xbfc00380       0x10 f:/program files/microchip/xc32/v1.33/bin/bin/../../lib/gcc/pic32mx/4.5.2/../../../../pic32mx/lib/./proc/32MX534F064H/crt0_mips32r2.o

.dbg_excpt      0xbfc00480        0x0
                0xbfc00480                . = (. + DEFINED (_DEBUGGER)?0x8:0x0)

.dbg_code       0xbfc02000        0x0
                0xbfc02000                . = (. + DEFINED (_DEBUGGER)?_DBG_CODE_SIZE:0x0)

.app_excpt      0x9fc01180       0x10
 *(.gen_handler)
 .gen_handler   0x9fc01180       0x10 f:/program files/microchip/xc32/v1.33/bin/bin/../../lib/gcc/pic32mx/4.5.2/../../../../pic32mx/lib/./proc/32MX534F064H/crt0_mips32r2.o

.vector_0       0x9fc01200        0x8
 *(.vector_0)
 .vector_0      0x9fc01200        0x8 f:/program files/microchip/xc32/v1.33/bin/bin/../../lib/gcc/pic32mx/4.5.2/../../../../pic32mx/lib/size\libpic32.a(vector0.o)
                0x9fc01200                __vector_dispatch_0
                0x00000001                ASSERT (((_vector_spacing == 0x0) || (SIZEOF (.vector_0) <= (_vector_spacing << 0x5))), function at exception vector 0 too large)

.vector_1       0x9fc01220        0x8
 *(.vector_1)
 .vector_1      0x9fc01220        0x8 f:/program files/microchip/xc32/v1.33/bin/bin/../../lib/gcc/pic32mx/4.5.2/../../../../pic32mx/lib/size\libpic32.a(vector1.o)
                0x9fc01220                __vector_dispatch_1
                0x00000001                ASSERT (((_vector_spacing == 0x0) || (SIZEOF (.vector_1) <= (_vector_spacing << 0x5))), function at exception vector 1 too large)

.vector_2       0x9fc01240        0x8
 *(.vector_2)
 .vector_2      0x9fc01240        0x8 f:/program files/microchip/xc32/v1.33/bin/bin/../../lib/gcc/pic32mx/4.5.2/../../../../pic32mx/lib/size\libpic32.a(vector2.o)
                0x9fc01240                __vector_dispatch_2
                0x00000001                ASSERT (((_vector_spacing == 0x0) || (SIZEOF (.vector_2) <= (_vector_spacing << 0x5))), function at exception vector 2 too large)

.vector_3       0x9fc01260        0x8
 *(.vector_3)
 .vector_3      0x9fc01260        0x8 f:/program files/microchip/xc32/v1.33/bin/bin/../../lib/gcc/pic32mx/4.5.2/../../../../pic32mx/lib/size\libpic32.a(vector3.o)
                0x9fc01260                __vector_dispatch_3
                0x00000001                ASSERT (((_vector_spacing == 0x0) || (SIZEOF (.vector_3) <= (_vector_spacing << 0x5))), function at exception vector 3 too large)

.vector_4       0x9fc01280        0x8
 *(.vector_4)
 .vector_4      0x9fc01280        0x8 build/PIC32_Standalone/production/PIC32MX534F064H.o
                0x9fc01280                __vector_dispatch_4
                0x00000001                ASSERT (((_vector_spacing == 0x0) || (SIZEOF (.vector_4) <= (_vector_spacing << 0x5))), function at exception vector 4 too large)

.vector_5       0x9fc012a0        0x8
 *(.vector_5)
 .vector_5      0x9fc012a0        0x8 f:/program files/microchip/xc32/v1.33/bin/bin/../../lib/gcc/pic32mx/4.5.2/../../../../pic32mx/lib/size\libpic32.a(vector5.o)
                0x9fc012a0                __vector_dispatch_5
                0x00000001                ASSERT (((_vector_spacing == 0x0) || (SIZEOF (.vector_5) <= (_vector_spacing << 0x5))), function at exception vector 5 too large)

.vector_6       0x9fc012c0        0x8
 *(.vector_6)
 .vector_6      0x9fc012c0        0x8 f:/program files/microchip/xc32/v1.33/bin/bin/../../lib/gcc/pic32mx/4.5.2/../../../../pic32mx/lib/size\libpic32.a(vector6.o)
                0x9fc012c0                __vector_dispatch_6
                0x00000001                ASSERT (((_vector_spacing == 0x0) || (SIZEOF (.vector_6) <= (_vector_spacing << 0x5))), function at exception vector 6 too large)

.vector_7       0x9fc012e0        0x8
 *(.vector_7)
 .vector_7      0x9fc012e0        0x8 f:/program files/microchip/xc32/v1.33/bin/bin/../../lib/gcc/pic32mx/4.5.2/../../../../pic32mx/lib/size\libpic32.a(vector7.o)
                0x9fc012e0                __vector_dispatch_7
                0x00000001                ASSERT (((_vector_spacing == 0x0) || (SIZEOF (.vector_7) <= (_vector_spacing << 0x5))), function at exception vector 7 too large)

.vector_8       0x9fc01300        0x8
 *(.vector_8)
 .vector_8      0x9fc01300        0x8 build/PIC32_Standalone/production/PIC32MX534F064H.o
                0x9fc01300                __vector_dispatch_8
                0x00000001                ASSERT (((_vector_spacing == 0x0) || (SIZEOF (.vector_8) <= (_vector_spacing << 0x5))), function at exception vector 8 too large)

.vector_9       0x9fc01320        0x8
 *(.vector_9)
 .vector_9      0x9fc01320        0x8 f:/program files/microchip/xc32/v1.33/bin/bin/../../lib/gcc/pic32mx/4.5.2/../../../../pic32mx/lib/size\libpic32.a(vector9.o)
                0x9fc01320                __vector_dispatch_9
                0x00000001                ASSERT (((_vector_spacing == 0x0) || (SIZEOF (.vector_9) <= (_vector_spacing << 0x5))), function at exception vector 9 too large)

.vector_10      0x9fc01340        0x8
 *(.vector_10)
 .vector_10     0x9fc01340        0x8 build/PIC32_Standalone/production/PIC32MX534F064H.o
                0x9fc01340                __vector_dispatch_10
                0x00000001                ASSERT (((_vector_spacing == 0x0) || (SIZEOF (.vector_10) <= (_vector_spacing << 0x5))), function at exception vector 10 too large)

.vector_11      0x9fc01360        0x8
 *(.vector_11)
 .vector_11     0x9fc01360        0x8 f:/program files/microchip/xc32/v1.33/bin/bin/../../lib/gcc/pic32mx/4.5.2/../../../../pic32mx/lib/size\libpic32.a(vector11.o)
                0x9fc01360                __vector_dispatch_11
                0x00000001                ASSERT (((_vector_spacing == 0x0) || (SIZEOF (.vector_11) <= (_vector_spacing << 0x5))), function at exception vector 11 too large)

.vector_12      0x9fc01380        0x8
 *(.vector_12)
 .vector_12     0x9fc01380        0x8 f:/program files/microchip/xc32/v1.33/bin/bin/../../lib/gcc/pic32mx/4.5.2/../../../../pic32mx/lib/size\libpic32.a(vector12.o)
                0x9fc01380                __vector_dispatch_12
                0x00000001                ASSERT (((_vector_spacing == 0x0) || (SIZEOF (.vector_12) <= (_vector_spacing << 0x5))), function at exception vector 12 too large)

.vector_13      0x9fc013a0        0x8
 *(.vector_13)
 .vector_13     0x9fc013a0        0x8 f:/program files/microchip/xc32/v1.33/bin/bin/../../lib/gcc/pic32mx/4.5.2/../../../../pic32mx/lib/size\libpic32.a(vector13.o)
                0x9fc013a0                __vector_dispatch_13
                0x00000001                ASSERT (((_vector_spacing == 0x0) || (SIZEOF (.vector_13) <= (_vector_spacing << 0x5))), function at exception vector 13 too large)

.vector_14      0x9fc013c0        0x8
 *(.vector_14)
 .vector_14     0x9fc013c0        0x8 f:/program files/microchip/xc32/v1.33/bin/bin/../../lib/gcc/pic32mx/4.5.2/../../../../pic32mx/lib/size\libpic32.a(vector14.o)
                0x9fc013c0                __vector_dispatch_14
                0x00000001                ASSERT (((_vector_spacing == 0x0) || (SIZEOF (.vector_14) <= (_vector_spacing << 0x5))), function at exception vector 14 too large)

.vector_15      0x9fc013e0        0x8
 *(.vector_15)
 .vector_15     0x9fc013e0        0x8 f:/program files/microchip/xc32/v1.33/bin/bin/../../lib/gcc/pic32mx/4.5.2/../../../../pic32mx/lib/size\libpic32.a(vector15.o)
                0x9fc013e0                __vector_dispatch_15
                0x00000001                ASSERT (((_vector_spacing == 0x0) || (SIZEOF (.vector_15) <= (_vector_spacing << 0x5))), function at exception vector 15 too large)

.vector_16      0x9fc01400        0x8
 *(.vector_16)
 .vector_16     0x9fc01400        0x8 f:/program files/microchip/xc32/v1.33/bin/bin/../../lib/gcc/pic32mx/4.5.2/../../../../pic32mx/lib/size\libpic32.a(vector16.o)
                0x9fc01400                __vector_dispatch_16
                0x00000001                ASSERT (((_vector_spacing == 0x0) || (SIZEOF (.vector_16) <= (_vector_spacing << 0x5))), function at exception vector 16 too large)

.vector_17      0x9fc01420        0x8
 *(.vector_17)
 .vector_17     0x9fc01420        0x8 f:/program files/microchip/xc32/v1.33/bin/bin/../../lib/gcc/pic32mx/4.5.2/../../../../pic32mx/lib/size\libpic32.a(vector17.o)
                0x9fc01420                __vector_dispatch_17
                0x00000001                ASSERT (((_vector_spacing == 0x0) || (SIZEOF (.vector_17) <= (_vector_spacing << 0x5))), function at exception vector 17 too large)

.vector_18      0x9fc01440        0x8
 *(.vector_18)
 .vector_18     0x9fc01440        0x8 f:/program files/microchip/xc32/v1.33/bin/bin/../../lib/gcc/pic32mx/4.5.2/../../../../pic32mx/lib/size\libpic32.a(vector18.o)
                0x9fc01440                __vector_dispatch_18
                0x00000001                ASSERT (((_vector_spacing == 0x0) || (SIZEOF (.vector_18) <= (_vector_spacing << 0x5))), function at exception vector 18 too large)

.vector_19      0x9fc01460        0x8
 *(.vector_19)
 .vector_19     0x9fc01460        0x8 f:/program files/microchip/xc32/v1.33/bin/bin/../../lib/gcc/pic32mx/4.5.2/../../../../pic32mx/lib/size\libpic32.a(vector19.o)
                0x9fc01460                __vector_dispatch_19
                0x00000001                ASSERT (((_vector_spacing == 0x0) || (SIZEOF (.vector_19) <= (_vector_spacing << 0x5))), function at exception vector 19 too large)

.vector_20      0x9fc01480        0x8
 *(.vector_20)
 .vector_20     0x9fc01480        0x8 f:/program files/microchip/xc32/v1.33/bin/bin/../../lib/gcc/pic32mx/4.5.2/../../../../pic32mx/lib/size\libpic32.a(vector20.o)
                0x9fc01480                __vector_dispatch_20
                0x00000001                ASSERT (((_vector_spacing == 0x0) || (SIZEOF (.vector_20) <= (_vector_spacing << 0x5))), function at exception vector 20 too large)

.vector_21      0x9fc014a0        0x8
 *(.vector_21)
 .vector_21     0x9fc014a0        0x8 f:/program files/microchip/xc32/v1.33/bin/bin/../../lib/gcc/pic32mx/4.5.2/../../../../pic32mx/lib/size\libpic32.a(vector21.o)
                0x9fc014a0                __vector_dispatch_21
                0x00000001                ASSERT (((_vector_spacing == 0x0) || (SIZEOF (.vector_21) <= (_vector_spacing << 0x5))), function at exception vector 21 too large)

.vector_22      0x9fc014c0        0x8
 *(.vector_22)
 .vector_22     0x9fc014c0        0x8 f:/program files/microchip/xc32/v1.33/bin/bin/../../lib/gcc/pic32mx/4.5.2/../../../../pic32mx/lib/size\libpic32.a(vector22.o)
                0x9fc014c0                __vector_dispatch_22
                0x00000001                ASSERT (((_vector_spacing == 0x0) || (SIZEOF (.vector_22) <= (_vector_spacing << 0x5))), function at exception vector 22 too large)

.vector_23      0x9fc014e0        0x8
 *(.vector_23)
 .vector_23     0x9fc014e0        0x8 f:/program files/microchip/xc32/v1.33/bin/bin/../../lib/gcc/pic32mx/4.5.2/../../../../pic32mx/lib/size\libpic32.a(vector23.o)
                0x9fc014e0                __vector_dispatch_23
                0x00000001                ASSERT (((_vector_spacing == 0x0) || (SIZEOF (.vector_23) <= (_vector_spacing << 0x5))), function at exception vector 23 too large)

.vector_24      0x9fc01500        0x8
 *(.vector_24)
 .vector_24     0x9fc01500        0x8 f:/program files/microchip/xc32/v1.33/bin/bin/../../lib/gcc/pic32mx/4.5.2/../../../../pic32mx/lib/size\libpic32.a(vector24.o)
                0x9fc01500                __vector_dispatch_24
                0x00000001                ASSERT (((_vector_spacing == 0x0) || (SIZEOF (.vector_24) <= (_vector_spacing << 0x5))), function at exception vector 24 too large)

.vector_25      0x9fc01520        0x8
 *(.vector_25)
 .vector_25     0x9fc01520        0x8 f:/program files/microchip/xc32/v1.33/bin/bin/../../lib/gcc/pic32mx/4.5.2/../../../../pic32mx/lib/size\libpic32.a(vector25.o)
                0x9fc01520                __vector_dispatch_25
                0x00000001                ASSERT (((_vector_spacing == 0x0) || (SIZEOF (.vector_25) <= (_vector_spacing << 0x5))), function at exception vector 25 too large)

.vector_26      0x9fc01540        0x8
 *(.vector_26)
 .vector_26     0x9fc01540        0x8 f:/program files/microchip/xc32/v1.33/bin/bin/../../lib/gcc/pic32mx/4.5.2/../../../../pic32mx/lib/size\libpic32.a(vector26.o)
                0x9fc01540                __vector_dispatch_26
                0x00000001                ASSERT (((_vector_spacing == 0x0) || (SIZEOF (.vector_26) <= (_vector_spacing << 0x5))), function at exception vector 26 too large)

.vector_27      0x9fc01560        0x8
 *(.vector_27)
 .vector_27     0x9fc01560        0x8 build/PIC32_Standalone/production/PIC32MX534F064H.o
                0x9fc01560                __vector_dispatch_27
                0x00000001                ASSERT (((_vector_spacing == 0x0) || (SIZEOF (.vector_27) <= (_vector_spacing << 0x5))), function at exception vector 27 too large)

.vector_28      0x9fc01580        0x8
 *(.vector_28)
 .vector_28     0x9fc01580        0x8 f:/program files/microchip/xc32/v1.33/bin/bin/../../lib/gcc/pic32mx/4.5.2/../../../../pic32mx/lib/size\libpic32.a(vector28.o)
                0x9fc01580                __vector_dispatch_28
                0x00000001                ASSERT (((_vector_spacing == 0x0) || (SIZEOF (.vector_28) <= (_vector_spacing << 0x5))), function at exception vector 28 too large)

.vector_29      0x9fc015a0        0x8
 *(.vector_29)
 .vector_29     0x9fc015a0        0x8 f:/program files/microchip/xc32/v1.33/bin/bin/../../lib/gcc/pic32mx/4.5.2/../../../../pic32mx/lib/size\libpic32.a(vector29.o)
                0x9fc015a0                __vector_dispatch_29
                0x00000001                ASSERT (((_vector_spacing == 0x0) || (SIZEOF (.vector_29) <= (_vector_spacing << 0x5))), function at exception vector 29 too large)

.vector_30      0x9fc015c0        0x8
 *(.vector_30)
 .vector_30     0x9fc015c0        0x8 build/PIC32_Standalone/production/PIC32MX534F064H.o
                0x9fc015c0                __vector_dispatch_30
                0x00000001                ASSERT (((_vector_spacing == 0x0) || (SIZEOF (.vector_30) <= (_vector_spacing << 0x5))), function at exception vector 30 too large)

.vector_31      0x9fc015e0        0x8
 *(.vector_31)
 .vector_31     0x9fc015e0        0x8 build/PIC32_Standalone/production/PIC32MX534F064H.o
                0x9fc015e0                __vector_dispatch_31
                0x00000001                ASSERT (((_vector_spacing == 0x0) || (SIZEOF (.vector_31) <= (_vector_spacing << 0x5))), function at exception vector 31 too large)

.vector_32      0x9fc01600        0x8
 *(.vector_32)
 .vector_32     0x9fc01600        0x8 f:/program files/microchip/xc32/v1.33/bin/bin/../../lib/gcc/pic32mx/4.5.2/../../../../pic32mx/lib/size\libpic32.a(vector32.o)
                0x9fc01600                __vector_dispatch_32
                0x00000001                ASSERT (((_vector_spacing == 0x0) || (SIZEOF (.vector_32) <= (_vector_spacing << 0x5))), function at exception vector 32 too large)

.vector_33      0x9fc01620        0x8
 *(.vector_33)
 .vector_33     0x9fc01620        0x8 f:/program files/microchip/xc32/v1.33/bin/bin/../../lib/gcc/pic32mx/4.5.2/../../../../pic32mx/lib/size\libpic32.a(vector33.o)
                0x9fc01620                __vector_dispatch_33
                0x00000001                ASSERT (((_vector_spacing == 0x0) || (SIZEOF (.vector_33) <= (_vector_spacing << 0x5))), function at exception vector 33 too large)

.vector_34      0x9fc01640        0x8
 *(.vector_34)
 .vector_34     0x9fc01640        0x8 f:/program files/microchip/xc32/v1.33/bin/bin/../../lib/gcc/pic32mx/4.5.2/../../../../pic32mx/lib/size\libpic32.a(vector34.o)
                0x9fc01640                __vector_dispatch_34
                0x00000001                ASSERT (((_vector_spacing == 0x0) || (SIZEOF (.vector_34) <= (_vector_spacing << 0x5))), function at exception vector 34 too large)

.vector_35      0x9fc01660        0x8
 *(.vector_35)
 .vector_35     0x9fc01660        0x8 f:/program files/microchip/xc32/v1.33/bin/bin/../../lib/gcc/pic32mx/4.5.2/../../../../pic32mx/lib/size\libpic32.a(vector35.o)
                0x9fc01660                __vector_dispatch_35
                0x00000001                ASSERT (((_vector_spacing == 0x0) || (SIZEOF (.vector_35) <= (_vector_spacing << 0x5))), function at exception vector 35 too large)

.vector_36      0x9fc01680        0x8
 *(.vector_36)
 .vector_36     0x9fc01680        0x8 f:/program files/microchip/xc32/v1.33/bin/bin/../../lib/gcc/pic32mx/4.5.2/../../../../pic32mx/lib/size\libpic32.a(vector36.o)
                0x9fc01680                __vector_dispatch_36
                0x00000001                ASSERT (((_vector_spacing == 0x0) || (SIZEOF (.vector_36) <= (_vector_spacing << 0x5))), function at exception vector 36 too large)

.vector_37      0x9fc016a0        0x8
 *(.vector_37)
 .vector_37     0x9fc016a0        0x8 f:/program files/microchip/xc32/v1.33/bin/bin/../../lib/gcc/pic32mx/4.5.2/../../../../pic32mx/lib/size\libpic32.a(vector37.o)
                0x9fc016a0                __vector_dispatch_37
                0x00000001                ASSERT (((_vector_spacing == 0x0) || (SIZEOF (.vector_37) <= (_vector_spacing << 0x5))), function at exception vector 37 too large)

.vector_38      0x9fc016c0        0x8
 *(.vector_38)
 .vector_38     0x9fc016c0        0x8 f:/program files/microchip/xc32/v1.33/bin/bin/../../lib/gcc/pic32mx/4.5.2/../../../../pic32mx/lib/size\libpic32.a(vector38.o)
                0x9fc016c0                __vector_dispatch_38
                0x00000001                ASSERT (((_vector_spacing == 0x0) || (SIZEOF (.vector_38) <= (_vector_spacing << 0x5))), function at exception vector 38 too large)

.vector_39      0x9fc016e0        0x8
 *(.vector_39)
 .vector_39     0x9fc016e0        0x8 f:/program files/microchip/xc32/v1.33/bin/bin/../../lib/gcc/pic32mx/4.5.2/../../../../pic32mx/lib/size\libpic32.a(vector39.o)
                0x9fc016e0                __vector_dispatch_39
                0x00000001                ASSERT (((_vector_spacing == 0x0) || (SIZEOF (.vector_39) <= (_vector_spacing << 0x5))), function at exception vector 39 too large)

.vector_40      0x9fc01700        0x8
 *(.vector_40)
 .vector_40     0x9fc01700        0x8 f:/program files/microchip/xc32/v1.33/bin/bin/../../lib/gcc/pic32mx/4.5.2/../../../../pic32mx/lib/size\libpic32.a(vector40.o)
                0x9fc01700                __vector_dispatch_40
                0x00000001                ASSERT (((_vector_spacing == 0x0) || (SIZEOF (.vector_40) <= (_vector_spacing << 0x5))), function at exception vector 40 too large)

.vector_41      0x9fc01720        0x8
 *(.vector_41)
 .vector_41     0x9fc01720        0x8 f:/program files/microchip/xc32/v1.33/bin/bin/../../lib/gcc/pic32mx/4.5.2/../../../../pic32mx/lib/size\libpic32.a(vector41.o)
                0x9fc01720                __vector_dispatch_41
                0x00000001                ASSERT (((_vector_spacing == 0x0) || (SIZEOF (.vector_41) <= (_vector_spacing << 0x5))), function at exception vector 41 too large)

.vector_42      0x9fc01740        0x8
 *(.vector_42)
 .vector_42     0x9fc01740        0x8 f:/program files/microchip/xc32/v1.33/bin/bin/../../lib/gcc/pic32mx/4.5.2/../../../../pic32mx/lib/size\libpic32.a(vector42.o)
                0x9fc01740                __vector_dispatch_42
                0x00000001                ASSERT (((_vector_spacing == 0x0) || (SIZEOF (.vector_42) <= (_vector_spacing << 0x5))), function at exception vector 42 too large)

.vector_43      0x9fc01760        0x8
 *(.vector_43)
 .vector_43     0x9fc01760        0x8 f:/program files/microchip/xc32/v1.33/bin/bin/../../lib/gcc/pic32mx/4.5.2/../../../../pic32mx/lib/size\libpic32.a(vector43.o)
                0x9fc01760                __vector_dispatch_43
                0x00000001                ASSERT (((_vector_spacing == 0x0) || (SIZEOF (.vector_43) <= (_vector_spacing << 0x5))), function at exception vector 43 too large)

.vector_44      0x9fc01780        0x8
 *(.vector_44)
 .vector_44     0x9fc01780        0x8 f:/program files/microchip/xc32/v1.33/bin/bin/../../lib/gcc/pic32mx/4.5.2/../../../../pic32mx/lib/size\libpic32.a(vector44.o)
                0x9fc01780                __vector_dispatch_44
                0x00000001                ASSERT (((_vector_spacing == 0x0) || (SIZEOF (.vector_44) <= (_vector_spacing << 0x5))), function at exception vector 44 too large)

.vector_45      0x9fc017a0        0x8
 *(.vector_45)
 .vector_45     0x9fc017a0        0x8 f:/program files/microchip/xc32/v1.33/bin/bin/../../lib/gcc/pic32mx/4.5.2/../../../../pic32mx/lib/size\libpic32.a(vector45.o)
                0x9fc017a0                __vector_dispatch_45
                0x00000001                ASSERT (((_vector_spacing == 0x0) || (SIZEOF (.vector_45) <= (_vector_spacing << 0x5))), function at exception vector 45 too large)

.vector_46      0x9fc017c0        0x8
 *(.vector_46)
 .vector_46     0x9fc017c0        0x8 f:/program files/microchip/xc32/v1.33/bin/bin/../../lib/gcc/pic32mx/4.5.2/../../../../pic32mx/lib/size\libpic32.a(vector46.o)
                0x9fc017c0                __vector_dispatch_46
                0x00000001                ASSERT (((_vector_spacing == 0x0) || (SIZEOF (.vector_46) <= (_vector_spacing << 0x5))), function at exception vector 46 too large)

.vector_47      0x9fc017e0        0x8
 *(.vector_47)
 .vector_47     0x9fc017e0        0x8 f:/program files/microchip/xc32/v1.33/bin/bin/../../lib/gcc/pic32mx/4.5.2/../../../../pic32mx/lib/size\libpic32.a(vector47.o)
                0x9fc017e0                __vector_dispatch_47
                0x00000001                ASSERT (((_vector_spacing == 0x0) || (SIZEOF (.vector_47) <= (_vector_spacing << 0x5))), function at exception vector 47 too large)

.vector_48      0x9fc01800        0x8
 *(.vector_48)
 .vector_48     0x9fc01800        0x8 f:/program files/microchip/xc32/v1.33/bin/bin/../../lib/gcc/pic32mx/4.5.2/../../../../pic32mx/lib/size\libpic32.a(vector48.o)
                0x9fc01800                __vector_dispatch_48
                0x00000001                ASSERT (((_vector_spacing == 0x0) || (SIZEOF (.vector_48) <= (_vector_spacing << 0x5))), function at exception vector 48 too large)

.vector_49      0x9fc01820        0x8
 *(.vector_49)
 .vector_49     0x9fc01820        0x8 f:/program files/microchip/xc32/v1.33/bin/bin/../../lib/gcc/pic32mx/4.5.2/../../../../pic32mx/lib/size\libpic32.a(vector49.o)
                0x9fc01820                __vector_dispatch_49
                0x00000001                ASSERT (((_vector_spacing == 0x0) || (SIZEOF (.vector_49) <= (_vector_spacing << 0x5))), function at exception vector 49 too large)

.vector_50      0x9fc01840        0x8
 *(.vector_50)
 .vector_50     0x9fc01840        0x8 f:/program files/microchip/xc32/v1.33/bin/bin/../../lib/gcc/pic32mx/4.5.2/../../../../pic32mx/lib/size\libpic32.a(vector50.o)
                0x9fc01840                __vector_dispatch_50
                0x00000001                ASSERT (((_vector_spacing == 0x0) || (SIZEOF (.vector_50) <= (_vector_spacing << 0x5))), function at exception vector 50 too large)

.vector_51      0x9fc01860        0x8
 *(.vector_51)
 .vector_51     0x9fc01860        0x8 f:/program files/microchip/xc32/v1.33/bin/bin/../../lib/gcc/pic32mx/4.5.2/../../../../pic32mx/lib/size\libpic32.a(vector51.o)
                0x9fc01860                __vector_dispatch_51
                0x00000001                ASSERT (((_vector_spacing == 0x0) || (SIZEOF (.vector_51) <= (_vector_spacing << 0x5))), function at exception vector 51 too large)

.vector_52      0x9fc01880        0x8
 *(.vector_52)
 .vector_52     0x9fc01880        0x8 f:/program files/microchip/xc32/v1.33/bin/bin/../../lib/gcc/pic32mx/4.5.2/../../../../pic32mx/lib/size\libpic32.a(vector52.o)
                0x9fc01880                __vector_dispatch_52
                0x00000001                ASSERT (((_vector_spacing == 0x0) || (SIZEOF (.vector_52) <= (_vector_spacing << 0x5))), function at exception vector 52 too large)

.vector_53      0x9fc018a0        0x8
 *(.vector_53)
 .vector_53     0x9fc018a0        0x8 f:/program files/microchip/xc32/v1.33/bin/bin/../../lib/gcc/pic32mx/4.5.2/../../../../pic32mx/lib/size\libpic32.a(vector53.o)
                0x9fc018a0                __vector_dispatch_53
                0x00000001                ASSERT (((_vector_spacing == 0x0) || (SIZEOF (.vector_53) <= (_vector_spacing << 0x5))), function at exception vector 53 too large)

.vector_54      0x9fc018c0        0x8
 *(.vector_54)
 .vector_54     0x9fc018c0        0x8 f:/program files/microchip/xc32/v1.33/bin/bin/../../lib/gcc/pic32mx/4.5.2/../../../../pic32mx/lib/size\libpic32.a(vector54.o)
                0x9fc018c0                __vector_dispatch_54
                0x00000001                ASSERT (((_vector_spacing == 0x0) || (SIZEOF (.vector_54) <= (_vector_spacing << 0x5))), function at exception vector 54 too large)

.vector_55      0x9fc018e0        0x8
 *(.vector_55)
 .vector_55     0x9fc018e0        0x8 f:/program files/microchip/xc32/v1.33/bin/bin/../../lib/gcc/pic32mx/4.5.2/../../../../pic32mx/lib/size\libpic32.a(vector55.o)
                0x9fc018e0                __vector_dispatch_55
                0x00000001                ASSERT (((_vector_spacing == 0x0) || (SIZEOF (.vector_55) <= (_vector_spacing << 0x5))), function at exception vector 55 too large)

.vector_56      0x9fc01900        0x8
 *(.vector_56)
 .vector_56     0x9fc01900        0x8 f:/program files/microchip/xc32/v1.33/bin/bin/../../lib/gcc/pic32mx/4.5.2/../../../../pic32mx/lib/size\libpic32.a(vector56.o)
                0x9fc01900                __vector_dispatch_56
                0x00000001                ASSERT (((_vector_spacing == 0x0) || (SIZEOF (.vector_56) <= (_vector_spacing << 0x5))), function at exception vector 56 too large)

.vector_57      0x9fc01920        0x8
 *(.vector_57)
 .vector_57     0x9fc01920        0x8 f:/program files/microchip/xc32/v1.33/bin/bin/../../lib/gcc/pic32mx/4.5.2/../../../../pic32mx/lib/size\libpic32.a(vector57.o)
                0x9fc01920                __vector_dispatch_57
                0x00000001                ASSERT (((_vector_spacing == 0x0) || (SIZEOF (.vector_57) <= (_vector_spacing << 0x5))), function at exception vector 57 too large)

.vector_58      0x9fc01940        0x8
 *(.vector_58)
 .vector_58     0x9fc01940        0x8 f:/program files/microchip/xc32/v1.33/bin/bin/../../lib/gcc/pic32mx/4.5.2/../../../../pic32mx/lib/size\libpic32.a(vector58.o)
                0x9fc01940                __vector_dispatch_58
                0x00000001                ASSERT (((_vector_spacing == 0x0) || (SIZEOF (.vector_58) <= (_vector_spacing << 0x5))), function at exception vector 58 too large)

.vector_59      0x9fc01960        0x8
 *(.vector_59)
 .vector_59     0x9fc01960        0x8 f:/program files/microchip/xc32/v1.33/bin/bin/../../lib/gcc/pic32mx/4.5.2/../../../../pic32mx/lib/size\libpic32.a(vector59.o)
                0x9fc01960                __vector_dispatch_59
                0x00000001                ASSERT (((_vector_spacing == 0x0) || (SIZEOF (.vector_59) <= (_vector_spacing << 0x5))), function at exception vector 59 too large)

.vector_60      0x9fc01980        0x8
 *(.vector_60)
 .vector_60     0x9fc01980        0x8 f:/program files/microchip/xc32/v1.33/bin/bin/../../lib/gcc/pic32mx/4.5.2/../../../../pic32mx/lib/size\libpic32.a(vector60.o)
                0x9fc01980                __vector_dispatch_60
                0x00000001                ASSERT (((_vector_spacing == 0x0) || (SIZEOF (.vector_60) <= (_vector_spacing << 0x5))), function at exception vector 60 too large)

.vector_61      0x9fc019a0        0x8
 *(.vector_61)
 .vector_61     0x9fc019a0        0x8 f:/program files/microchip/xc32/v1.33/bin/bin/../../lib/gcc/pic32mx/4.5.2/../../../../pic32mx/lib/size\libpic32.a(vector61.o)
                0x9fc019a0                __vector_dispatch_61
                0x00000001                ASSERT (((_vector_spacing == 0x0) || (SIZEOF (.vector_61) <= (_vector_spacing << 0x5))), function at exception vector 61 too large)

.vector_62      0x9fc019c0        0x8
 *(.vector_62)
 .vector_62     0x9fc019c0        0x8 f:/program files/microchip/xc32/v1.33/bin/bin/../../lib/gcc/pic32mx/4.5.2/../../../../pic32mx/lib/size\libpic32.a(vector62.o)
                0x9fc019c0                __vector_dispatch_62
                0x00000001                ASSERT (((_vector_spacing == 0x0) || (SIZEOF (.vector_62) <= (_vector_spacing << 0x5))), function at exception vector 62 too large)

.vector_63      0x9fc019e0        0x8
 *(.vector_63)
 .vector_63     0x9fc019e0        0x8 f:/program files/microchip/xc32/v1.33/bin/bin/../../lib/gcc/pic32mx/4.5.2/../../../../pic32mx/lib/size\libpic32.a(vector63.o)
                0x9fc019e0                __vector_dispatch_63
                0x00000001                ASSERT (((_vector_spacing == 0x0) || (SIZEOF (.vector_63) <= (_vector_spacing << 0x5))), function at exception vector 63 too large)

.startup
 *(.startup)

.text           0x9d000000        0x0
 *(.stub .gnu.linkonce.t.*)
 *(.text.*personality*)
 *(.mips16.fn.*)
 *(.mips16.call.*)
 *(.gnu.warning)
                0x9d000000                . = ALIGN (0x4)

.init           0x9d000000        0x0
 *crti.o(.init)
 *crtbegin.o(.init)
 *(EXCLUDE_FILE(*crtn.o *crtend?.o *crtend.o) .init)
 *crtend.o(.init)
 *crtn.o(.init)
                0x9d000000                . = ALIGN (0x4)

.fini           0x9d000000        0x0
 *(.fini)
                0x9d000000                . = ALIGN (0x4)

.preinit_array  0x9d000000        0x0
                0x9d000000                PROVIDE (__preinit_array_start, .)
 *(.preinit_array)
                0x9d000000                PROVIDE (__preinit_array_end, .)
                0x9d000000                . = ALIGN (0x4)

.init_array     0x9d000000        0x0
                0x9d000000                PROVIDE (__init_array_start, .)
 *(SORT(.init_array.*))
 *(.init_array)
                0x9d000000                PROVIDE (__init_array_end, .)
                0x9d000000                . = ALIGN (0x4)

.fini_array     0x9d000000        0x0
                0x9d000000                PROVIDE (__fini_array_start, .)
 *(SORT(.fini_array.*))
 *(.fini_array)
                0x9d000000                PROVIDE (__fini_array_end, .)
                0x9d000000                . = ALIGN (0x4)

.ctors          0x9d000000        0x0
 *crtbegin.o(.ctors)
 *crtbegin?.o(.ctors)
 *(EXCLUDE_FILE(*crtend?.o *crtend.o) .ctors)
 *(SORT(.ctors.*))
 *(.ctors)
                0x9d000000                . = ALIGN (0x4)

.dtors          0x9d000000        0x0
 *crtbegin.o(.dtors)
 *crtbegin?.o(.dtors)
 *(EXCLUDE_FILE(*crtend?.o *crtend.o) .dtors)
 *(SORT(.dtors.*))
 *(.dtors)
                0x9d000000                . = ALIGN (0x4)

.rodata         0x9d000000        0x0
 *(.gnu.linkonce.r.*)
 *(.rodata1)
                0x9d000000                . = ALIGN (0x4)

.sdata2         0x9fc00490        0x0
 *(.sdata2 .sdata2.* .gnu.linkonce.s2.*)
                0x9fc00490                . = ALIGN (0x4)

.sbss2          0x9fc00490        0x0
 *(.sbss2 .sbss2.* .gnu.linkonce.sb2.*)
                0x9fc00490                . = ALIGN (0x4)

.eh_frame_hdr
 *(.eh_frame_hdr)
                0x9fc00490                . = ALIGN (0x4)

.eh_frame
 *(.eh_frame)
                0x9fc00490                . = ALIGN (0x4)

.gcc_except_table
 *(.gcc_except_table .gcc_except_table.*)
                0x9fc00490                . = ALIGN (0x4)

.dbg_data       0xa0000000        0x0
                0xa0000000                . = (. + DEFINED (_DEBUGGER)?0x200:0x0)

.jcr            0xa0000000        0x0
 *(.jcr)
                0xa0000000                . = ALIGN (0x4)

.eh_frame
 *(.eh_frame)
                0xa0000000                . = ALIGN (0x4)

.gcc_except_table
 *(.gcc_except_table .gcc_except_table.*)
                0xa0000000                . = ALIGN (0x4)

.persist        0xa0000000        0x0
                0xa0000000                _persist_begin = .
 *(.persist .persist.*)
 *(.pbss .pbss.*)
                0xa0000000                . = ALIGN (0x4)
                0xa0000000                _persist_end = .

.data           0xa0000000        0x0
 *(.gnu.linkonce.d.*)
 *(.data1)
                0xa0000000                . = ALIGN (0x4)
                0xa0000000                . = .
                0xa0007ff0                _gp = (ALIGN (0x10) + 0x7ff0)

.got            0xa0000000        0x0
 *(.got.plt)
 *(.got)
                0xa0000000                . = ALIGN (0x4)

.sdata          0xa0000000       0x24
                0xa0000000                _sdata_begin = .
 *(.sdata .sdata.* .gnu.linkonce.s.*)
 .sdata         0xa0000000        0x4 build/PIC32_Standalone/production/main.o
                0xa0000000                mainFlags
 .sdata         0xa0000004        0x8 build/PIC32_Standalone/production/OLED.o
                0xa0000004                PreUpdateBuff
 .sdata         0xa000000c       0x18 build/PIC32_Standalone/production/pars.o
                0xa000000c                StrDispRot
                0xa0000014                StrButtons
                0xa000001c                StrMenuUp
                0xa0000024                . = ALIGN (0x4)
                0xa0000024                _sdata_end = .

.lit8
 *(.lit8)

.lit4
 *(.lit4)
                0xa0000024                . = ALIGN (0x4)
                0xa0000024                _data_end = .
                0xa0000024                _bss_begin = .

.sbss           0xa0000024      0x1d4
                0xa0000024                _sbss_begin = .
 *(.dynsbss)
 *(.sbss .sbss.* .gnu.linkonce.sb.*)
 .sbss          0xa0000024        0xc build/PIC32_Standalone/production/usb/usb_driver.o
                0xa0000024                USBOutHandle
                0xa0000028                USBInHandle
 .sbss          0xa0000030        0x8 build/PIC32_Standalone/production/isr.o
                0xa0000030                ISRComplete
 .sbss          0xa0000038        0x8 build/PIC32_Standalone/production/iron.o
 .sbss          0xa0000040       0x10 build/PIC32_Standalone/production/io.o
 .sbss          0xa0000050       0x60 build/PIC32_Standalone/production/menu.o
 .sbss          0xa00000b0       0x10 build/PIC32_Standalone/production/PIC32MX534F064H.o
                0xa00000b0                ADCAuto
 .sbss          0xa00000c0        0x4 build/PIC32_Standalone/production/OLED.o
                0xa00000c0                DisplaySetup
 *(.scommon)
 .scommon       0xa00000c4       0x6c build/PIC32_Standalone/production/usb/usb_device.o
                0xa00000c4                pDst
                0xa00000c8                USBDeferINDataStagePackets
                0xa00000cc                CtrlTrfData
                0xa00000d4                USBDeferOUTDataStagePackets
                0xa00000d8                USBDeviceState
                0xa00000dc                controlTransferState
                0xa00000dd                endpoint_number
                0xa00000e0                pBDTEntryIn
                0xa00000e8                ep_data_out
                0xa00000ec                USBStatusStageEnabledFlag1
                0xa00000f0                USBStatusStageEnabledFlag2
                0xa00000f4                pBDTEntryOut
                0xa00000fc                BothEP0OutUOWNsSet
                0xa0000100                pBDTEntryEP0OutNext
                0xa0000104                USBBusIsSuspended
                0xa0000108                USBStatusStageTimeoutCounter
                0xa000010c                SetupPkt
                0xa0000114                ep_data_in
                0xa0000116                shortPacketStatus
                0xa0000118                pBDTEntryEP0OutCurrent
                0xa000011c                USBActiveConfiguration
                0xa0000120                RemoteWakeup
                0xa0000124                USTATcopy
                0xa0000128                USBAlternateInterface
                0xa000012c                USBDeferStatusStagePacket
 .scommon       0xa0000130        0x2 build/PIC32_Standalone/production/usb/usb_function_hid.o
                0xa0000130                active_protocol
                0xa0000131                idle_rate
 *fill*         0xa0000132        0x2 
 .scommon       0xa0000134       0x28 build/PIC32_Standalone/production/main.o
                0xa0000134                CalCh
                0xa0000138                InvertTicks
                0xa000013c                MAINS_PER
                0xa0000140                BeepTicks
                0xa0000144                MAINS_PER_Q_US
                0xa0000148                MAINS_PER_H_US
                0xa000014c                C_PER
                0xa0000150                T_PER
                0xa0000154                TTemp
                0xa0000158                MAINS_PER_US
 .scommon       0xa000015c       0x61 build/PIC32_Standalone/production/isr.o
                0xa000015c                EEPCntR
                0xa000015e                EEPCntW
                0xa0000160                NoHeater
                0xa0000164                VIBuffCnt
                0xa0000168                ISRStep
                0xa000016c                I2CIdle
                0xa0000170                ADCStep
                0xa0000174                KeepOff
                0xa0000178                CompLowTime
                0xa000017c                EEPAddrR
                0xa0000180                EEPDataW
                0xa0000184                I2CCCommand
                0xa0000188                CompLowTimeOff
                0xa000018c                ShortCircuit
                0xa0000190                I2CData
                0xa0000198                I2CCommands
                0xa000019c                ISRTicks
                0xa00001a0                I2CStep
                0xa00001a4                OffDelayOff
                0xa00001a8                EEPDataR
                0xa00001ac                EEPAddrW
                0xa00001b0                ISRStopped
                0xa00001b4                NoSensor
                0xa00001b8                CompLowTimeOn
                0xa00001bc                PHEATER
 *fill*         0xa00001bd        0x3 
 .scommon       0xa00001c0        0x8 build/PIC32_Standalone/production/iron.o
                0xa00001c0                IronID
                0xa00001c4                IronTicks
 .scommon       0xa00001c8       0x10 build/PIC32_Standalone/production/PID.o
                0xa00001c8                CRTemp
                0xa00001cc                CTTemp
                0xa00001d0                RTAvg
                0xa00001d4                PIDTicks
 .scommon       0xa00001d8        0x4 build/PIC32_Standalone/production/io.o
                0xa00001d8                BuffEmpty
 .scommon       0xa00001dc       0x10 build/PIC32_Standalone/production/menu.o
                0xa00001dc                OLEDTemp
                0xa00001e0                OLEDMsg1
                0xa00001e4                OLEDPower
                0xa00001e8                OLEDMsg2
 .scommon       0xa00001ec        0xc build/PIC32_Standalone/production/PIC32MX534F064H.o
                0xa00001ec                _MRT_LastCoreTimer
                0xa00001f0                mcuADCRES
                0xa00001f4                SPIAuto
                0xa00001f8                _sbss_end = .
                0xa00001f8                . = ALIGN (0x4)

.bss            0xa0000200     0x1c34
 *(.dynbss)
 *(COMMON)
 COMMON         0xa0000200       0x5b build/PIC32_Standalone/production/usb/usb_device.o
                0xa0000200                BDT
                0xa0000240                inPipes
                0xa0000250                outPipes
 *fill*         0xa000025b        0x1 
 COMMON         0xa000025c       0x80 build/PIC32_Standalone/production/usb/usb_driver.o
                0xa000025c                USBRxBuffer
                0xa000029c                USBTxBuffer
 COMMON         0xa00002dc       0x10 build/PIC32_Standalone/production/main.o
                0xa00002dc                pars
 COMMON         0xa00002ec     0x1420 build/PIC32_Standalone/production/isr.o
                0xa00002ec                VBuff
                0xa00006ec                Buff2
                0xa00008ec                ADCData
                0xa000090c                ADCAutoData
                0xa000110c                IBuff
                0xa000150c                Buff1
 COMMON         0xa000170c       0xa0 build/PIC32_Standalone/production/iron.o
                0xa000170c                IronPars
 COMMON         0xa00017ac      0x288 build/PIC32_Standalone/production/PID.o
                0xa00017ac                PIDVars
 COMMON         0xa0001a34      0x400 build/PIC32_Standalone/production/OLED.o
                0xa0001a34                OLEDBUFF
                0xa0001e34                . = ALIGN ((. != 0x0)?0x4:0x1)
                0xa0001e34                . = ALIGN (0x4)
                0xa0001e34                _end = .
                0xa0001e34                _bss_end = .
                0x00004000                _bmxdudba_address = 0x4000
                0x00004000                _bmxdupba_address = 0x4000

/DISCARD/
 *(.pdr)
 *(.rel.dyn)
 *(.note.GNU-stack)
 *(.note.GNU-stack)
 *(.gnu_debuglink)
 *(.gnu.lto_*)
 *(.discard)

.gptab.sdata
 *(.gptab.data)
 *(.gptab.sdata)

.gptab.sbss
 *(.gptab.bss)
 *(.gptab.sbss)

.mdebug.abi32   0xa0001e34        0x0
 *(.mdebug.abi32)
 .mdebug.abi32  0xa0001e34        0x0 build/PIC32_Standalone/production/usb/usb_descriptors.o
 .mdebug.abi32  0xa0001e34        0x0 build/PIC32_Standalone/production/usb/usb_device.o
 .mdebug.abi32  0xa0001e34        0x0 build/PIC32_Standalone/production/usb/usb_driver.o
 .mdebug.abi32  0xa0001e34        0x0 build/PIC32_Standalone/production/usb/usb_function_hid.o
 .mdebug.abi32  0xa0001e34        0x0 build/PIC32_Standalone/production/usb/usb_hal_pic24.o
 .mdebug.abi32  0xa0001e34        0x0 build/PIC32_Standalone/production/main.o
 .mdebug.abi32  0xa0001e34        0x0 build/PIC32_Standalone/production/isr.o
 .mdebug.abi32  0xa0001e34        0x0 build/PIC32_Standalone/production/iron.o
 .mdebug.abi32  0xa0001e34        0x0 build/PIC32_Standalone/production/PID.o
 .mdebug.abi32  0xa0001e34        0x0 build/PIC32_Standalone/production/io.o
 .mdebug.abi32  0xa0001e34        0x0 build/PIC32_Standalone/production/menu.o
 .mdebug.abi32  0xa0001e34        0x0 build/PIC32_Standalone/production/PIC32MX534F064H.o
 .mdebug.abi32  0xa0001e34        0x0 build/PIC32_Standalone/production/EEP.o
 .mdebug.abi32  0xa0001e34        0x0 build/PIC32_Standalone/production/OLED.o
 .mdebug.abi32  0xa0001e34        0x0 build/PIC32_Standalone/production/pars.o
 .mdebug.abi32  0xa0001e34        0x0 f:/program files/microchip/xc32/v1.33/bin/bin/../../lib/gcc/pic32mx/4.5.2/../../../../pic32mx/lib/size\libmchp_peripheral.a(open_core_timer_lib.o)
 .mdebug.abi32  0xa0001e34        0x0 f:/program files/microchip/xc32/v1.33/bin/bin/../../lib/gcc/pic32mx/4.5.2/../../../../pic32mx/lib/size\libmchp_peripheral.a(read_core_timer_lib.o)
 .mdebug.abi32  0xa0001e34        0x0 f:/program files/microchip/xc32/v1.33/bin/bin/../../lib/gcc/pic32mx/4.5.2/../../../../pic32mx/lib/size\libmchp_peripheral_32MX534F064H.a(soft_reset_lib.o)
 .mdebug.abi32  0xa0001e34        0x0 f:/program files/microchip/xc32/v1.33/bin/bin/../../lib/gcc/pic32mx/4.5.2/../../../../pic32mx/lib/size\libmchp_peripheral_32MX534F064H.a(int_enable_interrupts_lib.o)
 .mdebug.abi32  0xa0001e34        0x0 f:/program files/microchip/xc32/v1.33/bin/bin/../../lib/gcc/pic32mx/4.5.2/../../../../pic32mx/lib/size\libmchp_peripheral_32MX534F064H.a(int_disable_interrupts_lib.o)
 .mdebug.abi32  0xa0001e34        0x0 f:/program files/microchip/xc32/v1.33/bin/bin/../../lib/gcc/pic32mx/4.5.2/../../../../pic32mx/lib/size\libmchp_peripheral_32MX534F064H.a(int_restore_interrupts_lib.o)
 .mdebug.abi32  0xa0001e34        0x0 f:/program files/microchip/xc32/v1.33/bin/bin/../../lib/gcc/pic32mx/4.5.2/../../../../pic32mx/lib/size\libmchp_peripheral_32MX534F064H.a(int_enable_mv_int_lib.o)
 .mdebug.abi32  0xa0001e34        0x0 f:/program files/microchip/xc32/v1.33/bin/bin/../../lib/gcc/pic32mx/4.5.2/../../../../pic32mx/lib/size\libmchp_peripheral_32MX534F064H.a(int_tbl_lib.o)
 .mdebug.abi32  0xa0001e34        0x0 f:/program files/microchip/xc32/v1.33/bin/bin/../../lib/gcc/pic32mx/4.5.2/../../../../pic32mx/lib/size\libmchp_peripheral_32MX534F064H.a(spi_chn_close_lib.o)
 .mdebug.abi32  0xa0001e34        0x0 f:/program files/microchip/xc32/v1.33/bin/bin/../../lib/gcc/pic32mx/4.5.2/../../../../pic32mx/lib/size\libmchp_peripheral_32MX534F064H.a(spi_chn_open_lib.o)
 .mdebug.abi32  0xa0001e34        0x0 f:/program files/microchip/xc32/v1.33/bin/bin/../../lib/gcc/pic32mx/4.5.2/../../../../pic32mx/lib/size\libmchp_peripheral_32MX534F064H.a(spi_chn_putc_lib.o)
 .mdebug.abi32  0xa0001e34        0x0 f:/program files/microchip/xc32/v1.33/bin/bin/../../lib/gcc/pic32mx/4.5.2/../../../../pic32mx/lib/size\libmchp_peripheral_32MX534F064H.a(spi_chn_puts_lib.o)
 .mdebug.abi32  0xa0001e34        0x0 f:/program files/microchip/xc32/v1.33/bin/bin/../../lib/gcc/pic32mx/4.5.2/../../../../pic32mx/lib/size\libmchp_peripheral_32MX534F064H.a(spi_chn_is_busy_lib.o)
 .mdebug.abi32  0xa0001e34        0x0 f:/program files/microchip/xc32/v1.33/bin/bin/../../lib/gcc/pic32mx/4.5.2/../../../../pic32mx/lib/size\libmchp_peripheral_32MX534F064H.a(spi_io_tbl_libp.o)
 .mdebug.abi32  0xa0001e34        0x0 f:/program files/microchip/xc32/v1.33/bin/bin/../../lib/gcc/pic32mx/4.5.2/../../../../pic32mx/lib/size\libmchp_peripheral_32MX534F064H.a(spi_map_tbl_libp.o)
 .mdebug.abi32  0xa0001e34        0x0 f:/program files/microchip/xc32/v1.33/bin/bin/../../lib/gcc/pic32mx/4.5.2/../../../../pic32mx/lib/size\libmchp_peripheral_32MX534F064H.a(dma_chn_abort_txfer_lib.o)
 .mdebug.abi32  0xa0001e34        0x0 f:/program files/microchip/xc32/v1.33/bin/bin/../../lib/gcc/pic32mx/4.5.2/../../../../pic32mx/lib/size\libmchp_peripheral_32MX534F064H.a(dma_chn_open_lib.o)
 .mdebug.abi32  0xa0001e34        0x0 f:/program files/microchip/xc32/v1.33/bin/bin/../../lib/gcc/pic32mx/4.5.2/../../../../pic32mx/lib/size\libmchp_peripheral_32MX534F064H.a(dma_chn_disable_lib.o)
 .mdebug.abi32  0xa0001e34        0x0 f:/program files/microchip/xc32/v1.33/bin/bin/../../lib/gcc/pic32mx/4.5.2/../../../../pic32mx/lib/size\libmchp_peripheral_32MX534F064H.a(dma_chn_enable_lib.o)
 .mdebug.abi32  0xa0001e34        0x0 f:/program files/microchip/xc32/v1.33/bin/bin/../../lib/gcc/pic32mx/4.5.2/../../../../pic32mx/lib/size\libmchp_peripheral_32MX534F064H.a(dma_chn_get_dst_pnt_lib.o)
 .mdebug.abi32  0xa0001e34        0x0 f:/program files/microchip/xc32/v1.33/bin/bin/../../lib/gcc/pic32mx/4.5.2/../../../../pic32mx/lib/size\libmchp_peripheral_32MX534F064H.a(dma_chn_write_event_control_flags_lib.o)
 .mdebug.abi32  0xa0001e34        0x0 f:/program files/microchip/xc32/v1.33/bin/bin/../../lib/gcc/pic32mx/4.5.2/../../../../pic32mx/lib/size\libmchp_peripheral_32MX534F064H.a(dma_chn_set_txfer_lib.o)
 .mdebug.abi32  0xa0001e34        0x0 f:/program files/microchip/xc32/v1.33/bin/bin/../../lib/gcc/pic32mx/4.5.2/../../../../pic32mx/lib/size\libmchp_peripheral_32MX534F064H.a(dma_chn_write_ev_enable_flags_lib.o)
 .mdebug.abi32  0xa0001e34        0x0 f:/program files/microchip/xc32/v1.33/bin/bin/../../lib/gcc/pic32mx/4.5.2/../../../../pic32mx/lib/size\libmchp_peripheral_32MX534F064H.a(dma_reg_map_tbl_lib.o)
 .mdebug.abi32  0xa0001e34        0x0 f:/program files/microchip/xc32/v1.33/bin/bin/../../lib/gcc/pic32mx/4.5.2/../../../../pic32mx/lib/size\libmchp_peripheral_32MX534F064H.a(port_reset_pins_lib.o)
 .mdebug.abi32  0xa0001e34        0x0 f:/program files/microchip/xc32/v1.33/bin/bin/../../lib/gcc/pic32mx/4.5.2/../../../../pic32mx/lib/size\libmchp_peripheral_32MX534F064H.a(port_set_pins_digital_in_lib.o)
 .mdebug.abi32  0xa0001e34        0x0 f:/program files/microchip/xc32/v1.33/bin/bin/../../lib/gcc/pic32mx/4.5.2/../../../../pic32mx/lib/size\libmchp_peripheral_32MX534F064H.a(port_set_pins_digital_out_lib.o)
 .mdebug.abi32  0xa0001e34        0x0 f:/program files/microchip/xc32/v1.33/bin/bin/../../lib/gcc/pic32mx/4.5.2/../../../../pic32mx/lib/size\libmchp_peripheral_32MX534F064H.a(_ports_tbl_libp.o)
 .mdebug.abi32  0xa0001e34        0x0 f:/program files/microchip/xc32/v1.33/bin/bin/../../lib/gcc/pic32mx/4.5.2/../../../../pic32mx/lib/size\libmchp_peripheral_32MX534F064H.a(I2CAcknowledgeByte.o)
 .mdebug.abi32  0xa0001e34        0x0 f:/program files/microchip/xc32/v1.33/bin/bin/../../lib/gcc/pic32mx/4.5.2/../../../../pic32mx/lib/size\libmchp_peripheral_32MX534F064H.a(I2CByteWasAcknowledged.o)
 .mdebug.abi32  0xa0001e34        0x0 f:/program files/microchip/xc32/v1.33/bin/bin/../../lib/gcc/pic32mx/4.5.2/../../../../pic32mx/lib/size\libmchp_peripheral_32MX534F064H.a(I2CEnable.o)
 .mdebug.abi32  0xa0001e34        0x0 f:/program files/microchip/xc32/v1.33/bin/bin/../../lib/gcc/pic32mx/4.5.2/../../../../pic32mx/lib/size\libmchp_peripheral_32MX534F064H.a(I2CGetByte.o)
 .mdebug.abi32  0xa0001e34        0x0 f:/program files/microchip/xc32/v1.33/bin/bin/../../lib/gcc/pic32mx/4.5.2/../../../../pic32mx/lib/size\libmchp_peripheral_32MX534F064H.a(I2CReceiverEnable.o)
 .mdebug.abi32  0xa0001e34        0x0 f:/program files/microchip/xc32/v1.33/bin/bin/../../lib/gcc/pic32mx/4.5.2/../../../../pic32mx/lib/size\libmchp_peripheral_32MX534F064H.a(I2CSendByte.o)
 .mdebug.abi32  0xa0001e34        0x0 f:/program files/microchip/xc32/v1.33/bin/bin/../../lib/gcc/pic32mx/4.5.2/../../../../pic32mx/lib/size\libmchp_peripheral_32MX534F064H.a(I2CSetFrequency.o)
 .mdebug.abi32  0xa0001e34        0x0 f:/program files/microchip/xc32/v1.33/bin/bin/../../lib/gcc/pic32mx/4.5.2/../../../../pic32mx/lib/size\libmchp_peripheral_32MX534F064H.a(I2CStart.o)
 .mdebug.abi32  0xa0001e34        0x0 f:/program files/microchip/xc32/v1.33/bin/bin/../../lib/gcc/pic32mx/4.5.2/../../../../pic32mx/lib/size\libmchp_peripheral_32MX534F064H.a(I2CStop.o)
 .mdebug.abi32  0xa0001e34        0x0 f:/program files/microchip/xc32/v1.33/bin/bin/../../lib/gcc/pic32mx/4.5.2/../../../../pic32mx/lib/size\libmchp_peripheral_32MX534F064H.a(I2CPrivate.o)
 .mdebug.abi32  0xa0001e34        0x0 f:/program files/microchip/xc32/v1.33/bin/bin/../../lib/gcc/pic32mx/4.5.2/size\libgcc.a(_ashldi3.o)
 .mdebug.abi32  0xa0001e34        0x0 f:/program files/microchip/xc32/v1.33/bin/bin/../../lib/gcc/pic32mx/4.5.2/../../../../pic32mx/lib/size\libpic32.a(default-bootstrap-exception-handler.o)
 .mdebug.abi32  0xa0001e34        0x0 f:/program files/microchip/xc32/v1.33/bin/bin/../../lib/gcc/pic32mx/4.5.2/../../../../pic32mx/lib/size\libpic32.a(default-on-reset.o)
 .mdebug.abi32  0xa0001e34        0x0 f:/program files/microchip/xc32/v1.33/bin/bin/../../lib/gcc/pic32mx/4.5.2/../../../../pic32mx/lib/size\libpic32.a(default-on-bootstrap.o)
 .mdebug.abi32  0xa0001e34        0x0 f:/program files/microchip/xc32/v1.33/bin/bin/../../lib/gcc/pic32mx/4.5.2/../../../../pic32mx/lib/size\libpic32.a(default-general-exception-handler.o)
 .mdebug.abi32  0xa0001e34        0x0 f:/program files/microchip/xc32/v1.33/bin/bin/../../lib/gcc/pic32mx/4.5.2/../../../../pic32mx/lib/size\libpic32.a(defaultinterrupt.o)

.mdebug.abiN32
 *(.mdebug.abiN32)

.mdebug.abi64
 *(.mdebug.abi64)

.mdebug.abiO64
 *(.mdebug.abiO64)

.mdebug.eabi32
 *(.mdebug.eabi32)

.mdebug.eabi64
 *(.mdebug.eabi64)

.gcc_compiled_long32
 *(.gcc_compiled_long32)

.gcc_compiled_long64
 *(.gcc_compiled_long64)

.stab
 *(.stab)

.stabstr
 *(.stabstr)

.stab.excl
 *(.stab.excl)

.stab.exclstr
 *(.stab.exclstr)

.stab.index
 *(.stab.index)

.stab.indexstr
 *(.stab.indexstr)

.comment        0x00000000       0x90
 *(.comment)
 .comment       0x00000000       0x3c build/PIC32_Standalone/production/usb/usb_descriptors.o
                                 0x3d (size before relaxing)
 .comment       0x00000000       0x3d build/PIC32_Standalone/production/usb/usb_device.o
 .comment       0x00000000       0x3d build/PIC32_Standalone/production/usb/usb_driver.o
 .comment       0x00000000       0x3d build/PIC32_Standalone/production/usb/usb_function_hid.o
 .comment       0x00000000       0x3d build/PIC32_Standalone/production/usb/usb_hal_pic24.o
 .comment       0x00000000       0x3d build/PIC32_Standalone/production/main.o
 .comment       0x00000000       0x3d build/PIC32_Standalone/production/isr.o
 .comment       0x00000000       0x3d build/PIC32_Standalone/production/iron.o
 .comment       0x00000000       0x3d build/PIC32_Standalone/production/PID.o
 .comment       0x00000000       0x3d build/PIC32_Standalone/production/io.o
 .comment       0x00000000       0x3d build/PIC32_Standalone/production/menu.o
 .comment       0x00000000       0x3d build/PIC32_Standalone/production/PIC32MX534F064H.o
 .comment       0x00000000       0x3d build/PIC32_Standalone/production/EEP.o
 .comment       0x00000000       0x3d build/PIC32_Standalone/production/OLED.o
 .comment       0x00000000       0x3d build/PIC32_Standalone/production/pars.o
 .comment       0x0000003c       0x3c f:/program files/microchip/xc32/v1.33/bin/bin/../../lib/gcc/pic32mx/4.5.2/../../../../pic32mx/lib/size\libmchp_peripheral.a(open_core_timer_lib.o)
                                 0x3d (size before relaxing)
 .comment       0x00000000       0x3d f:/program files/microchip/xc32/v1.33/bin/bin/../../lib/gcc/pic32mx/4.5.2/../../../../pic32mx/lib/size\libmchp_peripheral.a(read_core_timer_lib.o)
 .comment       0x00000000       0x3d f:/program files/microchip/xc32/v1.33/bin/bin/../../lib/gcc/pic32mx/4.5.2/../../../../pic32mx/lib/size\libmchp_peripheral_32MX534F064H.a(soft_reset_lib.o)
 .comment       0x00000000       0x3d f:/program files/microchip/xc32/v1.33/bin/bin/../../lib/gcc/pic32mx/4.5.2/../../../../pic32mx/lib/size\libmchp_peripheral_32MX534F064H.a(int_enable_interrupts_lib.o)
 .comment       0x00000000       0x3d f:/program files/microchip/xc32/v1.33/bin/bin/../../lib/gcc/pic32mx/4.5.2/../../../../pic32mx/lib/size\libmchp_peripheral_32MX534F064H.a(int_disable_interrupts_lib.o)
 .comment       0x00000000       0x3d f:/program files/microchip/xc32/v1.33/bin/bin/../../lib/gcc/pic32mx/4.5.2/../../../../pic32mx/lib/size\libmchp_peripheral_32MX534F064H.a(int_restore_interrupts_lib.o)
 .comment       0x00000000       0x3d f:/program files/microchip/xc32/v1.33/bin/bin/../../lib/gcc/pic32mx/4.5.2/../../../../pic32mx/lib/size\libmchp_peripheral_32MX534F064H.a(int_enable_mv_int_lib.o)
 .comment       0x00000000       0x3d f:/program files/microchip/xc32/v1.33/bin/bin/../../lib/gcc/pic32mx/4.5.2/../../../../pic32mx/lib/size\libmchp_peripheral_32MX534F064H.a(int_tbl_lib.o)
 .comment       0x00000000       0x3d f:/program files/microchip/xc32/v1.33/bin/bin/../../lib/gcc/pic32mx/4.5.2/../../../../pic32mx/lib/size\libmchp_peripheral_32MX534F064H.a(spi_chn_close_lib.o)
 .comment       0x00000000       0x3d f:/program files/microchip/xc32/v1.33/bin/bin/../../lib/gcc/pic32mx/4.5.2/../../../../pic32mx/lib/size\libmchp_peripheral_32MX534F064H.a(spi_chn_open_lib.o)
 .comment       0x00000000       0x3d f:/program files/microchip/xc32/v1.33/bin/bin/../../lib/gcc/pic32mx/4.5.2/../../../../pic32mx/lib/size\libmchp_peripheral_32MX534F064H.a(spi_chn_putc_lib.o)
 .comment       0x00000000       0x3d f:/program files/microchip/xc32/v1.33/bin/bin/../../lib/gcc/pic32mx/4.5.2/../../../../pic32mx/lib/size\libmchp_peripheral_32MX534F064H.a(spi_chn_puts_lib.o)
 .comment       0x00000000       0x3d f:/program files/microchip/xc32/v1.33/bin/bin/../../lib/gcc/pic32mx/4.5.2/../../../../pic32mx/lib/size\libmchp_peripheral_32MX534F064H.a(spi_chn_is_busy_lib.o)
 .comment       0x00000000       0x3d f:/program files/microchip/xc32/v1.33/bin/bin/../../lib/gcc/pic32mx/4.5.2/../../../../pic32mx/lib/size\libmchp_peripheral_32MX534F064H.a(spi_io_tbl_libp.o)
 .comment       0x00000000       0x3d f:/program files/microchip/xc32/v1.33/bin/bin/../../lib/gcc/pic32mx/4.5.2/../../../../pic32mx/lib/size\libmchp_peripheral_32MX534F064H.a(spi_map_tbl_libp.o)
 .comment       0x00000000       0x3d f:/program files/microchip/xc32/v1.33/bin/bin/../../lib/gcc/pic32mx/4.5.2/../../../../pic32mx/lib/size\libmchp_peripheral_32MX534F064H.a(dma_chn_abort_txfer_lib.o)
 .comment       0x00000000       0x3d f:/program files/microchip/xc32/v1.33/bin/bin/../../lib/gcc/pic32mx/4.5.2/../../../../pic32mx/lib/size\libmchp_peripheral_32MX534F064H.a(dma_chn_open_lib.o)
 .comment       0x00000000       0x3d f:/program files/microchip/xc32/v1.33/bin/bin/../../lib/gcc/pic32mx/4.5.2/../../../../pic32mx/lib/size\libmchp_peripheral_32MX534F064H.a(dma_chn_disable_lib.o)
 .comment       0x00000000       0x3d f:/program files/microchip/xc32/v1.33/bin/bin/../../lib/gcc/pic32mx/4.5.2/../../../../pic32mx/lib/size\libmchp_peripheral_32MX534F064H.a(dma_chn_enable_lib.o)
 .comment       0x00000000       0x3d f:/program files/microchip/xc32/v1.33/bin/bin/../../lib/gcc/pic32mx/4.5.2/../../../../pic32mx/lib/size\libmchp_peripheral_32MX534F064H.a(dma_chn_get_dst_pnt_lib.o)
 .comment       0x00000000       0x3d f:/program files/microchip/xc32/v1.33/bin/bin/../../lib/gcc/pic32mx/4.5.2/../../../../pic32mx/lib/size\libmchp_peripheral_32MX534F064H.a(dma_chn_write_event_control_flags_lib.o)
 .comment       0x00000000       0x3d f:/program files/microchip/xc32/v1.33/bin/bin/../../lib/gcc/pic32mx/4.5.2/../../../../pic32mx/lib/size\libmchp_peripheral_32MX534F064H.a(dma_chn_set_txfer_lib.o)
 .comment       0x00000000       0x3d f:/program files/microchip/xc32/v1.33/bin/bin/../../lib/gcc/pic32mx/4.5.2/../../../../pic32mx/lib/size\libmchp_peripheral_32MX534F064H.a(dma_chn_write_ev_enable_flags_lib.o)
 .comment       0x00000000       0x3d f:/program files/microchip/xc32/v1.33/bin/bin/../../lib/gcc/pic32mx/4.5.2/../../../../pic32mx/lib/size\libmchp_peripheral_32MX534F064H.a(dma_reg_map_tbl_lib.o)
 .comment       0x00000000       0x3d f:/program files/microchip/xc32/v1.33/bin/bin/../../lib/gcc/pic32mx/4.5.2/../../../../pic32mx/lib/size\libmchp_peripheral_32MX534F064H.a(port_reset_pins_lib.o)
 .comment       0x00000000       0x3d f:/program files/microchip/xc32/v1.33/bin/bin/../../lib/gcc/pic32mx/4.5.2/../../../../pic32mx/lib/size\libmchp_peripheral_32MX534F064H.a(port_set_pins_digital_in_lib.o)
 .comment       0x00000000       0x3d f:/program files/microchip/xc32/v1.33/bin/bin/../../lib/gcc/pic32mx/4.5.2/../../../../pic32mx/lib/size\libmchp_peripheral_32MX534F064H.a(port_set_pins_digital_out_lib.o)
 .comment       0x00000000       0x3d f:/program files/microchip/xc32/v1.33/bin/bin/../../lib/gcc/pic32mx/4.5.2/../../../../pic32mx/lib/size\libmchp_peripheral_32MX534F064H.a(_ports_tbl_libp.o)
 .comment       0x00000000       0x3d f:/program files/microchip/xc32/v1.33/bin/bin/../../lib/gcc/pic32mx/4.5.2/../../../../pic32mx/lib/size\libmchp_peripheral_32MX534F064H.a(I2CAcknowledgeByte.o)
 .comment       0x00000000       0x3d f:/program files/microchip/xc32/v1.33/bin/bin/../../lib/gcc/pic32mx/4.5.2/../../../../pic32mx/lib/size\libmchp_peripheral_32MX534F064H.a(I2CByteWasAcknowledged.o)
 .comment       0x00000000       0x3d f:/program files/microchip/xc32/v1.33/bin/bin/../../lib/gcc/pic32mx/4.5.2/../../../../pic32mx/lib/size\libmchp_peripheral_32MX534F064H.a(I2CEnable.o)
 .comment       0x00000000       0x3d f:/program files/microchip/xc32/v1.33/bin/bin/../../lib/gcc/pic32mx/4.5.2/../../../../pic32mx/lib/size\libmchp_peripheral_32MX534F064H.a(I2CGetByte.o)
 .comment       0x00000000       0x3d f:/program files/microchip/xc32/v1.33/bin/bin/../../lib/gcc/pic32mx/4.5.2/../../../../pic32mx/lib/size\libmchp_peripheral_32MX534F064H.a(I2CReceiverEnable.o)
 .comment       0x00000000       0x3d f:/program files/microchip/xc32/v1.33/bin/bin/../../lib/gcc/pic32mx/4.5.2/../../../../pic32mx/lib/size\libmchp_peripheral_32MX534F064H.a(I2CSendByte.o)
 .comment       0x00000000       0x3d f:/program files/microchip/xc32/v1.33/bin/bin/../../lib/gcc/pic32mx/4.5.2/../../../../pic32mx/lib/size\libmchp_peripheral_32MX534F064H.a(I2CSetFrequency.o)
 .comment       0x00000000       0x3d f:/program files/microchip/xc32/v1.33/bin/bin/../../lib/gcc/pic32mx/4.5.2/../../../../pic32mx/lib/size\libmchp_peripheral_32MX534F064H.a(I2CStart.o)
 .comment       0x00000000       0x3d f:/program files/microchip/xc32/v1.33/bin/bin/../../lib/gcc/pic32mx/4.5.2/../../../../pic32mx/lib/size\libmchp_peripheral_32MX534F064H.a(I2CStop.o)
 .comment       0x00000000       0x3d f:/program files/microchip/xc32/v1.33/bin/bin/../../lib/gcc/pic32mx/4.5.2/../../../../pic32mx/lib/size\libmchp_peripheral_32MX534F064H.a(I2CPrivate.o)
 .comment       0x00000000       0x3d f:/program files/microchip/xc32/v1.33/bin/bin/../../lib/gcc/pic32mx/4.5.2/size\libgcc.a(_ashldi3.o)
 .comment       0x00000078       0x18 f:/program files/microchip/xc32/v1.33/bin/bin/../../lib/gcc/pic32mx/4.5.2/../../../../pic32mx/lib/size\libpic32.a(memset.o)
                                 0x19 (size before relaxing)
 .comment       0x00000000       0x3d f:/program files/microchip/xc32/v1.33/bin/bin/../../lib/gcc/pic32mx/4.5.2/../../../../pic32mx/lib/size\libpic32.a(default-bootstrap-exception-handler.o)
 .comment       0x00000000       0x3d f:/program files/microchip/xc32/v1.33/bin/bin/../../lib/gcc/pic32mx/4.5.2/../../../../pic32mx/lib/size\libpic32.a(default-on-reset.o)
 .comment       0x00000000       0x3d f:/program files/microchip/xc32/v1.33/bin/bin/../../lib/gcc/pic32mx/4.5.2/../../../../pic32mx/lib/size\libpic32.a(default-on-bootstrap.o)
 .comment       0x00000000       0x3d f:/program files/microchip/xc32/v1.33/bin/bin/../../lib/gcc/pic32mx/4.5.2/../../../../pic32mx/lib/size\libpic32.a(default-general-exception-handler.o)
 .comment       0x00000000       0x3d f:/program files/microchip/xc32/v1.33/bin/bin/../../lib/gcc/pic32mx/4.5.2/../../../../pic32mx/lib/size\libpic32.a(defaultinterrupt.o)

.debug
 *(.debug)

.line
 *(.line)

.debug_srcinfo
 *(.debug_srcinfo)

.debug_sfnames
 *(.debug_sfnames)

.debug_aranges  0x00000000      0x930
 *(.debug_aranges)
 .debug_aranges
                0x00000000       0x68 build/PIC32_Standalone/production/usb/usb_device.o
 .debug_aranges
                0x00000068       0x68 build/PIC32_Standalone/production/usb/usb_driver.o
 .debug_aranges
                0x000000d0       0x20 build/PIC32_Standalone/production/usb/usb_function_hid.o
 .debug_aranges
                0x000000f0       0x30 build/PIC32_Standalone/production/main.o
 .debug_aranges
                0x00000120       0x50 build/PIC32_Standalone/production/isr.o
 .debug_aranges
                0x00000170       0x30 build/PIC32_Standalone/production/iron.o
 .debug_aranges
                0x000001a0       0x28 build/PIC32_Standalone/production/PID.o
 .debug_aranges
                0x000001c8       0x30 build/PIC32_Standalone/production/io.o
 .debug_aranges
                0x000001f8       0x30 build/PIC32_Standalone/production/menu.o
 .debug_aranges
                0x00000228       0xe0 build/PIC32_Standalone/production/PIC32MX534F064H.o
 .debug_aranges
                0x00000308       0x30 build/PIC32_Standalone/production/EEP.o
 .debug_aranges
                0x00000338       0x80 build/PIC32_Standalone/production/OLED.o
 .debug_aranges
                0x000003b8       0x40 build/PIC32_Standalone/production/pars.o
 .debug_aranges
                0x000003f8       0x20 f:/program files/microchip/xc32/v1.33/bin/bin/../../lib/gcc/pic32mx/4.5.2/../../../../pic32mx/lib/size\libmchp_peripheral.a(open_core_timer_lib.o)
 .debug_aranges
                0x00000418       0x20 f:/program files/microchip/xc32/v1.33/bin/bin/../../lib/gcc/pic32mx/4.5.2/../../../../pic32mx/lib/size\libmchp_peripheral.a(read_core_timer_lib.o)
 .debug_aranges
                0x00000438       0x20 f:/program files/microchip/xc32/v1.33/bin/bin/../../lib/gcc/pic32mx/4.5.2/../../../../pic32mx/lib/size\libmchp_peripheral_32MX534F064H.a(soft_reset_lib.o)
 .debug_aranges
                0x00000458       0x20 f:/program files/microchip/xc32/v1.33/bin/bin/../../lib/gcc/pic32mx/4.5.2/../../../../pic32mx/lib/size\libmchp_peripheral_32MX534F064H.a(int_enable_interrupts_lib.o)
 .debug_aranges
                0x00000478       0x20 f:/program files/microchip/xc32/v1.33/bin/bin/../../lib/gcc/pic32mx/4.5.2/../../../../pic32mx/lib/size\libmchp_peripheral_32MX534F064H.a(int_disable_interrupts_lib.o)
 .debug_aranges
                0x00000498       0x20 f:/program files/microchip/xc32/v1.33/bin/bin/../../lib/gcc/pic32mx/4.5.2/../../../../pic32mx/lib/size\libmchp_peripheral_32MX534F064H.a(int_restore_interrupts_lib.o)
 .debug_aranges
                0x000004b8       0x20 f:/program files/microchip/xc32/v1.33/bin/bin/../../lib/gcc/pic32mx/4.5.2/../../../../pic32mx/lib/size\libmchp_peripheral_32MX534F064H.a(int_enable_mv_int_lib.o)
 .debug_aranges
                0x000004d8       0x60 f:/program files/microchip/xc32/v1.33/bin/bin/../../lib/gcc/pic32mx/4.5.2/../../../../pic32mx/lib/size\libmchp_peripheral_32MX534F064H.a(int_tbl_lib.o)
 .debug_aranges
                0x00000538       0x20 f:/program files/microchip/xc32/v1.33/bin/bin/../../lib/gcc/pic32mx/4.5.2/../../../../pic32mx/lib/size\libmchp_peripheral_32MX534F064H.a(spi_chn_close_lib.o)
 .debug_aranges
                0x00000558       0x20 f:/program files/microchip/xc32/v1.33/bin/bin/../../lib/gcc/pic32mx/4.5.2/../../../../pic32mx/lib/size\libmchp_peripheral_32MX534F064H.a(spi_chn_open_lib.o)
 .debug_aranges
                0x00000578       0x30 f:/program files/microchip/xc32/v1.33/bin/bin/../../lib/gcc/pic32mx/4.5.2/../../../../pic32mx/lib/size\libmchp_peripheral_32MX534F064H.a(spi_chn_putc_lib.o)
 .debug_aranges
                0x000005a8       0x20 f:/program files/microchip/xc32/v1.33/bin/bin/../../lib/gcc/pic32mx/4.5.2/../../../../pic32mx/lib/size\libmchp_peripheral_32MX534F064H.a(spi_chn_puts_lib.o)
 .debug_aranges
                0x000005c8       0x28 f:/program files/microchip/xc32/v1.33/bin/bin/../../lib/gcc/pic32mx/4.5.2/../../../../pic32mx/lib/size\libmchp_peripheral_32MX534F064H.a(spi_chn_is_busy_lib.o)
 .debug_aranges
                0x000005f0       0x20 f:/program files/microchip/xc32/v1.33/bin/bin/../../lib/gcc/pic32mx/4.5.2/../../../../pic32mx/lib/size\libmchp_peripheral_32MX534F064H.a(dma_chn_abort_txfer_lib.o)
 .debug_aranges
                0x00000610       0x20 f:/program files/microchip/xc32/v1.33/bin/bin/../../lib/gcc/pic32mx/4.5.2/../../../../pic32mx/lib/size\libmchp_peripheral_32MX534F064H.a(dma_chn_open_lib.o)
 .debug_aranges
                0x00000630       0x20 f:/program files/microchip/xc32/v1.33/bin/bin/../../lib/gcc/pic32mx/4.5.2/../../../../pic32mx/lib/size\libmchp_peripheral_32MX534F064H.a(dma_chn_disable_lib.o)
 .debug_aranges
                0x00000650       0x20 f:/program files/microchip/xc32/v1.33/bin/bin/../../lib/gcc/pic32mx/4.5.2/../../../../pic32mx/lib/size\libmchp_peripheral_32MX534F064H.a(dma_chn_enable_lib.o)
 .debug_aranges
                0x00000670       0x20 f:/program files/microchip/xc32/v1.33/bin/bin/../../lib/gcc/pic32mx/4.5.2/../../../../pic32mx/lib/size\libmchp_peripheral_32MX534F064H.a(dma_chn_get_dst_pnt_lib.o)
 .debug_aranges
                0x00000690       0x20 f:/program files/microchip/xc32/v1.33/bin/bin/../../lib/gcc/pic32mx/4.5.2/../../../../pic32mx/lib/size\libmchp_peripheral_32MX534F064H.a(dma_chn_write_event_control_flags_lib.o)
 .debug_aranges
                0x000006b0       0x20 f:/program files/microchip/xc32/v1.33/bin/bin/../../lib/gcc/pic32mx/4.5.2/../../../../pic32mx/lib/size\libmchp_peripheral_32MX534F064H.a(dma_chn_set_txfer_lib.o)
 .debug_aranges
                0x000006d0       0x20 f:/program files/microchip/xc32/v1.33/bin/bin/../../lib/gcc/pic32mx/4.5.2/../../../../pic32mx/lib/size\libmchp_peripheral_32MX534F064H.a(dma_chn_write_ev_enable_flags_lib.o)
 .debug_aranges
                0x000006f0       0x20 f:/program files/microchip/xc32/v1.33/bin/bin/../../lib/gcc/pic32mx/4.5.2/../../../../pic32mx/lib/size\libmchp_peripheral_32MX534F064H.a(port_reset_pins_lib.o)
 .debug_aranges
                0x00000710       0x20 f:/program files/microchip/xc32/v1.33/bin/bin/../../lib/gcc/pic32mx/4.5.2/../../../../pic32mx/lib/size\libmchp_peripheral_32MX534F064H.a(port_set_pins_digital_in_lib.o)
 .debug_aranges
                0x00000730       0x20 f:/program files/microchip/xc32/v1.33/bin/bin/../../lib/gcc/pic32mx/4.5.2/../../../../pic32mx/lib/size\libmchp_peripheral_32MX534F064H.a(port_set_pins_digital_out_lib.o)
 .debug_aranges
                0x00000750       0x20 f:/program files/microchip/xc32/v1.33/bin/bin/../../lib/gcc/pic32mx/4.5.2/../../../../pic32mx/lib/size\libmchp_peripheral_32MX534F064H.a(I2CAcknowledgeByte.o)
 .debug_aranges
                0x00000770       0x20 f:/program files/microchip/xc32/v1.33/bin/bin/../../lib/gcc/pic32mx/4.5.2/../../../../pic32mx/lib/size\libmchp_peripheral_32MX534F064H.a(I2CByteWasAcknowledged.o)
 .debug_aranges
                0x00000790       0x20 f:/program files/microchip/xc32/v1.33/bin/bin/../../lib/gcc/pic32mx/4.5.2/../../../../pic32mx/lib/size\libmchp_peripheral_32MX534F064H.a(I2CEnable.o)
 .debug_aranges
                0x000007b0       0x20 f:/program files/microchip/xc32/v1.33/bin/bin/../../lib/gcc/pic32mx/4.5.2/../../../../pic32mx/lib/size\libmchp_peripheral_32MX534F064H.a(I2CGetByte.o)
 .debug_aranges
                0x000007d0       0x20 f:/program files/microchip/xc32/v1.33/bin/bin/../../lib/gcc/pic32mx/4.5.2/../../../../pic32mx/lib/size\libmchp_peripheral_32MX534F064H.a(I2CReceiverEnable.o)
 .debug_aranges
                0x000007f0       0x20 f:/program files/microchip/xc32/v1.33/bin/bin/../../lib/gcc/pic32mx/4.5.2/../../../../pic32mx/lib/size\libmchp_peripheral_32MX534F064H.a(I2CSendByte.o)
 .debug_aranges
                0x00000810       0x20 f:/program files/microchip/xc32/v1.33/bin/bin/../../lib/gcc/pic32mx/4.5.2/../../../../pic32mx/lib/size\libmchp_peripheral_32MX534F064H.a(I2CSetFrequency.o)
 .debug_aranges
                0x00000830       0x20 f:/program files/microchip/xc32/v1.33/bin/bin/../../lib/gcc/pic32mx/4.5.2/../../../../pic32mx/lib/size\libmchp_peripheral_32MX534F064H.a(I2CStart.o)
 .debug_aranges
                0x00000850       0x20 f:/program files/microchip/xc32/v1.33/bin/bin/../../lib/gcc/pic32mx/4.5.2/../../../../pic32mx/lib/size\libmchp_peripheral_32MX534F064H.a(I2CStop.o)
 .debug_aranges
                0x00000870       0x20 f:/program files/microchip/xc32/v1.33/bin/bin/../../lib/gcc/pic32mx/4.5.2/size\libgcc.a(_ashldi3.o)
 .debug_aranges
                0x00000890       0x20 f:/program files/microchip/xc32/v1.33/bin/bin/../../lib/gcc/pic32mx/4.5.2/../../../../pic32mx/lib/size\libpic32.a(default-bootstrap-exception-handler.o)
 .debug_aranges
                0x000008b0       0x20 f:/program files/microchip/xc32/v1.33/bin/bin/../../lib/gcc/pic32mx/4.5.2/../../../../pic32mx/lib/size\libpic32.a(default-on-reset.o)
 .debug_aranges
                0x000008d0       0x20 f:/program files/microchip/xc32/v1.33/bin/bin/../../lib/gcc/pic32mx/4.5.2/../../../../pic32mx/lib/size\libpic32.a(default-on-bootstrap.o)
 .debug_aranges
                0x000008f0       0x20 f:/program files/microchip/xc32/v1.33/bin/bin/../../lib/gcc/pic32mx/4.5.2/../../../../pic32mx/lib/size\libpic32.a(default-general-exception-handler.o)
 .debug_aranges
                0x00000910       0x20 f:/program files/microchip/xc32/v1.33/bin/bin/../../lib/gcc/pic32mx/4.5.2/../../../../pic32mx/lib/size\libpic32.a(defaultinterrupt.o)

.debug_pubnames
                0x00000000     0x14c0
 *(.debug_pubnames)
 .debug_pubnames
                0x00000000       0x81 build/PIC32_Standalone/production/usb/usb_descriptors.o
 .debug_pubnames
                0x00000081      0x312 build/PIC32_Standalone/production/usb/usb_device.o
 .debug_pubnames
                0x00000393      0x134 build/PIC32_Standalone/production/usb/usb_driver.o
 .debug_pubnames
                0x000004c7       0x4b build/PIC32_Standalone/production/usb/usb_function_hid.o
 .debug_pubnames
                0x00000512       0xd7 build/PIC32_Standalone/production/main.o
 .debug_pubnames
                0x000005e9      0x224 build/PIC32_Standalone/production/isr.o
 .debug_pubnames
                0x0000080d       0x88 build/PIC32_Standalone/production/iron.o
 .debug_pubnames
                0x00000895       0x5f build/PIC32_Standalone/production/PID.o
 .debug_pubnames
                0x000008f4       0x45 build/PIC32_Standalone/production/io.o
 .debug_pubnames
                0x00000939       0x70 build/PIC32_Standalone/production/menu.o
 .debug_pubnames
                0x000009a9      0x1eb build/PIC32_Standalone/production/PIC32MX534F064H.o
 .debug_pubnames
                0x00000b94       0x3b build/PIC32_Standalone/production/EEP.o
 .debug_pubnames
                0x00000bcf      0x18a build/PIC32_Standalone/production/OLED.o
 .debug_pubnames
                0x00000d59       0xb6 build/PIC32_Standalone/production/pars.o
 .debug_pubnames
                0x00000e0f       0x24 f:/program files/microchip/xc32/v1.33/bin/bin/../../lib/gcc/pic32mx/4.5.2/../../../../pic32mx/lib/size\libmchp_peripheral.a(open_core_timer_lib.o)
 .debug_pubnames
                0x00000e33       0x24 f:/program files/microchip/xc32/v1.33/bin/bin/../../lib/gcc/pic32mx/4.5.2/../../../../pic32mx/lib/size\libmchp_peripheral.a(read_core_timer_lib.o)
 .debug_pubnames
                0x00000e57       0x20 f:/program files/microchip/xc32/v1.33/bin/bin/../../lib/gcc/pic32mx/4.5.2/../../../../pic32mx/lib/size\libmchp_peripheral_32MX534F064H.a(soft_reset_lib.o)
 .debug_pubnames
                0x00000e77       0x2a f:/program files/microchip/xc32/v1.33/bin/bin/../../lib/gcc/pic32mx/4.5.2/../../../../pic32mx/lib/size\libmchp_peripheral_32MX534F064H.a(int_enable_interrupts_lib.o)
 .debug_pubnames
                0x00000ea1       0x2b f:/program files/microchip/xc32/v1.33/bin/bin/../../lib/gcc/pic32mx/4.5.2/../../../../pic32mx/lib/size\libmchp_peripheral_32MX534F064H.a(int_disable_interrupts_lib.o)
 .debug_pubnames
                0x00000ecc       0x2b f:/program files/microchip/xc32/v1.33/bin/bin/../../lib/gcc/pic32mx/4.5.2/../../../../pic32mx/lib/size\libmchp_peripheral_32MX534F064H.a(int_restore_interrupts_lib.o)
 .debug_pubnames
                0x00000ef7       0x36 f:/program files/microchip/xc32/v1.33/bin/bin/../../lib/gcc/pic32mx/4.5.2/../../../../pic32mx/lib/size\libmchp_peripheral_32MX534F064H.a(int_enable_mv_int_lib.o)
 .debug_pubnames
                0x00000f2d       0xca f:/program files/microchip/xc32/v1.33/bin/bin/../../lib/gcc/pic32mx/4.5.2/../../../../pic32mx/lib/size\libmchp_peripheral_32MX534F064H.a(int_tbl_lib.o)
 .debug_pubnames
                0x00000ff7       0x22 f:/program files/microchip/xc32/v1.33/bin/bin/../../lib/gcc/pic32mx/4.5.2/../../../../pic32mx/lib/size\libmchp_peripheral_32MX534F064H.a(spi_chn_close_lib.o)
 .debug_pubnames
                0x00001019       0x21 f:/program files/microchip/xc32/v1.33/bin/bin/../../lib/gcc/pic32mx/4.5.2/../../../../pic32mx/lib/size\libmchp_peripheral_32MX534F064H.a(spi_chn_open_lib.o)
 .debug_pubnames
                0x0000103a       0x43 f:/program files/microchip/xc32/v1.33/bin/bin/../../lib/gcc/pic32mx/4.5.2/../../../../pic32mx/lib/size\libmchp_peripheral_32MX534F064H.a(spi_chn_putc_lib.o)
 .debug_pubnames
                0x0000107d       0x21 f:/program files/microchip/xc32/v1.33/bin/bin/../../lib/gcc/pic32mx/4.5.2/../../../../pic32mx/lib/size\libmchp_peripheral_32MX534F064H.a(spi_chn_puts_lib.o)
 .debug_pubnames
                0x0000109e       0x37 f:/program files/microchip/xc32/v1.33/bin/bin/../../lib/gcc/pic32mx/4.5.2/../../../../pic32mx/lib/size\libmchp_peripheral_32MX534F064H.a(spi_chn_is_busy_lib.o)
 .debug_pubnames
                0x000010d5       0x27 f:/program files/microchip/xc32/v1.33/bin/bin/../../lib/gcc/pic32mx/4.5.2/../../../../pic32mx/lib/size\libmchp_peripheral_32MX534F064H.a(dma_chn_abort_txfer_lib.o)
 .debug_pubnames
                0x000010fc       0x21 f:/program files/microchip/xc32/v1.33/bin/bin/../../lib/gcc/pic32mx/4.5.2/../../../../pic32mx/lib/size\libmchp_peripheral_32MX534F064H.a(dma_chn_open_lib.o)
 .debug_pubnames
                0x0000111d       0x24 f:/program files/microchip/xc32/v1.33/bin/bin/../../lib/gcc/pic32mx/4.5.2/../../../../pic32mx/lib/size\libmchp_peripheral_32MX534F064H.a(dma_chn_disable_lib.o)
 .debug_pubnames
                0x00001141       0x23 f:/program files/microchip/xc32/v1.33/bin/bin/../../lib/gcc/pic32mx/4.5.2/../../../../pic32mx/lib/size\libmchp_peripheral_32MX534F064H.a(dma_chn_enable_lib.o)
 .debug_pubnames
                0x00001164       0x26 f:/program files/microchip/xc32/v1.33/bin/bin/../../lib/gcc/pic32mx/4.5.2/../../../../pic32mx/lib/size\libmchp_peripheral_32MX534F064H.a(dma_chn_get_dst_pnt_lib.o)
 .debug_pubnames
                0x0000118a       0x33 f:/program files/microchip/xc32/v1.33/bin/bin/../../lib/gcc/pic32mx/4.5.2/../../../../pic32mx/lib/size\libmchp_peripheral_32MX534F064H.a(dma_chn_write_event_control_flags_lib.o)
 .debug_pubnames
                0x000011bd       0x25 f:/program files/microchip/xc32/v1.33/bin/bin/../../lib/gcc/pic32mx/4.5.2/../../../../pic32mx/lib/size\libmchp_peripheral_32MX534F064H.a(dma_chn_set_txfer_lib.o)
 .debug_pubnames
                0x000011e2       0x2f f:/program files/microchip/xc32/v1.33/bin/bin/../../lib/gcc/pic32mx/4.5.2/../../../../pic32mx/lib/size\libmchp_peripheral_32MX534F064H.a(dma_chn_write_ev_enable_flags_lib.o)
 .debug_pubnames
                0x00001211       0x24 f:/program files/microchip/xc32/v1.33/bin/bin/../../lib/gcc/pic32mx/4.5.2/../../../../pic32mx/lib/size\libmchp_peripheral_32MX534F064H.a(port_reset_pins_lib.o)
 .debug_pubnames
                0x00001235       0x2b f:/program files/microchip/xc32/v1.33/bin/bin/../../lib/gcc/pic32mx/4.5.2/../../../../pic32mx/lib/size\libmchp_peripheral_32MX534F064H.a(port_set_pins_digital_in_lib.o)
 .debug_pubnames
                0x00001260       0x2c f:/program files/microchip/xc32/v1.33/bin/bin/../../lib/gcc/pic32mx/4.5.2/../../../../pic32mx/lib/size\libmchp_peripheral_32MX534F064H.a(port_set_pins_digital_out_lib.o)
 .debug_pubnames
                0x0000128c       0x29 f:/program files/microchip/xc32/v1.33/bin/bin/../../lib/gcc/pic32mx/4.5.2/../../../../pic32mx/lib/size\libmchp_peripheral_32MX534F064H.a(I2CAcknowledgeByte.o)
 .debug_pubnames
                0x000012b5       0x2d f:/program files/microchip/xc32/v1.33/bin/bin/../../lib/gcc/pic32mx/4.5.2/../../../../pic32mx/lib/size\libmchp_peripheral_32MX534F064H.a(I2CByteWasAcknowledged.o)
 .debug_pubnames
                0x000012e2       0x20 f:/program files/microchip/xc32/v1.33/bin/bin/../../lib/gcc/pic32mx/4.5.2/../../../../pic32mx/lib/size\libmchp_peripheral_32MX534F064H.a(I2CEnable.o)
 .debug_pubnames
                0x00001302       0x21 f:/program files/microchip/xc32/v1.33/bin/bin/../../lib/gcc/pic32mx/4.5.2/../../../../pic32mx/lib/size\libmchp_peripheral_32MX534F064H.a(I2CGetByte.o)
 .debug_pubnames
                0x00001323       0x28 f:/program files/microchip/xc32/v1.33/bin/bin/../../lib/gcc/pic32mx/4.5.2/../../../../pic32mx/lib/size\libmchp_peripheral_32MX534F064H.a(I2CReceiverEnable.o)
 .debug_pubnames
                0x0000134b       0x22 f:/program files/microchip/xc32/v1.33/bin/bin/../../lib/gcc/pic32mx/4.5.2/../../../../pic32mx/lib/size\libmchp_peripheral_32MX534F064H.a(I2CSendByte.o)
 .debug_pubnames
                0x0000136d       0x26 f:/program files/microchip/xc32/v1.33/bin/bin/../../lib/gcc/pic32mx/4.5.2/../../../../pic32mx/lib/size\libmchp_peripheral_32MX534F064H.a(I2CSetFrequency.o)
 .debug_pubnames
                0x00001393       0x1f f:/program files/microchip/xc32/v1.33/bin/bin/../../lib/gcc/pic32mx/4.5.2/../../../../pic32mx/lib/size\libmchp_peripheral_32MX534F064H.a(I2CStart.o)
 .debug_pubnames
                0x000013b2       0x1e f:/program files/microchip/xc32/v1.33/bin/bin/../../lib/gcc/pic32mx/4.5.2/../../../../pic32mx/lib/size\libmchp_peripheral_32MX534F064H.a(I2CStop.o)
 .debug_pubnames
                0x000013d0       0x20 f:/program files/microchip/xc32/v1.33/bin/bin/../../lib/gcc/pic32mx/4.5.2/size\libgcc.a(_ashldi3.o)
 .debug_pubnames
                0x000013f0       0x33 f:/program files/microchip/xc32/v1.33/bin/bin/../../lib/gcc/pic32mx/4.5.2/../../../../pic32mx/lib/size\libpic32.a(default-bootstrap-exception-handler.o)
 .debug_pubnames
                0x00001423       0x20 f:/program files/microchip/xc32/v1.33/bin/bin/../../lib/gcc/pic32mx/4.5.2/../../../../pic32mx/lib/size\libpic32.a(default-on-reset.o)
 .debug_pubnames
                0x00001443       0x24 f:/program files/microchip/xc32/v1.33/bin/bin/../../lib/gcc/pic32mx/4.5.2/../../../../pic32mx/lib/size\libpic32.a(default-on-bootstrap.o)
 .debug_pubnames
                0x00001467       0x31 f:/program files/microchip/xc32/v1.33/bin/bin/../../lib/gcc/pic32mx/4.5.2/../../../../pic32mx/lib/size\libpic32.a(default-general-exception-handler.o)
 .debug_pubnames
                0x00001498       0x28 f:/program files/microchip/xc32/v1.33/bin/bin/../../lib/gcc/pic32mx/4.5.2/../../../../pic32mx/lib/size\libpic32.a(defaultinterrupt.o)

.debug_info     0x00000000    0x1df7a
 *(.debug_info .gnu.linkonce.wi.*)
 .debug_info    0x00000000     0x15fe build/PIC32_Standalone/production/usb/usb_descriptors.o
 .debug_info    0x000015fe     0x39ca build/PIC32_Standalone/production/usb/usb_device.o
 .debug_info    0x00004fc8     0x17d2 build/PIC32_Standalone/production/usb/usb_driver.o
 .debug_info    0x0000679a     0x1a8e build/PIC32_Standalone/production/usb/usb_function_hid.o
 .debug_info    0x00008228      0xf2d build/PIC32_Standalone/production/usb/usb_hal_pic24.o
 .debug_info    0x00009155     0x3028 build/PIC32_Standalone/production/main.o
 .debug_info    0x0000c17d     0x26d4 build/PIC32_Standalone/production/isr.o
 .debug_info    0x0000e851     0x1813 build/PIC32_Standalone/production/iron.o
 .debug_info    0x00010064     0x10a2 build/PIC32_Standalone/production/PID.o
 .debug_info    0x00011106     0x2265 build/PIC32_Standalone/production/io.o
 .debug_info    0x0001336b     0x29c1 build/PIC32_Standalone/production/menu.o
 .debug_info    0x00015d2c     0x3b52 build/PIC32_Standalone/production/PIC32MX534F064H.o
 .debug_info    0x0001987e      0x733 build/PIC32_Standalone/production/EEP.o
 .debug_info    0x00019fb1     0x1a77 build/PIC32_Standalone/production/OLED.o
 .debug_info    0x0001ba28      0x6e9 build/PIC32_Standalone/production/pars.o
 .debug_info    0x0001c111       0xa6 f:/program files/microchip/xc32/v1.33/bin/bin/../../lib/gcc/pic32mx/4.5.2/../../../../pic32mx/lib/size\libmchp_peripheral.a(open_core_timer_lib.o)
 .debug_info    0x0001c1b7       0xa6 f:/program files/microchip/xc32/v1.33/bin/bin/../../lib/gcc/pic32mx/4.5.2/../../../../pic32mx/lib/size\libmchp_peripheral.a(read_core_timer_lib.o)
 .debug_info    0x0001c25d       0xae f:/program files/microchip/xc32/v1.33/bin/bin/../../lib/gcc/pic32mx/4.5.2/../../../../pic32mx/lib/size\libmchp_peripheral_32MX534F064H.a(soft_reset_lib.o)
 .debug_info    0x0001c30b       0xb0 f:/program files/microchip/xc32/v1.33/bin/bin/../../lib/gcc/pic32mx/4.5.2/../../../../pic32mx/lib/size\libmchp_peripheral_32MX534F064H.a(int_enable_interrupts_lib.o)
 .debug_info    0x0001c3bb       0xb2 f:/program files/microchip/xc32/v1.33/bin/bin/../../lib/gcc/pic32mx/4.5.2/../../../../pic32mx/lib/size\libmchp_peripheral_32MX534F064H.a(int_disable_interrupts_lib.o)
 .debug_info    0x0001c46d       0xb2 f:/program files/microchip/xc32/v1.33/bin/bin/../../lib/gcc/pic32mx/4.5.2/../../../../pic32mx/lib/size\libmchp_peripheral_32MX534F064H.a(int_restore_interrupts_lib.o)
 .debug_info    0x0001c51f       0xb8 f:/program files/microchip/xc32/v1.33/bin/bin/../../lib/gcc/pic32mx/4.5.2/../../../../pic32mx/lib/size\libmchp_peripheral_32MX534F064H.a(int_enable_mv_int_lib.o)
 .debug_info    0x0001c5d7      0x192 f:/program files/microchip/xc32/v1.33/bin/bin/../../lib/gcc/pic32mx/4.5.2/../../../../pic32mx/lib/size\libmchp_peripheral_32MX534F064H.a(int_tbl_lib.o)
 .debug_info    0x0001c769       0xa0 f:/program files/microchip/xc32/v1.33/bin/bin/../../lib/gcc/pic32mx/4.5.2/../../../../pic32mx/lib/size\libmchp_peripheral_32MX534F064H.a(spi_chn_close_lib.o)
 .debug_info    0x0001c809       0x9e f:/program files/microchip/xc32/v1.33/bin/bin/../../lib/gcc/pic32mx/4.5.2/../../../../pic32mx/lib/size\libmchp_peripheral_32MX534F064H.a(spi_chn_open_lib.o)
 .debug_info    0x0001c8a7       0xe7 f:/program files/microchip/xc32/v1.33/bin/bin/../../lib/gcc/pic32mx/4.5.2/../../../../pic32mx/lib/size\libmchp_peripheral_32MX534F064H.a(spi_chn_putc_lib.o)
 .debug_info    0x0001c98e       0xb1 f:/program files/microchip/xc32/v1.33/bin/bin/../../lib/gcc/pic32mx/4.5.2/../../../../pic32mx/lib/size\libmchp_peripheral_32MX534F064H.a(spi_chn_puts_lib.o)
 .debug_info    0x0001ca3f       0xc1 f:/program files/microchip/xc32/v1.33/bin/bin/../../lib/gcc/pic32mx/4.5.2/../../../../pic32mx/lib/size\libmchp_peripheral_32MX534F064H.a(spi_chn_is_busy_lib.o)
 .debug_info    0x0001cb00        0x0 f:/program files/microchip/xc32/v1.33/bin/bin/../../lib/gcc/pic32mx/4.5.2/../../../../pic32mx/lib/size\libmchp_peripheral_32MX534F064H.a(spi_io_tbl_libp.o)
 .debug_info    0x0001cb00        0x0 f:/program files/microchip/xc32/v1.33/bin/bin/../../lib/gcc/pic32mx/4.5.2/../../../../pic32mx/lib/size\libmchp_peripheral_32MX534F064H.a(spi_map_tbl_libp.o)
 .debug_info    0x0001cb00       0xab f:/program files/microchip/xc32/v1.33/bin/bin/../../lib/gcc/pic32mx/4.5.2/../../../../pic32mx/lib/size\libmchp_peripheral_32MX534F064H.a(dma_chn_abort_txfer_lib.o)
 .debug_info    0x0001cbab       0xb1 f:/program files/microchip/xc32/v1.33/bin/bin/../../lib/gcc/pic32mx/4.5.2/../../../../pic32mx/lib/size\libmchp_peripheral_32MX534F064H.a(dma_chn_open_lib.o)
 .debug_info    0x0001cc5c       0xa4 f:/program files/microchip/xc32/v1.33/bin/bin/../../lib/gcc/pic32mx/4.5.2/../../../../pic32mx/lib/size\libmchp_peripheral_32MX534F064H.a(dma_chn_disable_lib.o)
 .debug_info    0x0001cd00       0xa2 f:/program files/microchip/xc32/v1.33/bin/bin/../../lib/gcc/pic32mx/4.5.2/../../../../pic32mx/lib/size\libmchp_peripheral_32MX534F064H.a(dma_chn_enable_lib.o)
 .debug_info    0x0001cda2       0xaa f:/program files/microchip/xc32/v1.33/bin/bin/../../lib/gcc/pic32mx/4.5.2/../../../../pic32mx/lib/size\libmchp_peripheral_32MX534F064H.a(dma_chn_get_dst_pnt_lib.o)
 .debug_info    0x0001ce4c       0xc5 f:/program files/microchip/xc32/v1.33/bin/bin/../../lib/gcc/pic32mx/4.5.2/../../../../pic32mx/lib/size\libmchp_peripheral_32MX534F064H.a(dma_chn_write_event_control_flags_lib.o)
 .debug_info    0x0001cf11       0xb8 f:/program files/microchip/xc32/v1.33/bin/bin/../../lib/gcc/pic32mx/4.5.2/../../../../pic32mx/lib/size\libmchp_peripheral_32MX534F064H.a(dma_chn_set_txfer_lib.o)
 .debug_info    0x0001cfc9       0xbd f:/program files/microchip/xc32/v1.33/bin/bin/../../lib/gcc/pic32mx/4.5.2/../../../../pic32mx/lib/size\libmchp_peripheral_32MX534F064H.a(dma_chn_write_ev_enable_flags_lib.o)
 .debug_info    0x0001d086        0x0 f:/program files/microchip/xc32/v1.33/bin/bin/../../lib/gcc/pic32mx/4.5.2/../../../../pic32mx/lib/size\libmchp_peripheral_32MX534F064H.a(dma_reg_map_tbl_lib.o)
 .debug_info    0x0001d086       0xa6 f:/program files/microchip/xc32/v1.33/bin/bin/../../lib/gcc/pic32mx/4.5.2/../../../../pic32mx/lib/size\libmchp_peripheral_32MX534F064H.a(port_reset_pins_lib.o)
 .debug_info    0x0001d12c       0xb6 f:/program files/microchip/xc32/v1.33/bin/bin/../../lib/gcc/pic32mx/4.5.2/../../../../pic32mx/lib/size\libmchp_peripheral_32MX534F064H.a(port_set_pins_digital_in_lib.o)
 .debug_info    0x0001d1e2       0xb8 f:/program files/microchip/xc32/v1.33/bin/bin/../../lib/gcc/pic32mx/4.5.2/../../../../pic32mx/lib/size\libmchp_peripheral_32MX534F064H.a(port_set_pins_digital_out_lib.o)
 .debug_info    0x0001d29a        0x0 f:/program files/microchip/xc32/v1.33/bin/bin/../../lib/gcc/pic32mx/4.5.2/../../../../pic32mx/lib/size\libmchp_peripheral_32MX534F064H.a(_ports_tbl_libp.o)
 .debug_info    0x0001d29a       0xa8 f:/program files/microchip/xc32/v1.33/bin/bin/../../lib/gcc/pic32mx/4.5.2/../../../../pic32mx/lib/size\libmchp_peripheral_32MX534F064H.a(I2CAcknowledgeByte.o)
 .debug_info    0x0001d342       0xb0 f:/program files/microchip/xc32/v1.33/bin/bin/../../lib/gcc/pic32mx/4.5.2/../../../../pic32mx/lib/size\libmchp_peripheral_32MX534F064H.a(I2CByteWasAcknowledged.o)
 .debug_info    0x0001d3f2       0x96 f:/program files/microchip/xc32/v1.33/bin/bin/../../lib/gcc/pic32mx/4.5.2/../../../../pic32mx/lib/size\libmchp_peripheral_32MX534F064H.a(I2CEnable.o)
 .debug_info    0x0001d488       0x98 f:/program files/microchip/xc32/v1.33/bin/bin/../../lib/gcc/pic32mx/4.5.2/../../../../pic32mx/lib/size\libmchp_peripheral_32MX534F064H.a(I2CGetByte.o)
 .debug_info    0x0001d520       0xa6 f:/program files/microchip/xc32/v1.33/bin/bin/../../lib/gcc/pic32mx/4.5.2/../../../../pic32mx/lib/size\libmchp_peripheral_32MX534F064H.a(I2CReceiverEnable.o)
 .debug_info    0x0001d5c6       0x9a f:/program files/microchip/xc32/v1.33/bin/bin/../../lib/gcc/pic32mx/4.5.2/../../../../pic32mx/lib/size\libmchp_peripheral_32MX534F064H.a(I2CSendByte.o)
 .debug_info    0x0001d660       0xa2 f:/program files/microchip/xc32/v1.33/bin/bin/../../lib/gcc/pic32mx/4.5.2/../../../../pic32mx/lib/size\libmchp_peripheral_32MX534F064H.a(I2CSetFrequency.o)
 .debug_info    0x0001d702       0x94 f:/program files/microchip/xc32/v1.33/bin/bin/../../lib/gcc/pic32mx/4.5.2/../../../../pic32mx/lib/size\libmchp_peripheral_32MX534F064H.a(I2CStart.o)
 .debug_info    0x0001d796       0x92 f:/program files/microchip/xc32/v1.33/bin/bin/../../lib/gcc/pic32mx/4.5.2/../../../../pic32mx/lib/size\libmchp_peripheral_32MX534F064H.a(I2CStop.o)
 .debug_info    0x0001d828        0x0 f:/program files/microchip/xc32/v1.33/bin/bin/../../lib/gcc/pic32mx/4.5.2/../../../../pic32mx/lib/size\libmchp_peripheral_32MX534F064H.a(I2CPrivate.o)
 .debug_info    0x0001d828      0x33c f:/program files/microchip/xc32/v1.33/bin/bin/../../lib/gcc/pic32mx/4.5.2/size\libgcc.a(_ashldi3.o)
 .debug_info    0x0001db64       0xe2 f:/program files/microchip/xc32/v1.33/bin/bin/../../lib/gcc/pic32mx/4.5.2/../../../../pic32mx/lib/size\libpic32.a(default-bootstrap-exception-handler.o)
 .debug_info    0x0001dc46       0xbc f:/program files/microchip/xc32/v1.33/bin/bin/../../lib/gcc/pic32mx/4.5.2/../../../../pic32mx/lib/size\libpic32.a(default-on-reset.o)
 .debug_info    0x0001dd02       0xc4 f:/program files/microchip/xc32/v1.33/bin/bin/../../lib/gcc/pic32mx/4.5.2/../../../../pic32mx/lib/size\libpic32.a(default-on-bootstrap.o)
 .debug_info    0x0001ddc6       0xde f:/program files/microchip/xc32/v1.33/bin/bin/../../lib/gcc/pic32mx/4.5.2/../../../../pic32mx/lib/size\libpic32.a(default-general-exception-handler.o)
 .debug_info    0x0001dea4       0xd6 f:/program files/microchip/xc32/v1.33/bin/bin/../../lib/gcc/pic32mx/4.5.2/../../../../pic32mx/lib/size\libpic32.a(defaultinterrupt.o)

.debug_abbrev   0x00000000     0x2850
 *(.debug_abbrev)
 .debug_abbrev  0x00000000      0x1d6 build/PIC32_Standalone/production/usb/usb_descriptors.o
 .debug_abbrev  0x000001d6      0x365 build/PIC32_Standalone/production/usb/usb_device.o
 .debug_abbrev  0x0000053b      0x24b build/PIC32_Standalone/production/usb/usb_driver.o
 .debug_abbrev  0x00000786      0x1e5 build/PIC32_Standalone/production/usb/usb_function_hid.o
 .debug_abbrev  0x0000096b      0x166 build/PIC32_Standalone/production/usb/usb_hal_pic24.o
 .debug_abbrev  0x00000ad1      0x23e build/PIC32_Standalone/production/main.o
 .debug_abbrev  0x00000d0f      0x297 build/PIC32_Standalone/production/isr.o
 .debug_abbrev  0x00000fa6      0x247 build/PIC32_Standalone/production/iron.o
 .debug_abbrev  0x000011ed      0x212 build/PIC32_Standalone/production/PID.o
 .debug_abbrev  0x000013ff      0x25e build/PIC32_Standalone/production/io.o
 .debug_abbrev  0x0000165d      0x295 build/PIC32_Standalone/production/menu.o
 .debug_abbrev  0x000018f2      0x392 build/PIC32_Standalone/production/PIC32MX534F064H.o
 .debug_abbrev  0x00001c84      0x177 build/PIC32_Standalone/production/EEP.o
 .debug_abbrev  0x00001dfb      0x2c2 build/PIC32_Standalone/production/OLED.o
 .debug_abbrev  0x000020bd      0x124 build/PIC32_Standalone/production/pars.o
 .debug_abbrev  0x000021e1       0x23 f:/program files/microchip/xc32/v1.33/bin/bin/../../lib/gcc/pic32mx/4.5.2/../../../../pic32mx/lib/size\libmchp_peripheral.a(open_core_timer_lib.o)
 .debug_abbrev  0x00002204       0x23 f:/program files/microchip/xc32/v1.33/bin/bin/../../lib/gcc/pic32mx/4.5.2/../../../../pic32mx/lib/size\libmchp_peripheral.a(read_core_timer_lib.o)
 .debug_abbrev  0x00002227       0x32 f:/program files/microchip/xc32/v1.33/bin/bin/../../lib/gcc/pic32mx/4.5.2/../../../../pic32mx/lib/size\libmchp_peripheral_32MX534F064H.a(soft_reset_lib.o)
 .debug_abbrev  0x00002259       0x23 f:/program files/microchip/xc32/v1.33/bin/bin/../../lib/gcc/pic32mx/4.5.2/../../../../pic32mx/lib/size\libmchp_peripheral_32MX534F064H.a(int_enable_interrupts_lib.o)
 .debug_abbrev  0x0000227c       0x23 f:/program files/microchip/xc32/v1.33/bin/bin/../../lib/gcc/pic32mx/4.5.2/../../../../pic32mx/lib/size\libmchp_peripheral_32MX534F064H.a(int_disable_interrupts_lib.o)
 .debug_abbrev  0x0000229f       0x23 f:/program files/microchip/xc32/v1.33/bin/bin/../../lib/gcc/pic32mx/4.5.2/../../../../pic32mx/lib/size\libmchp_peripheral_32MX534F064H.a(int_restore_interrupts_lib.o)
 .debug_abbrev  0x000022c2       0x23 f:/program files/microchip/xc32/v1.33/bin/bin/../../lib/gcc/pic32mx/4.5.2/../../../../pic32mx/lib/size\libmchp_peripheral_32MX534F064H.a(int_enable_mv_int_lib.o)
 .debug_abbrev  0x000022e5       0x23 f:/program files/microchip/xc32/v1.33/bin/bin/../../lib/gcc/pic32mx/4.5.2/../../../../pic32mx/lib/size\libmchp_peripheral_32MX534F064H.a(int_tbl_lib.o)
 .debug_abbrev  0x00002308       0x23 f:/program files/microchip/xc32/v1.33/bin/bin/../../lib/gcc/pic32mx/4.5.2/../../../../pic32mx/lib/size\libmchp_peripheral_32MX534F064H.a(spi_chn_close_lib.o)
 .debug_abbrev  0x0000232b       0x23 f:/program files/microchip/xc32/v1.33/bin/bin/../../lib/gcc/pic32mx/4.5.2/../../../../pic32mx/lib/size\libmchp_peripheral_32MX534F064H.a(spi_chn_open_lib.o)
 .debug_abbrev  0x0000234e       0x32 f:/program files/microchip/xc32/v1.33/bin/bin/../../lib/gcc/pic32mx/4.5.2/../../../../pic32mx/lib/size\libmchp_peripheral_32MX534F064H.a(spi_chn_putc_lib.o)
 .debug_abbrev  0x00002380       0x32 f:/program files/microchip/xc32/v1.33/bin/bin/../../lib/gcc/pic32mx/4.5.2/../../../../pic32mx/lib/size\libmchp_peripheral_32MX534F064H.a(spi_chn_puts_lib.o)
 .debug_abbrev  0x000023b2       0x23 f:/program files/microchip/xc32/v1.33/bin/bin/../../lib/gcc/pic32mx/4.5.2/../../../../pic32mx/lib/size\libmchp_peripheral_32MX534F064H.a(spi_chn_is_busy_lib.o)
 .debug_abbrev  0x000023d5        0x1 f:/program files/microchip/xc32/v1.33/bin/bin/../../lib/gcc/pic32mx/4.5.2/../../../../pic32mx/lib/size\libmchp_peripheral_32MX534F064H.a(spi_io_tbl_libp.o)
 .debug_abbrev  0x000023d6        0x1 f:/program files/microchip/xc32/v1.33/bin/bin/../../lib/gcc/pic32mx/4.5.2/../../../../pic32mx/lib/size\libmchp_peripheral_32MX534F064H.a(spi_map_tbl_libp.o)
 .debug_abbrev  0x000023d7       0x23 f:/program files/microchip/xc32/v1.33/bin/bin/../../lib/gcc/pic32mx/4.5.2/../../../../pic32mx/lib/size\libmchp_peripheral_32MX534F064H.a(dma_chn_abort_txfer_lib.o)
 .debug_abbrev  0x000023fa       0x32 f:/program files/microchip/xc32/v1.33/bin/bin/../../lib/gcc/pic32mx/4.5.2/../../../../pic32mx/lib/size\libmchp_peripheral_32MX534F064H.a(dma_chn_open_lib.o)
 .debug_abbrev  0x0000242c       0x23 f:/program files/microchip/xc32/v1.33/bin/bin/../../lib/gcc/pic32mx/4.5.2/../../../../pic32mx/lib/size\libmchp_peripheral_32MX534F064H.a(dma_chn_disable_lib.o)
 .debug_abbrev  0x0000244f       0x23 f:/program files/microchip/xc32/v1.33/bin/bin/../../lib/gcc/pic32mx/4.5.2/../../../../pic32mx/lib/size\libmchp_peripheral_32MX534F064H.a(dma_chn_enable_lib.o)
 .debug_abbrev  0x00002472       0x23 f:/program files/microchip/xc32/v1.33/bin/bin/../../lib/gcc/pic32mx/4.5.2/../../../../pic32mx/lib/size\libmchp_peripheral_32MX534F064H.a(dma_chn_get_dst_pnt_lib.o)
 .debug_abbrev  0x00002495       0x23 f:/program files/microchip/xc32/v1.33/bin/bin/../../lib/gcc/pic32mx/4.5.2/../../../../pic32mx/lib/size\libmchp_peripheral_32MX534F064H.a(dma_chn_write_event_control_flags_lib.o)
 .debug_abbrev  0x000024b8       0x32 f:/program files/microchip/xc32/v1.33/bin/bin/../../lib/gcc/pic32mx/4.5.2/../../../../pic32mx/lib/size\libmchp_peripheral_32MX534F064H.a(dma_chn_set_txfer_lib.o)
 .debug_abbrev  0x000024ea       0x23 f:/program files/microchip/xc32/v1.33/bin/bin/../../lib/gcc/pic32mx/4.5.2/../../../../pic32mx/lib/size\libmchp_peripheral_32MX534F064H.a(dma_chn_write_ev_enable_flags_lib.o)
 .debug_abbrev  0x0000250d        0x1 f:/program files/microchip/xc32/v1.33/bin/bin/../../lib/gcc/pic32mx/4.5.2/../../../../pic32mx/lib/size\libmchp_peripheral_32MX534F064H.a(dma_reg_map_tbl_lib.o)
 .debug_abbrev  0x0000250e       0x23 f:/program files/microchip/xc32/v1.33/bin/bin/../../lib/gcc/pic32mx/4.5.2/../../../../pic32mx/lib/size\libmchp_peripheral_32MX534F064H.a(port_reset_pins_lib.o)
 .debug_abbrev  0x00002531       0x23 f:/program files/microchip/xc32/v1.33/bin/bin/../../lib/gcc/pic32mx/4.5.2/../../../../pic32mx/lib/size\libmchp_peripheral_32MX534F064H.a(port_set_pins_digital_in_lib.o)
 .debug_abbrev  0x00002554       0x23 f:/program files/microchip/xc32/v1.33/bin/bin/../../lib/gcc/pic32mx/4.5.2/../../../../pic32mx/lib/size\libmchp_peripheral_32MX534F064H.a(port_set_pins_digital_out_lib.o)
 .debug_abbrev  0x00002577        0x1 f:/program files/microchip/xc32/v1.33/bin/bin/../../lib/gcc/pic32mx/4.5.2/../../../../pic32mx/lib/size\libmchp_peripheral_32MX534F064H.a(_ports_tbl_libp.o)
 .debug_abbrev  0x00002578       0x23 f:/program files/microchip/xc32/v1.33/bin/bin/../../lib/gcc/pic32mx/4.5.2/../../../../pic32mx/lib/size\libmchp_peripheral_32MX534F064H.a(I2CAcknowledgeByte.o)
 .debug_abbrev  0x0000259b       0x23 f:/program files/microchip/xc32/v1.33/bin/bin/../../lib/gcc/pic32mx/4.5.2/../../../../pic32mx/lib/size\libmchp_peripheral_32MX534F064H.a(I2CByteWasAcknowledged.o)
 .debug_abbrev  0x000025be       0x23 f:/program files/microchip/xc32/v1.33/bin/bin/../../lib/gcc/pic32mx/4.5.2/../../../../pic32mx/lib/size\libmchp_peripheral_32MX534F064H.a(I2CEnable.o)
 .debug_abbrev  0x000025e1       0x23 f:/program files/microchip/xc32/v1.33/bin/bin/../../lib/gcc/pic32mx/4.5.2/../../../../pic32mx/lib/size\libmchp_peripheral_32MX534F064H.a(I2CGetByte.o)
 .debug_abbrev  0x00002604       0x23 f:/program files/microchip/xc32/v1.33/bin/bin/../../lib/gcc/pic32mx/4.5.2/../../../../pic32mx/lib/size\libmchp_peripheral_32MX534F064H.a(I2CReceiverEnable.o)
 .debug_abbrev  0x00002627       0x23 f:/program files/microchip/xc32/v1.33/bin/bin/../../lib/gcc/pic32mx/4.5.2/../../../../pic32mx/lib/size\libmchp_peripheral_32MX534F064H.a(I2CSendByte.o)
 .debug_abbrev  0x0000264a       0x23 f:/program files/microchip/xc32/v1.33/bin/bin/../../lib/gcc/pic32mx/4.5.2/../../../../pic32mx/lib/size\libmchp_peripheral_32MX534F064H.a(I2CSetFrequency.o)
 .debug_abbrev  0x0000266d       0x23 f:/program files/microchip/xc32/v1.33/bin/bin/../../lib/gcc/pic32mx/4.5.2/../../../../pic32mx/lib/size\libmchp_peripheral_32MX534F064H.a(I2CStart.o)
 .debug_abbrev  0x00002690       0x23 f:/program files/microchip/xc32/v1.33/bin/bin/../../lib/gcc/pic32mx/4.5.2/../../../../pic32mx/lib/size\libmchp_peripheral_32MX534F064H.a(I2CStop.o)
 .debug_abbrev  0x000026b3        0x1 f:/program files/microchip/xc32/v1.33/bin/bin/../../lib/gcc/pic32mx/4.5.2/../../../../pic32mx/lib/size\libmchp_peripheral_32MX534F064H.a(I2CPrivate.o)
 .debug_abbrev  0x000026b4       0xe3 f:/program files/microchip/xc32/v1.33/bin/bin/../../lib/gcc/pic32mx/4.5.2/size\libgcc.a(_ashldi3.o)
 .debug_abbrev  0x00002797       0x25 f:/program files/microchip/xc32/v1.33/bin/bin/../../lib/gcc/pic32mx/4.5.2/../../../../pic32mx/lib/size\libpic32.a(default-bootstrap-exception-handler.o)
 .debug_abbrev  0x000027bc       0x25 f:/program files/microchip/xc32/v1.33/bin/bin/../../lib/gcc/pic32mx/4.5.2/../../../../pic32mx/lib/size\libpic32.a(default-on-reset.o)
 .debug_abbrev  0x000027e1       0x25 f:/program files/microchip/xc32/v1.33/bin/bin/../../lib/gcc/pic32mx/4.5.2/../../../../pic32mx/lib/size\libpic32.a(default-on-bootstrap.o)
 .debug_abbrev  0x00002806       0x25 f:/program files/microchip/xc32/v1.33/bin/bin/../../lib/gcc/pic32mx/4.5.2/../../../../pic32mx/lib/size\libpic32.a(default-general-exception-handler.o)
 .debug_abbrev  0x0000282b       0x25 f:/program files/microchip/xc32/v1.33/bin/bin/../../lib/gcc/pic32mx/4.5.2/../../../../pic32mx/lib/size\libpic32.a(defaultinterrupt.o)

.debug_line     0x00000000     0x40ef
 *(.debug_line)
 .debug_line    0x00000000      0x1a3 build/PIC32_Standalone/production/usb/usb_descriptors.o
 .debug_line    0x000001a3      0x62b build/PIC32_Standalone/production/usb/usb_device.o
 .debug_line    0x000007ce      0x25c build/PIC32_Standalone/production/usb/usb_driver.o
 .debug_line    0x00000a2a      0x206 build/PIC32_Standalone/production/usb/usb_function_hid.o
 .debug_line    0x00000c30      0x101 build/PIC32_Standalone/production/usb/usb_hal_pic24.o
 .debug_line    0x00000d31      0x367 build/PIC32_Standalone/production/main.o
 .debug_line    0x00001098      0x48c build/PIC32_Standalone/production/isr.o
 .debug_line    0x00001524      0x1f5 build/PIC32_Standalone/production/iron.o
 .debug_line    0x00001719      0x351 build/PIC32_Standalone/production/PID.o
 .debug_line    0x00001a6a      0x2ed build/PIC32_Standalone/production/io.o
 .debug_line    0x00001d57      0x53a build/PIC32_Standalone/production/menu.o
 .debug_line    0x00002291      0x510 build/PIC32_Standalone/production/PIC32MX534F064H.o
 .debug_line    0x000027a1      0x16f build/PIC32_Standalone/production/EEP.o
 .debug_line    0x00002910      0x423 build/PIC32_Standalone/production/OLED.o
 .debug_line    0x00002d33      0x169 build/PIC32_Standalone/production/pars.o
 .debug_line    0x00002e9c       0x6e f:/program files/microchip/xc32/v1.33/bin/bin/../../lib/gcc/pic32mx/4.5.2/../../../../pic32mx/lib/size\libmchp_peripheral.a(open_core_timer_lib.o)
 .debug_line    0x00002f0a       0x6e f:/program files/microchip/xc32/v1.33/bin/bin/../../lib/gcc/pic32mx/4.5.2/../../../../pic32mx/lib/size\libmchp_peripheral.a(read_core_timer_lib.o)
 .debug_line    0x00002f78       0xb1 f:/program files/microchip/xc32/v1.33/bin/bin/../../lib/gcc/pic32mx/4.5.2/../../../../pic32mx/lib/size\libmchp_peripheral_32MX534F064H.a(soft_reset_lib.o)
 .debug_line    0x00003029       0x72 f:/program files/microchip/xc32/v1.33/bin/bin/../../lib/gcc/pic32mx/4.5.2/../../../../pic32mx/lib/size\libmchp_peripheral_32MX534F064H.a(int_enable_interrupts_lib.o)
 .debug_line    0x0000309b       0x73 f:/program files/microchip/xc32/v1.33/bin/bin/../../lib/gcc/pic32mx/4.5.2/../../../../pic32mx/lib/size\libmchp_peripheral_32MX534F064H.a(int_disable_interrupts_lib.o)
 .debug_line    0x0000310e       0x73 f:/program files/microchip/xc32/v1.33/bin/bin/../../lib/gcc/pic32mx/4.5.2/../../../../pic32mx/lib/size\libmchp_peripheral_32MX534F064H.a(int_restore_interrupts_lib.o)
 .debug_line    0x00003181       0x6e f:/program files/microchip/xc32/v1.33/bin/bin/../../lib/gcc/pic32mx/4.5.2/../../../../pic32mx/lib/size\libmchp_peripheral_32MX534F064H.a(int_enable_mv_int_lib.o)
 .debug_line    0x000031ef       0x64 f:/program files/microchip/xc32/v1.33/bin/bin/../../lib/gcc/pic32mx/4.5.2/../../../../pic32mx/lib/size\libmchp_peripheral_32MX534F064H.a(int_tbl_lib.o)
 .debug_line    0x00003253       0x6a f:/program files/microchip/xc32/v1.33/bin/bin/../../lib/gcc/pic32mx/4.5.2/../../../../pic32mx/lib/size\libmchp_peripheral_32MX534F064H.a(spi_chn_close_lib.o)
 .debug_line    0x000032bd       0x69 f:/program files/microchip/xc32/v1.33/bin/bin/../../lib/gcc/pic32mx/4.5.2/../../../../pic32mx/lib/size\libmchp_peripheral_32MX534F064H.a(spi_chn_open_lib.o)
 .debug_line    0x00003326       0x7b f:/program files/microchip/xc32/v1.33/bin/bin/../../lib/gcc/pic32mx/4.5.2/../../../../pic32mx/lib/size\libmchp_peripheral_32MX534F064H.a(spi_chn_putc_lib.o)
 .debug_line    0x000033a1       0x7b f:/program files/microchip/xc32/v1.33/bin/bin/../../lib/gcc/pic32mx/4.5.2/../../../../pic32mx/lib/size\libmchp_peripheral_32MX534F064H.a(spi_chn_puts_lib.o)
 .debug_line    0x0000341c       0x6c f:/program files/microchip/xc32/v1.33/bin/bin/../../lib/gcc/pic32mx/4.5.2/../../../../pic32mx/lib/size\libmchp_peripheral_32MX534F064H.a(spi_chn_is_busy_lib.o)
 .debug_line    0x00003488        0x0 f:/program files/microchip/xc32/v1.33/bin/bin/../../lib/gcc/pic32mx/4.5.2/../../../../pic32mx/lib/size\libmchp_peripheral_32MX534F064H.a(spi_io_tbl_libp.o)
 .debug_line    0x00003488        0x0 f:/program files/microchip/xc32/v1.33/bin/bin/../../lib/gcc/pic32mx/4.5.2/../../../../pic32mx/lib/size\libmchp_peripheral_32MX534F064H.a(spi_map_tbl_libp.o)
 .debug_line    0x00003488       0x70 f:/program files/microchip/xc32/v1.33/bin/bin/../../lib/gcc/pic32mx/4.5.2/../../../../pic32mx/lib/size\libmchp_peripheral_32MX534F064H.a(dma_chn_abort_txfer_lib.o)
 .debug_line    0x000034f8       0x7b f:/program files/microchip/xc32/v1.33/bin/bin/../../lib/gcc/pic32mx/4.5.2/../../../../pic32mx/lib/size\libmchp_peripheral_32MX534F064H.a(dma_chn_open_lib.o)
 .debug_line    0x00003573       0x6c f:/program files/microchip/xc32/v1.33/bin/bin/../../lib/gcc/pic32mx/4.5.2/../../../../pic32mx/lib/size\libmchp_peripheral_32MX534F064H.a(dma_chn_disable_lib.o)
 .debug_line    0x000035df       0x6b f:/program files/microchip/xc32/v1.33/bin/bin/../../lib/gcc/pic32mx/4.5.2/../../../../pic32mx/lib/size\libmchp_peripheral_32MX534F064H.a(dma_chn_enable_lib.o)
 .debug_line    0x0000364a       0x70 f:/program files/microchip/xc32/v1.33/bin/bin/../../lib/gcc/pic32mx/4.5.2/../../../../pic32mx/lib/size\libmchp_peripheral_32MX534F064H.a(dma_chn_get_dst_pnt_lib.o)
 .debug_line    0x000036ba       0x7e f:/program files/microchip/xc32/v1.33/bin/bin/../../lib/gcc/pic32mx/4.5.2/../../../../pic32mx/lib/size\libmchp_peripheral_32MX534F064H.a(dma_chn_write_event_control_flags_lib.o)
 .debug_line    0x00003738       0x80 f:/program files/microchip/xc32/v1.33/bin/bin/../../lib/gcc/pic32mx/4.5.2/../../../../pic32mx/lib/size\libmchp_peripheral_32MX534F064H.a(dma_chn_set_txfer_lib.o)
 .debug_line    0x000037b8       0x7a f:/program files/microchip/xc32/v1.33/bin/bin/../../lib/gcc/pic32mx/4.5.2/../../../../pic32mx/lib/size\libmchp_peripheral_32MX534F064H.a(dma_chn_write_ev_enable_flags_lib.o)
 .debug_line    0x00003832        0x0 f:/program files/microchip/xc32/v1.33/bin/bin/../../lib/gcc/pic32mx/4.5.2/../../../../pic32mx/lib/size\libmchp_peripheral_32MX534F064H.a(dma_reg_map_tbl_lib.o)
 .debug_line    0x00003832       0x6e f:/program files/microchip/xc32/v1.33/bin/bin/../../lib/gcc/pic32mx/4.5.2/../../../../pic32mx/lib/size\libmchp_peripheral_32MX534F064H.a(port_reset_pins_lib.o)
 .debug_line    0x000038a0       0x77 f:/program files/microchip/xc32/v1.33/bin/bin/../../lib/gcc/pic32mx/4.5.2/../../../../pic32mx/lib/size\libmchp_peripheral_32MX534F064H.a(port_set_pins_digital_in_lib.o)
 .debug_line    0x00003917       0x78 f:/program files/microchip/xc32/v1.33/bin/bin/../../lib/gcc/pic32mx/4.5.2/../../../../pic32mx/lib/size\libmchp_peripheral_32MX534F064H.a(port_set_pins_digital_out_lib.o)
 .debug_line    0x0000398f        0x0 f:/program files/microchip/xc32/v1.33/bin/bin/../../lib/gcc/pic32mx/4.5.2/../../../../pic32mx/lib/size\libmchp_peripheral_32MX534F064H.a(_ports_tbl_libp.o)
 .debug_line    0x0000398f       0x6b f:/program files/microchip/xc32/v1.33/bin/bin/../../lib/gcc/pic32mx/4.5.2/../../../../pic32mx/lib/size\libmchp_peripheral_32MX534F064H.a(I2CAcknowledgeByte.o)
 .debug_line    0x000039fa       0x6f f:/program files/microchip/xc32/v1.33/bin/bin/../../lib/gcc/pic32mx/4.5.2/../../../../pic32mx/lib/size\libmchp_peripheral_32MX534F064H.a(I2CByteWasAcknowledged.o)
 .debug_line    0x00003a69       0x62 f:/program files/microchip/xc32/v1.33/bin/bin/../../lib/gcc/pic32mx/4.5.2/../../../../pic32mx/lib/size\libmchp_peripheral_32MX534F064H.a(I2CEnable.o)
 .debug_line    0x00003acb       0x63 f:/program files/microchip/xc32/v1.33/bin/bin/../../lib/gcc/pic32mx/4.5.2/../../../../pic32mx/lib/size\libmchp_peripheral_32MX534F064H.a(I2CGetByte.o)
 .debug_line    0x00003b2e       0x6a f:/program files/microchip/xc32/v1.33/bin/bin/../../lib/gcc/pic32mx/4.5.2/../../../../pic32mx/lib/size\libmchp_peripheral_32MX534F064H.a(I2CReceiverEnable.o)
 .debug_line    0x00003b98       0x64 f:/program files/microchip/xc32/v1.33/bin/bin/../../lib/gcc/pic32mx/4.5.2/../../../../pic32mx/lib/size\libmchp_peripheral_32MX534F064H.a(I2CSendByte.o)
 .debug_line    0x00003bfc       0x68 f:/program files/microchip/xc32/v1.33/bin/bin/../../lib/gcc/pic32mx/4.5.2/../../../../pic32mx/lib/size\libmchp_peripheral_32MX534F064H.a(I2CSetFrequency.o)
 .debug_line    0x00003c64       0x61 f:/program files/microchip/xc32/v1.33/bin/bin/../../lib/gcc/pic32mx/4.5.2/../../../../pic32mx/lib/size\libmchp_peripheral_32MX534F064H.a(I2CStart.o)
 .debug_line    0x00003cc5       0x60 f:/program files/microchip/xc32/v1.33/bin/bin/../../lib/gcc/pic32mx/4.5.2/../../../../pic32mx/lib/size\libmchp_peripheral_32MX534F064H.a(I2CStop.o)
 .debug_line    0x00003d25        0x0 f:/program files/microchip/xc32/v1.33/bin/bin/../../lib/gcc/pic32mx/4.5.2/../../../../pic32mx/lib/size\libmchp_peripheral_32MX534F064H.a(I2CPrivate.o)
 .debug_line    0x00003d25       0xfc f:/program files/microchip/xc32/v1.33/bin/bin/../../lib/gcc/pic32mx/4.5.2/size\libgcc.a(_ashldi3.o)
 .debug_line    0x00003e21       0x97 f:/program files/microchip/xc32/v1.33/bin/bin/../../lib/gcc/pic32mx/4.5.2/../../../../pic32mx/lib/size\libpic32.a(default-bootstrap-exception-handler.o)
 .debug_line    0x00003eb8       0x84 f:/program files/microchip/xc32/v1.33/bin/bin/../../lib/gcc/pic32mx/4.5.2/../../../../pic32mx/lib/size\libpic32.a(default-on-reset.o)
 .debug_line    0x00003f3c       0x88 f:/program files/microchip/xc32/v1.33/bin/bin/../../lib/gcc/pic32mx/4.5.2/../../../../pic32mx/lib/size\libpic32.a(default-on-bootstrap.o)
 .debug_line    0x00003fc4       0x95 f:/program files/microchip/xc32/v1.33/bin/bin/../../lib/gcc/pic32mx/4.5.2/../../../../pic32mx/lib/size\libpic32.a(default-general-exception-handler.o)
 .debug_line    0x00004059       0x96 f:/program files/microchip/xc32/v1.33/bin/bin/../../lib/gcc/pic32mx/4.5.2/../../../../pic32mx/lib/size\libpic32.a(defaultinterrupt.o)

.debug_frame    0x00000000      0xfac
 *(.debug_frame)
 .debug_frame   0x00000000       0xdc build/PIC32_Standalone/production/usb/usb_device.o
 .debug_frame   0x000000dc       0xc0 build/PIC32_Standalone/production/usb/usb_driver.o
 .debug_frame   0x0000019c       0x20 build/PIC32_Standalone/production/usb/usb_function_hid.o
 .debug_frame   0x000001bc       0x7c build/PIC32_Standalone/production/main.o
 .debug_frame   0x00000238       0xc0 build/PIC32_Standalone/production/isr.o
 .debug_frame   0x000002f8       0x5c build/PIC32_Standalone/production/iron.o
 .debug_frame   0x00000354       0x48 build/PIC32_Standalone/production/PID.o
 .debug_frame   0x0000039c       0x58 build/PIC32_Standalone/production/io.o
 .debug_frame   0x000003f4       0x68 build/PIC32_Standalone/production/menu.o
 .debug_frame   0x0000045c      0x2cc build/PIC32_Standalone/production/PIC32MX534F064H.o
 .debug_frame   0x00000728       0x5c build/PIC32_Standalone/production/EEP.o
 .debug_frame   0x00000784      0x194 build/PIC32_Standalone/production/OLED.o
 .debug_frame   0x00000918       0xa8 build/PIC32_Standalone/production/pars.o
 .debug_frame   0x000009c0       0x20 f:/program files/microchip/xc32/v1.33/bin/bin/../../lib/gcc/pic32mx/4.5.2/../../../../pic32mx/lib/size\libmchp_peripheral.a(open_core_timer_lib.o)
 .debug_frame   0x000009e0       0x20 f:/program files/microchip/xc32/v1.33/bin/bin/../../lib/gcc/pic32mx/4.5.2/../../../../pic32mx/lib/size\libmchp_peripheral.a(read_core_timer_lib.o)
 .debug_frame   0x00000a00       0x28 f:/program files/microchip/xc32/v1.33/bin/bin/../../lib/gcc/pic32mx/4.5.2/../../../../pic32mx/lib/size\libmchp_peripheral_32MX534F064H.a(soft_reset_lib.o)
 .debug_frame   0x00000a28       0x20 f:/program files/microchip/xc32/v1.33/bin/bin/../../lib/gcc/pic32mx/4.5.2/../../../../pic32mx/lib/size\libmchp_peripheral_32MX534F064H.a(int_enable_interrupts_lib.o)
 .debug_frame   0x00000a48       0x20 f:/program files/microchip/xc32/v1.33/bin/bin/../../lib/gcc/pic32mx/4.5.2/../../../../pic32mx/lib/size\libmchp_peripheral_32MX534F064H.a(int_disable_interrupts_lib.o)
 .debug_frame   0x00000a68       0x20 f:/program files/microchip/xc32/v1.33/bin/bin/../../lib/gcc/pic32mx/4.5.2/../../../../pic32mx/lib/size\libmchp_peripheral_32MX534F064H.a(int_restore_interrupts_lib.o)
 .debug_frame   0x00000a88       0x28 f:/program files/microchip/xc32/v1.33/bin/bin/../../lib/gcc/pic32mx/4.5.2/../../../../pic32mx/lib/size\libmchp_peripheral_32MX534F064H.a(int_enable_mv_int_lib.o)
 .debug_frame   0x00000ab0       0xa0 f:/program files/microchip/xc32/v1.33/bin/bin/../../lib/gcc/pic32mx/4.5.2/../../../../pic32mx/lib/size\libmchp_peripheral_32MX534F064H.a(int_tbl_lib.o)
 .debug_frame   0x00000b50       0x2c f:/program files/microchip/xc32/v1.33/bin/bin/../../lib/gcc/pic32mx/4.5.2/../../../../pic32mx/lib/size\libmchp_peripheral_32MX534F064H.a(spi_chn_close_lib.o)
 .debug_frame   0x00000b7c       0x3c f:/program files/microchip/xc32/v1.33/bin/bin/../../lib/gcc/pic32mx/4.5.2/../../../../pic32mx/lib/size\libmchp_peripheral_32MX534F064H.a(spi_chn_open_lib.o)
 .debug_frame   0x00000bb8       0x40 f:/program files/microchip/xc32/v1.33/bin/bin/../../lib/gcc/pic32mx/4.5.2/../../../../pic32mx/lib/size\libmchp_peripheral_32MX534F064H.a(spi_chn_putc_lib.o)
 .debug_frame   0x00000bf8       0x20 f:/program files/microchip/xc32/v1.33/bin/bin/../../lib/gcc/pic32mx/4.5.2/../../../../pic32mx/lib/size\libmchp_peripheral_32MX534F064H.a(spi_chn_puts_lib.o)
 .debug_frame   0x00000c18       0x30 f:/program files/microchip/xc32/v1.33/bin/bin/../../lib/gcc/pic32mx/4.5.2/../../../../pic32mx/lib/size\libmchp_peripheral_32MX534F064H.a(spi_chn_is_busy_lib.o)
 .debug_frame   0x00000c48       0x20 f:/program files/microchip/xc32/v1.33/bin/bin/../../lib/gcc/pic32mx/4.5.2/../../../../pic32mx/lib/size\libmchp_peripheral_32MX534F064H.a(dma_chn_abort_txfer_lib.o)
 .debug_frame   0x00000c68       0x34 f:/program files/microchip/xc32/v1.33/bin/bin/../../lib/gcc/pic32mx/4.5.2/../../../../pic32mx/lib/size\libmchp_peripheral_32MX534F064H.a(dma_chn_open_lib.o)
 .debug_frame   0x00000c9c       0x20 f:/program files/microchip/xc32/v1.33/bin/bin/../../lib/gcc/pic32mx/4.5.2/../../../../pic32mx/lib/size\libmchp_peripheral_32MX534F064H.a(dma_chn_disable_lib.o)
 .debug_frame   0x00000cbc       0x20 f:/program files/microchip/xc32/v1.33/bin/bin/../../lib/gcc/pic32mx/4.5.2/../../../../pic32mx/lib/size\libmchp_peripheral_32MX534F064H.a(dma_chn_enable_lib.o)
 .debug_frame   0x00000cdc       0x20 f:/program files/microchip/xc32/v1.33/bin/bin/../../lib/gcc/pic32mx/4.5.2/../../../../pic32mx/lib/size\libmchp_peripheral_32MX534F064H.a(dma_chn_get_dst_pnt_lib.o)
 .debug_frame   0x00000cfc       0x20 f:/program files/microchip/xc32/v1.33/bin/bin/../../lib/gcc/pic32mx/4.5.2/../../../../pic32mx/lib/size\libmchp_peripheral_32MX534F064H.a(dma_chn_write_event_control_flags_lib.o)
 .debug_frame   0x00000d1c       0x20 f:/program files/microchip/xc32/v1.33/bin/bin/../../lib/gcc/pic32mx/4.5.2/../../../../pic32mx/lib/size\libmchp_peripheral_32MX534F064H.a(dma_chn_set_txfer_lib.o)
 .debug_frame   0x00000d3c       0x20 f:/program files/microchip/xc32/v1.33/bin/bin/../../lib/gcc/pic32mx/4.5.2/../../../../pic32mx/lib/size\libmchp_peripheral_32MX534F064H.a(dma_chn_write_ev_enable_flags_lib.o)
 .debug_frame   0x00000d5c       0x20 f:/program files/microchip/xc32/v1.33/bin/bin/../../lib/gcc/pic32mx/4.5.2/../../../../pic32mx/lib/size\libmchp_peripheral_32MX534F064H.a(port_reset_pins_lib.o)
 .debug_frame   0x00000d7c       0x20 f:/program files/microchip/xc32/v1.33/bin/bin/../../lib/gcc/pic32mx/4.5.2/../../../../pic32mx/lib/size\libmchp_peripheral_32MX534F064H.a(port_set_pins_digital_in_lib.o)
 .debug_frame   0x00000d9c       0x20 f:/program files/microchip/xc32/v1.33/bin/bin/../../lib/gcc/pic32mx/4.5.2/../../../../pic32mx/lib/size\libmchp_peripheral_32MX534F064H.a(port_set_pins_digital_out_lib.o)
 .debug_frame   0x00000dbc       0x20 f:/program files/microchip/xc32/v1.33/bin/bin/../../lib/gcc/pic32mx/4.5.2/../../../../pic32mx/lib/size\libmchp_peripheral_32MX534F064H.a(I2CAcknowledgeByte.o)
 .debug_frame   0x00000ddc       0x20 f:/program files/microchip/xc32/v1.33/bin/bin/../../lib/gcc/pic32mx/4.5.2/../../../../pic32mx/lib/size\libmchp_peripheral_32MX534F064H.a(I2CByteWasAcknowledged.o)
 .debug_frame   0x00000dfc       0x20 f:/program files/microchip/xc32/v1.33/bin/bin/../../lib/gcc/pic32mx/4.5.2/../../../../pic32mx/lib/size\libmchp_peripheral_32MX534F064H.a(I2CEnable.o)
 .debug_frame   0x00000e1c       0x20 f:/program files/microchip/xc32/v1.33/bin/bin/../../lib/gcc/pic32mx/4.5.2/../../../../pic32mx/lib/size\libmchp_peripheral_32MX534F064H.a(I2CGetByte.o)
 .debug_frame   0x00000e3c       0x20 f:/program files/microchip/xc32/v1.33/bin/bin/../../lib/gcc/pic32mx/4.5.2/../../../../pic32mx/lib/size\libmchp_peripheral_32MX534F064H.a(I2CReceiverEnable.o)
 .debug_frame   0x00000e5c       0x20 f:/program files/microchip/xc32/v1.33/bin/bin/../../lib/gcc/pic32mx/4.5.2/../../../../pic32mx/lib/size\libmchp_peripheral_32MX534F064H.a(I2CSendByte.o)
 .debug_frame   0x00000e7c       0x20 f:/program files/microchip/xc32/v1.33/bin/bin/../../lib/gcc/pic32mx/4.5.2/../../../../pic32mx/lib/size\libmchp_peripheral_32MX534F064H.a(I2CSetFrequency.o)
 .debug_frame   0x00000e9c       0x20 f:/program files/microchip/xc32/v1.33/bin/bin/../../lib/gcc/pic32mx/4.5.2/../../../../pic32mx/lib/size\libmchp_peripheral_32MX534F064H.a(I2CStart.o)
 .debug_frame   0x00000ebc       0x20 f:/program files/microchip/xc32/v1.33/bin/bin/../../lib/gcc/pic32mx/4.5.2/../../../../pic32mx/lib/size\libmchp_peripheral_32MX534F064H.a(I2CStop.o)
 .debug_frame   0x00000edc       0x20 f:/program files/microchip/xc32/v1.33/bin/bin/../../lib/gcc/pic32mx/4.5.2/size\libgcc.a(_ashldi3.o)
 .debug_frame   0x00000efc       0x28 f:/program files/microchip/xc32/v1.33/bin/bin/../../lib/gcc/pic32mx/4.5.2/../../../../pic32mx/lib/size\libpic32.a(default-bootstrap-exception-handler.o)
 .debug_frame   0x00000f24       0x20 f:/program files/microchip/xc32/v1.33/bin/bin/../../lib/gcc/pic32mx/4.5.2/../../../../pic32mx/lib/size\libpic32.a(default-on-reset.o)
 .debug_frame   0x00000f44       0x20 f:/program files/microchip/xc32/v1.33/bin/bin/../../lib/gcc/pic32mx/4.5.2/../../../../pic32mx/lib/size\libpic32.a(default-on-bootstrap.o)
 .debug_frame   0x00000f64       0x28 f:/program files/microchip/xc32/v1.33/bin/bin/../../lib/gcc/pic32mx/4.5.2/../../../../pic32mx/lib/size\libpic32.a(default-general-exception-handler.o)
 .debug_frame   0x00000f8c       0x20 f:/program files/microchip/xc32/v1.33/bin/bin/../../lib/gcc/pic32mx/4.5.2/../../../../pic32mx/lib/size\libpic32.a(defaultinterrupt.o)

.debug_str      0x00000000     0x1419
 *(.debug_str)
 .debug_str     0x00000000      0x10c build/PIC32_Standalone/production/usb/usb_descriptors.o
 .debug_str     0x0000010c      0x364 build/PIC32_Standalone/production/usb/usb_device.o
 .debug_str     0x00000470      0x13b build/PIC32_Standalone/production/usb/usb_driver.o
 .debug_str     0x000005ab      0x146 build/PIC32_Standalone/production/usb/usb_function_hid.o
 .debug_str     0x000006f1       0xe2 build/PIC32_Standalone/production/usb/usb_hal_pic24.o
 .debug_str     0x000007d3      0x164 build/PIC32_Standalone/production/main.o
 .debug_str     0x00000937      0x1dc build/PIC32_Standalone/production/isr.o
 .debug_str     0x00000b13       0xef build/PIC32_Standalone/production/iron.o
 .debug_str     0x00000c02       0x85 build/PIC32_Standalone/production/PID.o
 .debug_str     0x00000c87      0x18f build/PIC32_Standalone/production/io.o
 .debug_str     0x00000e16      0x180 build/PIC32_Standalone/production/menu.o
 .debug_str     0x00000f96      0x270 build/PIC32_Standalone/production/PIC32MX534F064H.o
 .debug_str     0x00001206       0xaf build/PIC32_Standalone/production/EEP.o
 .debug_str     0x000012b5      0x118 build/PIC32_Standalone/production/OLED.o
 .debug_str     0x000013cd       0x4c build/PIC32_Standalone/production/pars.o
 .debug_str     0x00001419        0x0 f:/program files/microchip/xc32/v1.33/bin/bin/../../lib/gcc/pic32mx/4.5.2/../../../../pic32mx/lib/size\libmchp_peripheral.a(open_core_timer_lib.o)
 .debug_str     0x00001419        0x0 f:/program files/microchip/xc32/v1.33/bin/bin/../../lib/gcc/pic32mx/4.5.2/../../../../pic32mx/lib/size\libmchp_peripheral.a(read_core_timer_lib.o)
 .debug_str     0x00001419        0x0 f:/program files/microchip/xc32/v1.33/bin/bin/../../lib/gcc/pic32mx/4.5.2/../../../../pic32mx/lib/size\libmchp_peripheral_32MX534F064H.a(soft_reset_lib.o)
 .debug_str     0x00001419        0x0 f:/program files/microchip/xc32/v1.33/bin/bin/../../lib/gcc/pic32mx/4.5.2/../../../../pic32mx/lib/size\libmchp_peripheral_32MX534F064H.a(int_enable_interrupts_lib.o)
 .debug_str     0x00001419        0x0 f:/program files/microchip/xc32/v1.33/bin/bin/../../lib/gcc/pic32mx/4.5.2/../../../../pic32mx/lib/size\libmchp_peripheral_32MX534F064H.a(int_disable_interrupts_lib.o)
 .debug_str     0x00001419        0x0 f:/program files/microchip/xc32/v1.33/bin/bin/../../lib/gcc/pic32mx/4.5.2/../../../../pic32mx/lib/size\libmchp_peripheral_32MX534F064H.a(int_restore_interrupts_lib.o)
 .debug_str     0x00001419        0x0 f:/program files/microchip/xc32/v1.33/bin/bin/../../lib/gcc/pic32mx/4.5.2/../../../../pic32mx/lib/size\libmchp_peripheral_32MX534F064H.a(int_enable_mv_int_lib.o)
 .debug_str     0x00001419        0x0 f:/program files/microchip/xc32/v1.33/bin/bin/../../lib/gcc/pic32mx/4.5.2/../../../../pic32mx/lib/size\libmchp_peripheral_32MX534F064H.a(int_tbl_lib.o)
 .debug_str     0x00001419        0x0 f:/program files/microchip/xc32/v1.33/bin/bin/../../lib/gcc/pic32mx/4.5.2/../../../../pic32mx/lib/size\libmchp_peripheral_32MX534F064H.a(spi_chn_close_lib.o)
 .debug_str     0x00001419        0x0 f:/program files/microchip/xc32/v1.33/bin/bin/../../lib/gcc/pic32mx/4.5.2/../../../../pic32mx/lib/size\libmchp_peripheral_32MX534F064H.a(spi_chn_open_lib.o)
 .debug_str     0x00001419        0x0 f:/program files/microchip/xc32/v1.33/bin/bin/../../lib/gcc/pic32mx/4.5.2/../../../../pic32mx/lib/size\libmchp_peripheral_32MX534F064H.a(spi_chn_putc_lib.o)
 .debug_str     0x00001419        0x0 f:/program files/microchip/xc32/v1.33/bin/bin/../../lib/gcc/pic32mx/4.5.2/../../../../pic32mx/lib/size\libmchp_peripheral_32MX534F064H.a(spi_chn_puts_lib.o)
 .debug_str     0x00001419        0x0 f:/program files/microchip/xc32/v1.33/bin/bin/../../lib/gcc/pic32mx/4.5.2/../../../../pic32mx/lib/size\libmchp_peripheral_32MX534F064H.a(spi_chn_is_busy_lib.o)
 .debug_str     0x00001419        0x0 f:/program files/microchip/xc32/v1.33/bin/bin/../../lib/gcc/pic32mx/4.5.2/../../../../pic32mx/lib/size\libmchp_peripheral_32MX534F064H.a(spi_io_tbl_libp.o)
 .debug_str     0x00001419        0x0 f:/program files/microchip/xc32/v1.33/bin/bin/../../lib/gcc/pic32mx/4.5.2/../../../../pic32mx/lib/size\libmchp_peripheral_32MX534F064H.a(spi_map_tbl_libp.o)
 .debug_str     0x00001419        0x0 f:/program files/microchip/xc32/v1.33/bin/bin/../../lib/gcc/pic32mx/4.5.2/../../../../pic32mx/lib/size\libmchp_peripheral_32MX534F064H.a(dma_chn_abort_txfer_lib.o)
 .debug_str     0x00001419        0x0 f:/program files/microchip/xc32/v1.33/bin/bin/../../lib/gcc/pic32mx/4.5.2/../../../../pic32mx/lib/size\libmchp_peripheral_32MX534F064H.a(dma_chn_open_lib.o)
 .debug_str     0x00001419        0x0 f:/program files/microchip/xc32/v1.33/bin/bin/../../lib/gcc/pic32mx/4.5.2/../../../../pic32mx/lib/size\libmchp_peripheral_32MX534F064H.a(dma_chn_disable_lib.o)
 .debug_str     0x00001419        0x0 f:/program files/microchip/xc32/v1.33/bin/bin/../../lib/gcc/pic32mx/4.5.2/../../../../pic32mx/lib/size\libmchp_peripheral_32MX534F064H.a(dma_chn_enable_lib.o)
 .debug_str     0x00001419        0x0 f:/program files/microchip/xc32/v1.33/bin/bin/../../lib/gcc/pic32mx/4.5.2/../../../../pic32mx/lib/size\libmchp_peripheral_32MX534F064H.a(dma_chn_get_dst_pnt_lib.o)
 .debug_str     0x00001419        0x0 f:/program files/microchip/xc32/v1.33/bin/bin/../../lib/gcc/pic32mx/4.5.2/../../../../pic32mx/lib/size\libmchp_peripheral_32MX534F064H.a(dma_chn_write_event_control_flags_lib.o)
 .debug_str     0x00001419        0x0 f:/program files/microchip/xc32/v1.33/bin/bin/../../lib/gcc/pic32mx/4.5.2/../../../../pic32mx/lib/size\libmchp_peripheral_32MX534F064H.a(dma_chn_set_txfer_lib.o)
 .debug_str     0x00001419        0x0 f:/program files/microchip/xc32/v1.33/bin/bin/../../lib/gcc/pic32mx/4.5.2/../../../../pic32mx/lib/size\libmchp_peripheral_32MX534F064H.a(dma_chn_write_ev_enable_flags_lib.o)
 .debug_str     0x00001419        0x0 f:/program files/microchip/xc32/v1.33/bin/bin/../../lib/gcc/pic32mx/4.5.2/../../../../pic32mx/lib/size\libmchp_peripheral_32MX534F064H.a(dma_reg_map_tbl_lib.o)
 .debug_str     0x00001419        0x0 f:/program files/microchip/xc32/v1.33/bin/bin/../../lib/gcc/pic32mx/4.5.2/../../../../pic32mx/lib/size\libmchp_peripheral_32MX534F064H.a(port_reset_pins_lib.o)
 .debug_str     0x00001419        0x0 f:/program files/microchip/xc32/v1.33/bin/bin/../../lib/gcc/pic32mx/4.5.2/../../../../pic32mx/lib/size\libmchp_peripheral_32MX534F064H.a(port_set_pins_digital_in_lib.o)
 .debug_str     0x00001419        0x0 f:/program files/microchip/xc32/v1.33/bin/bin/../../lib/gcc/pic32mx/4.5.2/../../../../pic32mx/lib/size\libmchp_peripheral_32MX534F064H.a(port_set_pins_digital_out_lib.o)
 .debug_str     0x00001419        0x0 f:/program files/microchip/xc32/v1.33/bin/bin/../../lib/gcc/pic32mx/4.5.2/../../../../pic32mx/lib/size\libmchp_peripheral_32MX534F064H.a(_ports_tbl_libp.o)
 .debug_str     0x00001419        0x0 f:/program files/microchip/xc32/v1.33/bin/bin/../../lib/gcc/pic32mx/4.5.2/../../../../pic32mx/lib/size\libmchp_peripheral_32MX534F064H.a(I2CAcknowledgeByte.o)
 .debug_str     0x00001419        0x0 f:/program files/microchip/xc32/v1.33/bin/bin/../../lib/gcc/pic32mx/4.5.2/../../../../pic32mx/lib/size\libmchp_peripheral_32MX534F064H.a(I2CByteWasAcknowledged.o)
 .debug_str     0x00001419        0x0 f:/program files/microchip/xc32/v1.33/bin/bin/../../lib/gcc/pic32mx/4.5.2/../../../../pic32mx/lib/size\libmchp_peripheral_32MX534F064H.a(I2CEnable.o)
 .debug_str     0x00001419        0x0 f:/program files/microchip/xc32/v1.33/bin/bin/../../lib/gcc/pic32mx/4.5.2/../../../../pic32mx/lib/size\libmchp_peripheral_32MX534F064H.a(I2CGetByte.o)
 .debug_str     0x00001419        0x0 f:/program files/microchip/xc32/v1.33/bin/bin/../../lib/gcc/pic32mx/4.5.2/../../../../pic32mx/lib/size\libmchp_peripheral_32MX534F064H.a(I2CReceiverEnable.o)
 .debug_str     0x00001419        0x0 f:/program files/microchip/xc32/v1.33/bin/bin/../../lib/gcc/pic32mx/4.5.2/../../../../pic32mx/lib/size\libmchp_peripheral_32MX534F064H.a(I2CSendByte.o)
 .debug_str     0x00001419        0x0 f:/program files/microchip/xc32/v1.33/bin/bin/../../lib/gcc/pic32mx/4.5.2/../../../../pic32mx/lib/size\libmchp_peripheral_32MX534F064H.a(I2CSetFrequency.o)
 .debug_str     0x00001419        0x0 f:/program files/microchip/xc32/v1.33/bin/bin/../../lib/gcc/pic32mx/4.5.2/../../../../pic32mx/lib/size\libmchp_peripheral_32MX534F064H.a(I2CStart.o)
 .debug_str     0x00001419        0x0 f:/program files/microchip/xc32/v1.33/bin/bin/../../lib/gcc/pic32mx/4.5.2/../../../../pic32mx/lib/size\libmchp_peripheral_32MX534F064H.a(I2CStop.o)
 .debug_str     0x00001419        0x0 f:/program files/microchip/xc32/v1.33/bin/bin/../../lib/gcc/pic32mx/4.5.2/../../../../pic32mx/lib/size\libmchp_peripheral_32MX534F064H.a(I2CPrivate.o)
 .debug_str     0x00001419        0x0 f:/program files/microchip/xc32/v1.33/bin/bin/../../lib/gcc/pic32mx/4.5.2/size\libgcc.a(_ashldi3.o)
 .debug_str     0x00001419        0x0 f:/program files/microchip/xc32/v1.33/bin/bin/../../lib/gcc/pic32mx/4.5.2/../../../../pic32mx/lib/size\libpic32.a(default-bootstrap-exception-handler.o)
 .debug_str     0x00001419        0x0 f:/program files/microchip/xc32/v1.33/bin/bin/../../lib/gcc/pic32mx/4.5.2/../../../../pic32mx/lib/size\libpic32.a(default-on-reset.o)
 .debug_str     0x00001419        0x0 f:/program files/microchip/xc32/v1.33/bin/bin/../../lib/gcc/pic32mx/4.5.2/../../../../pic32mx/lib/size\libpic32.a(default-on-bootstrap.o)
 .debug_str     0x00001419        0x0 f:/program files/microchip/xc32/v1.33/bin/bin/../../lib/gcc/pic32mx/4.5.2/../../../../pic32mx/lib/size\libpic32.a(default-general-exception-handler.o)
 .debug_str     0x00001419        0x0 f:/program files/microchip/xc32/v1.33/bin/bin/../../lib/gcc/pic32mx/4.5.2/../../../../pic32mx/lib/size\libpic32.a(defaultinterrupt.o)

.debug_loc      0x00000000     0x18a1
 *(.debug_loc)
 .debug_loc     0x00000000      0x1a6 build/PIC32_Standalone/production/usb/usb_device.o
 .debug_loc     0x000001a6       0x5a build/PIC32_Standalone/production/usb/usb_driver.o
 .debug_loc     0x00000200       0xca build/PIC32_Standalone/production/main.o
 .debug_loc     0x000002ca      0x4dc build/PIC32_Standalone/production/isr.o
 .debug_loc     0x000007a6       0x6d build/PIC32_Standalone/production/iron.o
 .debug_loc     0x00000813      0x2ed build/PIC32_Standalone/production/PID.o
 .debug_loc     0x00000b00      0x1c3 build/PIC32_Standalone/production/menu.o
 .debug_loc     0x00000cc3      0x1b2 build/PIC32_Standalone/production/PIC32MX534F064H.o
 .debug_loc     0x00000e75       0xd0 build/PIC32_Standalone/production/EEP.o
 .debug_loc     0x00000f45      0x6a7 build/PIC32_Standalone/production/OLED.o
 .debug_loc     0x000015ec      0x279 build/PIC32_Standalone/production/pars.o
 .debug_loc     0x00001865       0x3c f:/program files/microchip/xc32/v1.33/bin/bin/../../lib/gcc/pic32mx/4.5.2/size\libgcc.a(_ashldi3.o)

.debug_macinfo
 *(.debug_macinfo)

.debug_weaknames
 *(.debug_weaknames)

.debug_funcnames
 *(.debug_funcnames)

.debug_typenames
 *(.debug_typenames)

.debug_varnames
 *(.debug_varnames)

.debug_pubtypes
                0x00000000     0x12db
 *(.debug_pubtypes)
 .debug_pubtypes
                0x00000000      0x104 build/PIC32_Standalone/production/usb/usb_descriptors.o
 .debug_pubtypes
                0x00000104      0x285 build/PIC32_Standalone/production/usb/usb_device.o
 .debug_pubtypes
                0x00000389      0x107 build/PIC32_Standalone/production/usb/usb_driver.o
 .debug_pubtypes
                0x00000490      0x108 build/PIC32_Standalone/production/usb/usb_function_hid.o
 .debug_pubtypes
                0x00000598       0xbd build/PIC32_Standalone/production/usb/usb_hal_pic24.o
 .debug_pubtypes
                0x00000655      0x18d build/PIC32_Standalone/production/main.o
 .debug_pubtypes
                0x000007e2      0x1a2 build/PIC32_Standalone/production/isr.o
 .debug_pubtypes
                0x00000984      0x155 build/PIC32_Standalone/production/iron.o
 .debug_pubtypes
                0x00000ad9      0x105 build/PIC32_Standalone/production/PID.o
 .debug_pubtypes
                0x00000bde      0x1c9 build/PIC32_Standalone/production/io.o
 .debug_pubtypes
                0x00000da7      0x1b5 build/PIC32_Standalone/production/menu.o
 .debug_pubtypes
                0x00000f5c      0x186 build/PIC32_Standalone/production/PIC32MX534F064H.o
 .debug_pubtypes
                0x000010e2       0x70 build/PIC32_Standalone/production/EEP.o
 .debug_pubtypes
                0x00001152       0xf3 build/PIC32_Standalone/production/OLED.o
 .debug_pubtypes
                0x00001245       0x34 build/PIC32_Standalone/production/pars.o
 .debug_pubtypes
                0x00001279       0x62 f:/program files/microchip/xc32/v1.33/bin/bin/../../lib/gcc/pic32mx/4.5.2/size\libgcc.a(_ashldi3.o)

.debug_ranges   0x00000000      0x378
 *(.debug_ranges)
 .debug_ranges  0x00000000       0x58 build/PIC32_Standalone/production/usb/usb_device.o
 .debug_ranges  0x00000058       0x58 build/PIC32_Standalone/production/usb/usb_driver.o
 .debug_ranges  0x000000b0       0x10 build/PIC32_Standalone/production/usb/usb_function_hid.o
 .debug_ranges  0x000000c0       0x20 build/PIC32_Standalone/production/main.o
 .debug_ranges  0x000000e0       0x40 build/PIC32_Standalone/production/isr.o
 .debug_ranges  0x00000120       0x20 build/PIC32_Standalone/production/iron.o
 .debug_ranges  0x00000140       0x18 build/PIC32_Standalone/production/PID.o
 .debug_ranges  0x00000158       0x20 build/PIC32_Standalone/production/io.o
 .debug_ranges  0x00000178       0x20 build/PIC32_Standalone/production/menu.o
 .debug_ranges  0x00000198       0xd0 build/PIC32_Standalone/production/PIC32MX534F064H.o
 .debug_ranges  0x00000268       0x20 build/PIC32_Standalone/production/EEP.o
 .debug_ranges  0x00000288       0x70 build/PIC32_Standalone/production/OLED.o
 .debug_ranges  0x000002f8       0x30 build/PIC32_Standalone/production/pars.o
 .debug_ranges  0x00000328       0x10 f:/program files/microchip/xc32/v1.33/bin/bin/../../lib/gcc/pic32mx/4.5.2/../../../../pic32mx/lib/size\libpic32.a(default-bootstrap-exception-handler.o)
 .debug_ranges  0x00000338       0x10 f:/program files/microchip/xc32/v1.33/bin/bin/../../lib/gcc/pic32mx/4.5.2/../../../../pic32mx/lib/size\libpic32.a(default-on-reset.o)
 .debug_ranges  0x00000348       0x10 f:/program files/microchip/xc32/v1.33/bin/bin/../../lib/gcc/pic32mx/4.5.2/../../../../pic32mx/lib/size\libpic32.a(default-on-bootstrap.o)
 .debug_ranges  0x00000358       0x10 f:/program files/microchip/xc32/v1.33/bin/bin/../../lib/gcc/pic32mx/4.5.2/../../../../pic32mx/lib/size\libpic32.a(default-general-exception-handler.o)
 .debug_ranges  0x00000368       0x10 f:/program files/microchip/xc32/v1.33/bin/bin/../../lib/gcc/pic32mx/4.5.2/../../../../pic32mx/lib/size\libpic32.a(defaultinterrupt.o)

.gnu.attributes
                0x00000000       0x10
 *(.gnu.attributes)
 .gnu.attributes
                0x00000000       0x10 build/PIC32_Standalone/production/usb/usb_descriptors.o
 .gnu.attributes
                0x00000010       0x10 build/PIC32_Standalone/production/usb/usb_device.o
 .gnu.attributes
                0x00000020       0x10 build/PIC32_Standalone/production/usb/usb_driver.o
 .gnu.attributes
                0x00000030       0x10 build/PIC32_Standalone/production/usb/usb_function_hid.o
 .gnu.attributes
                0x00000040       0x10 build/PIC32_Standalone/production/usb/usb_hal_pic24.o
 .gnu.attributes
                0x00000050       0x10 build/PIC32_Standalone/production/main.o
 .gnu.attributes
                0x00000060       0x10 build/PIC32_Standalone/production/isr.o
 .gnu.attributes
                0x00000070       0x10 build/PIC32_Standalone/production/iron.o
 .gnu.attributes
                0x00000080       0x10 build/PIC32_Standalone/production/PID.o
 .gnu.attributes
                0x00000090       0x10 build/PIC32_Standalone/production/io.o
 .gnu.attributes
                0x000000a0       0x10 build/PIC32_Standalone/production/menu.o
 .gnu.attributes
                0x000000b0       0x10 build/PIC32_Standalone/production/PIC32MX534F064H.o
 .gnu.attributes
                0x000000c0       0x10 build/PIC32_Standalone/production/EEP.o
 .gnu.attributes
                0x000000d0       0x10 build/PIC32_Standalone/production/OLED.o
 .gnu.attributes
                0x000000e0       0x10 build/PIC32_Standalone/production/pars.o
 .gnu.attributes
                0x000000f0       0x10 f:/program files/microchip/xc32/v1.33/bin/bin/../../lib/gcc/pic32mx/4.5.2/../../../../pic32mx/lib/size\libmchp_peripheral.a(open_core_timer_lib.o)
 .gnu.attributes
                0x00000100       0x10 f:/program files/microchip/xc32/v1.33/bin/bin/../../lib/gcc/pic32mx/4.5.2/../../../../pic32mx/lib/size\libmchp_peripheral.a(read_core_timer_lib.o)
 .gnu.attributes
                0x00000110       0x10 f:/program files/microchip/xc32/v1.33/bin/bin/../../lib/gcc/pic32mx/4.5.2/../../../../pic32mx/lib/size\libmchp_peripheral_32MX534F064H.a(soft_reset_lib.o)
 .gnu.attributes
                0x00000120       0x10 f:/program files/microchip/xc32/v1.33/bin/bin/../../lib/gcc/pic32mx/4.5.2/../../../../pic32mx/lib/size\libmchp_peripheral_32MX534F064H.a(int_enable_interrupts_lib.o)
 .gnu.attributes
                0x00000130       0x10 f:/program files/microchip/xc32/v1.33/bin/bin/../../lib/gcc/pic32mx/4.5.2/../../../../pic32mx/lib/size\libmchp_peripheral_32MX534F064H.a(int_disable_interrupts_lib.o)
 .gnu.attributes
                0x00000140       0x10 f:/program files/microchip/xc32/v1.33/bin/bin/../../lib/gcc/pic32mx/4.5.2/../../../../pic32mx/lib/size\libmchp_peripheral_32MX534F064H.a(int_restore_interrupts_lib.o)
 .gnu.attributes
                0x00000150       0x10 f:/program files/microchip/xc32/v1.33/bin/bin/../../lib/gcc/pic32mx/4.5.2/../../../../pic32mx/lib/size\libmchp_peripheral_32MX534F064H.a(int_enable_mv_int_lib.o)
 .gnu.attributes
                0x00000160       0x10 f:/program files/microchip/xc32/v1.33/bin/bin/../../lib/gcc/pic32mx/4.5.2/../../../../pic32mx/lib/size\libmchp_peripheral_32MX534F064H.a(int_tbl_lib.o)
 .gnu.attributes
                0x00000170       0x10 f:/program files/microchip/xc32/v1.33/bin/bin/../../lib/gcc/pic32mx/4.5.2/../../../../pic32mx/lib/size\libmchp_peripheral_32MX534F064H.a(spi_chn_close_lib.o)
 .gnu.attributes
                0x00000180       0x10 f:/program files/microchip/xc32/v1.33/bin/bin/../../lib/gcc/pic32mx/4.5.2/../../../../pic32mx/lib/size\libmchp_peripheral_32MX534F064H.a(spi_chn_open_lib.o)
 .gnu.attributes
                0x00000190       0x10 f:/program files/microchip/xc32/v1.33/bin/bin/../../lib/gcc/pic32mx/4.5.2/../../../../pic32mx/lib/size\libmchp_peripheral_32MX534F064H.a(spi_chn_putc_lib.o)
 .gnu.attributes
                0x000001a0       0x10 f:/program files/microchip/xc32/v1.33/bin/bin/../../lib/gcc/pic32mx/4.5.2/../../../../pic32mx/lib/size\libmchp_peripheral_32MX534F064H.a(spi_chn_puts_lib.o)
 .gnu.attributes
                0x000001b0       0x10 f:/program files/microchip/xc32/v1.33/bin/bin/../../lib/gcc/pic32mx/4.5.2/../../../../pic32mx/lib/size\libmchp_peripheral_32MX534F064H.a(spi_chn_is_busy_lib.o)
 .gnu.attributes
                0x000001c0       0x10 f:/program files/microchip/xc32/v1.33/bin/bin/../../lib/gcc/pic32mx/4.5.2/../../../../pic32mx/lib/size\libmchp_peripheral_32MX534F064H.a(spi_io_tbl_libp.o)
 .gnu.attributes
                0x000001d0       0x10 f:/program files/microchip/xc32/v1.33/bin/bin/../../lib/gcc/pic32mx/4.5.2/../../../../pic32mx/lib/size\libmchp_peripheral_32MX534F064H.a(spi_map_tbl_libp.o)
 .gnu.attributes
                0x000001e0       0x10 f:/program files/microchip/xc32/v1.33/bin/bin/../../lib/gcc/pic32mx/4.5.2/../../../../pic32mx/lib/size\libmchp_peripheral_32MX534F064H.a(dma_chn_abort_txfer_lib.o)
 .gnu.attributes
                0x000001f0       0x10 f:/program files/microchip/xc32/v1.33/bin/bin/../../lib/gcc/pic32mx/4.5.2/../../../../pic32mx/lib/size\libmchp_peripheral_32MX534F064H.a(dma_chn_open_lib.o)
 .gnu.attributes
                0x00000200       0x10 f:/program files/microchip/xc32/v1.33/bin/bin/../../lib/gcc/pic32mx/4.5.2/../../../../pic32mx/lib/size\libmchp_peripheral_32MX534F064H.a(dma_chn_disable_lib.o)
 .gnu.attributes
                0x00000210       0x10 f:/program files/microchip/xc32/v1.33/bin/bin/../../lib/gcc/pic32mx/4.5.2/../../../../pic32mx/lib/size\libmchp_peripheral_32MX534F064H.a(dma_chn_enable_lib.o)
 .gnu.attributes
                0x00000220       0x10 f:/program files/microchip/xc32/v1.33/bin/bin/../../lib/gcc/pic32mx/4.5.2/../../../../pic32mx/lib/size\libmchp_peripheral_32MX534F064H.a(dma_chn_get_dst_pnt_lib.o)
 .gnu.attributes
                0x00000230       0x10 f:/program files/microchip/xc32/v1.33/bin/bin/../../lib/gcc/pic32mx/4.5.2/../../../../pic32mx/lib/size\libmchp_peripheral_32MX534F064H.a(dma_chn_write_event_control_flags_lib.o)
 .gnu.attributes
                0x00000240       0x10 f:/program files/microchip/xc32/v1.33/bin/bin/../../lib/gcc/pic32mx/4.5.2/../../../../pic32mx/lib/size\libmchp_peripheral_32MX534F064H.a(dma_chn_set_txfer_lib.o)
 .gnu.attributes
                0x00000250       0x10 f:/program files/microchip/xc32/v1.33/bin/bin/../../lib/gcc/pic32mx/4.5.2/../../../../pic32mx/lib/size\libmchp_peripheral_32MX534F064H.a(dma_chn_write_ev_enable_flags_lib.o)
 .gnu.attributes
                0x00000260       0x10 f:/program files/microchip/xc32/v1.33/bin/bin/../../lib/gcc/pic32mx/4.5.2/../../../../pic32mx/lib/size\libmchp_peripheral_32MX534F064H.a(dma_reg_map_tbl_lib.o)
 .gnu.attributes
                0x00000270       0x10 f:/program files/microchip/xc32/v1.33/bin/bin/../../lib/gcc/pic32mx/4.5.2/../../../../pic32mx/lib/size\libmchp_peripheral_32MX534F064H.a(port_reset_pins_lib.o)
 .gnu.attributes
                0x00000280       0x10 f:/program files/microchip/xc32/v1.33/bin/bin/../../lib/gcc/pic32mx/4.5.2/../../../../pic32mx/lib/size\libmchp_peripheral_32MX534F064H.a(port_set_pins_digital_in_lib.o)
 .gnu.attributes
                0x00000290       0x10 f:/program files/microchip/xc32/v1.33/bin/bin/../../lib/gcc/pic32mx/4.5.2/../../../../pic32mx/lib/size\libmchp_peripheral_32MX534F064H.a(port_set_pins_digital_out_lib.o)
 .gnu.attributes
                0x000002a0       0x10 f:/program files/microchip/xc32/v1.33/bin/bin/../../lib/gcc/pic32mx/4.5.2/../../../../pic32mx/lib/size\libmchp_peripheral_32MX534F064H.a(_ports_tbl_libp.o)
 .gnu.attributes
                0x000002b0       0x10 f:/program files/microchip/xc32/v1.33/bin/bin/../../lib/gcc/pic32mx/4.5.2/../../../../pic32mx/lib/size\libmchp_peripheral_32MX534F064H.a(I2CAcknowledgeByte.o)
 .gnu.attributes
                0x000002c0       0x10 f:/program files/microchip/xc32/v1.33/bin/bin/../../lib/gcc/pic32mx/4.5.2/../../../../pic32mx/lib/size\libmchp_peripheral_32MX534F064H.a(I2CByteWasAcknowledged.o)
 .gnu.attributes
                0x000002d0       0x10 f:/program files/microchip/xc32/v1.33/bin/bin/../../lib/gcc/pic32mx/4.5.2/../../../../pic32mx/lib/size\libmchp_peripheral_32MX534F064H.a(I2CEnable.o)
 .gnu.attributes
                0x000002e0       0x10 f:/program files/microchip/xc32/v1.33/bin/bin/../../lib/gcc/pic32mx/4.5.2/../../../../pic32mx/lib/size\libmchp_peripheral_32MX534F064H.a(I2CGetByte.o)
 .gnu.attributes
                0x000002f0       0x10 f:/program files/microchip/xc32/v1.33/bin/bin/../../lib/gcc/pic32mx/4.5.2/../../../../pic32mx/lib/size\libmchp_peripheral_32MX534F064H.a(I2CReceiverEnable.o)
 .gnu.attributes
                0x00000300       0x10 f:/program files/microchip/xc32/v1.33/bin/bin/../../lib/gcc/pic32mx/4.5.2/../../../../pic32mx/lib/size\libmchp_peripheral_32MX534F064H.a(I2CSendByte.o)
 .gnu.attributes
                0x00000310       0x10 f:/program files/microchip/xc32/v1.33/bin/bin/../../lib/gcc/pic32mx/4.5.2/../../../../pic32mx/lib/size\libmchp_peripheral_32MX534F064H.a(I2CSetFrequency.o)
 .gnu.attributes
                0x00000320       0x10 f:/program files/microchip/xc32/v1.33/bin/bin/../../lib/gcc/pic32mx/4.5.2/../../../../pic32mx/lib/size\libmchp_peripheral_32MX534F064H.a(I2CStart.o)
 .gnu.attributes
                0x00000330       0x10 f:/program files/microchip/xc32/v1.33/bin/bin/../../lib/gcc/pic32mx/4.5.2/../../../../pic32mx/lib/size\libmchp_peripheral_32MX534F064H.a(I2CStop.o)
 .gnu.attributes
                0x00000340       0x10 f:/program files/microchip/xc32/v1.33/bin/bin/../../lib/gcc/pic32mx/4.5.2/../../../../pic32mx/lib/size\libmchp_peripheral_32MX534F064H.a(I2CPrivate.o)
 .gnu.attributes
                0x00000350       0x10 f:/program files/microchip/xc32/v1.33/bin/bin/../../lib/gcc/pic32mx/4.5.2/size\libgcc.a(_ashldi3.o)
 .gnu.attributes
                0x00000360       0x10 f:/program files/microchip/xc32/v1.33/bin/bin/../../lib/gcc/pic32mx/4.5.2/../../../../pic32mx/lib/size\libpic32.a(default-bootstrap-exception-handler.o)
 .gnu.attributes
                0x00000370       0x10 f:/program files/microchip/xc32/v1.33/bin/bin/../../lib/gcc/pic32mx/4.5.2/../../../../pic32mx/lib/size\libpic32.a(default-on-reset.o)
 .gnu.attributes
                0x00000380       0x10 f:/program files/microchip/xc32/v1.33/bin/bin/../../lib/gcc/pic32mx/4.5.2/../../../../pic32mx/lib/size\libpic32.a(default-on-bootstrap.o)
 .gnu.attributes
                0x00000390       0x10 f:/program files/microchip/xc32/v1.33/bin/bin/../../lib/gcc/pic32mx/4.5.2/../../../../pic32mx/lib/size\libpic32.a(default-general-exception-handler.o)
 .gnu.attributes
                0x000003a0       0x10 f:/program files/microchip/xc32/v1.33/bin/bin/../../lib/gcc/pic32mx/4.5.2/../../../../pic32mx/lib/size\libpic32.a(defaultinterrupt.o)
LOAD f:/program files/microchip/xc32/v1.33/bin/bin/../../lib/gcc/pic32mx/4.5.2/size\libgcc.a
START GROUP
LOAD f:/program files/microchip/xc32/v1.33/bin/bin/../../lib/gcc/pic32mx/4.5.2/../../../../pic32mx/lib/size\libpic32.a
LOAD f:/program files/microchip/xc32/v1.33/bin/bin/../../lib/gcc/pic32mx/4.5.2/../../../../pic32mx/lib/size\libdebug.a
LOAD f:/program files/microchip/xc32/v1.33/bin/bin/../../lib/gcc/pic32mx/4.5.2/../../../../pic32mx/lib/size\libpic32.a
LOAD f:/program files/microchip/xc32/v1.33/bin/bin/../../lib/gcc/pic32mx/4.5.2/../../../../pic32mx/lib/size\libm.a
LOAD f:/program files/microchip/xc32/v1.33/bin/bin/../../lib/gcc/pic32mx/4.5.2/../../../../pic32mx/lib/size\libe.a
LOAD f:/program files/microchip/xc32/v1.33/bin/bin/../../lib/gcc/pic32mx/4.5.2/../../../../pic32mx/lib/size\libdsp.a
LOAD f:/program files/microchip/xc32/v1.33/bin/bin/../../lib/gcc/pic32mx/4.5.2/size\libgcc.a
LOAD f:/program files/microchip/xc32/v1.33/bin/bin/../../lib/gcc/pic32mx/4.5.2/../../../../pic32mx/lib/size\libc.a
LOAD f:/program files/microchip/xc32/v1.33/bin/bin/../../lib/gcc/pic32mx/4.5.2/../../../../pic32mx/lib/size\libpic32.a
END GROUP
LOAD f:/program files/microchip/xc32/v1.33/bin/bin/../../lib/gcc/pic32mx/4.5.2/size\libgcc.a
OUTPUT(dist/PIC32_Standalone/production/US_Firmware.X.production.elf elf32-tradlittlemips)
LOAD stack
LOAD data_init

.reginfo        0x00000000       0x18
 .reginfo       0x00000000       0x18 f:/program files/microchip/xc32/v1.33/bin/bin/../../lib/gcc/pic32mx/4.5.2/../../../../pic32mx/lib/./proc/32MX534F064H/crt0_mips32r2.o

.stack          0xa0001ea0      0x400
 .stack         0xa0001ea0      0x400 stack

.bss            0xa0001e34       0x24
 .bss           0xa0001e34       0x24 build/PIC32_Standalone/production/menu.o

.data           0xa0001e58       0x1c
 .data          0xa0001e58       0x1c build/PIC32_Standalone/production/pars.o
                0xa0001e58                StrResume
                0xa0001e68                StrOffOnAuto

._debug_exception
                0xbfc00480       0x2c
 ._debug_exception
                0xbfc00480       0x2c f:/program files/microchip/xc32/v1.33/bin/bin/../../lib/gcc/pic32mx/4.5.2/../../../../pic32mx/lib/size\debug-exception-return.o
                0xbfc00480                __DbgExecReturn

.rodata         0x9d000000     0x1700
 .rodata        0x9d000000     0x1700 build/PIC32_Standalone/production/OLED.o
                0x9d000000                numbers32x48
                0x9d000900                degrees4x8
                0x9d000904                font8x8
                0x9d000d04                font6x8
                0x9d000ee4                degrees4x16
                0x9d000eec                font8x16
                0x9d0016ec                OLEDInitBuff1
                0x9d0016f4                OLEDInitBuff2

.text.OLEDTasks
                0x9d001700     0x1330
 .text.OLEDTasks
                0x9d001700     0x1330 build/PIC32_Standalone/production/menu.o
                0x9d001700                OLEDTasks

.text.USBDeviceTasks
                0x9d002a30     0x1230
 .text.USBDeviceTasks
                0x9d002a30     0x1230 build/PIC32_Standalone/production/usb/usb_device.o
                0x9d002a30                USBDeviceTasks

.text.PID       0x9d003c60      0xf38
 .text.PID      0x9d003c60      0xf38 build/PIC32_Standalone/production/PID.o
                0x9d003c60                PID

.text.ISRHigh   0x9d004b98      0xb5c
 .text.ISRHigh  0x9d004b98      0xb5c build/PIC32_Standalone/production/isr.o
                0x9d004b98                ISRHigh

.rodata         0x9d0056f4      0x8f4
 .rodata        0x9d0056f4      0x8f4 build/PIC32_Standalone/production/iron.o
                0x9d0056f4                IDHash
                0x9d005728                NoIronPars
                0x9d0057c8                Irons

.text.main      0x9d005fe8      0x8e4
 .text.main     0x9d005fe8      0x8e4 build/PIC32_Standalone/production/main.o
                0x9d005fe8                main

.rodata         0x9d0068cc      0x7d4
 .rodata        0x9d0068cc      0x7d4 f:/program files/microchip/xc32/v1.33/bin/bin/../../lib/gcc/pic32mx/4.5.2/../../../../pic32mx/lib/size\libmchp_peripheral_32MX534F064H.a(int_tbl_lib.o)
                0x9d0068cc                __IntSrcTbl
                0x9d006de8                __IntVectorTbl

.text.I2CISRTasks
                0x9d0070a0      0x6d0
 .text.I2CISRTasks
                0x9d0070a0      0x6d0 build/PIC32_Standalone/production/isr.o
                0x9d0070a0                I2CISRTasks

.text.ProcessIO
                0x9d007770      0x588
 .text.ProcessIO
                0x9d007770      0x588 build/PIC32_Standalone/production/io.o
                0x9d007770                ProcessIO

.text.MenuTasks
                0x9d007cf8      0x4d4
 .text.MenuTasks
                0x9d007cf8      0x4d4 build/PIC32_Standalone/production/menu.o
                0x9d007cf8                MenuTasks

.text.OLEDInit  0x9d0081cc      0x360
 .text.OLEDInit
                0x9d0081cc      0x360 build/PIC32_Standalone/production/OLED.o
                0x9d0081cc                OLEDInit

.text.IronIdentify
                0x9d00852c      0x350
 .text.IronIdentify
                0x9d00852c      0x350 build/PIC32_Standalone/production/iron.o
                0x9d00852c                IronIdentify

.text.mcuInit2  0x9d00887c      0x2e4
 .text.mcuInit2
                0x9d00887c      0x2e4 build/PIC32_Standalone/production/PIC32MX534F064H.o
                0x9d00887c                mcuInit2

.rodata         0x9d008b60      0x284
 .rodata        0x9d008b60      0x284 build/PIC32_Standalone/production/pars.o
                0x9d008c90                ParDef

.text.USBDeviceInit
                0x9d008de4      0x1f4
 .text.USBDeviceInit
                0x9d008de4      0x1f4 build/PIC32_Standalone/production/usb/usb_device.o
                0x9d008de4                USBDeviceInit

.text.SpiChnOpen
                0x9d008fd8      0x170
 .text.SpiChnOpen
                0x9d008fd8      0x170 f:/program files/microchip/xc32/v1.33/bin/bin/../../lib/gcc/pic32mx/4.5.2/../../../../pic32mx/lib/size\libmchp_peripheral_32MX534F064H.a(spi_chn_open_lib.o)
                0x9d008fd8                SpiChnOpen

.text.mcuInit1  0x9d009148      0x168
 .text.mcuInit1
                0x9d009148      0x168 build/PIC32_Standalone/production/PIC32MX534F064H.o
                0x9d009148                mcuInit1

.text           0x9d0092b0      0x168
 .text          0x9d0092b0      0x168 f:/program files/microchip/xc32/v1.33/bin/bin/../../lib/gcc/pic32mx/4.5.2/../../../../pic32mx/lib/size\libpic32.a(memcpy.o)
                0x9d0092b0                memcpy

.text.USBCheckHIDRequest
                0x9d009418      0x160
 .text.USBCheckHIDRequest
                0x9d009418      0x160 build/PIC32_Standalone/production/usb/usb_function_hid.o
                0x9d009418                USBCheckHIDRequest

.text.mcuADCStartAuto
                0x9d009578      0x140
 .text.mcuADCStartAuto
                0x9d009578      0x140 build/PIC32_Standalone/production/PIC32MX534F064H.o
                0x9d009578                mcuADCStartAuto

.text.LoadPars  0x9d0096b8      0x13c
 .text.LoadPars
                0x9d0096b8      0x13c build/PIC32_Standalone/production/main.o
                0x9d0096b8                LoadPars

.text.SavePars  0x9d0097f4      0x13c
 .text.SavePars
                0x9d0097f4      0x13c build/PIC32_Standalone/production/main.o
                0x9d0097f4                SavePars

.text.ComparatorISR
                0x9d009930      0x13c
 .text.ComparatorISR
                0x9d009930      0x13c build/PIC32_Standalone/production/PIC32MX534F064H.o
                0x9d009930                ComparatorISR

.text.OLEDPrintNum
                0x9d009a6c      0x134
 .text.OLEDPrintNum
                0x9d009a6c      0x134 build/PIC32_Standalone/production/OLED.o
                0x9d009a6c                OLEDPrintNum

.text.I2CISR    0x9d009ba0      0x130
 .text.I2CISR   0x9d009ba0      0x130 build/PIC32_Standalone/production/PIC32MX534F064H.o
                0x9d009ba0                I2CISR

.dinit          0x9d009cd0      0x130
 .dinit         0x9d009cd0      0x130 data_init

.text.USBCtrlEPAllowStatusStage
                0x9d009e00      0x12c
 .text.USBCtrlEPAllowStatusStage
                0x9d009e00      0x12c build/PIC32_Standalone/production/usb/usb_device.o
                0x9d009e00                USBCtrlEPAllowStatusStage

.text.OLEDUpdate
                0x9d009f2c      0x11c
 .text.OLEDUpdate
                0x9d009f2c      0x11c build/PIC32_Standalone/production/OLED.o
                0x9d009f2c                OLEDUpdate

.text.USBTransferOnePacket
                0x9d00a048      0x118
 .text.USBTransferOnePacket
                0x9d00a048      0x118 build/PIC32_Standalone/production/usb/usb_device.o
                0x9d00a048                USBTransferOnePacket

.text.ISRStart  0x9d00a160      0x114
 .text.ISRStart
                0x9d00a160      0x114 build/PIC32_Standalone/production/isr.o
                0x9d00a160                ISRStart

.text.mcuADCStop
                0x9d00a274      0x110
 .text.mcuADCStop
                0x9d00a274      0x110 build/PIC32_Standalone/production/PIC32MX534F064H.o
                0x9d00a274                mcuADCStop

.text.PIDISR    0x9d00a384      0x110
 .text.PIDISR   0x9d00a384      0x110 build/PIC32_Standalone/production/PIC32MX534F064H.o
                0x9d00a384                PIDISR

.text.OLEDPrintCF1648
                0x9d00a494       0xfc
 .text.OLEDPrintCF1648
                0x9d00a494       0xfc build/PIC32_Standalone/production/OLED.o
                0x9d00a494                OLEDPrintCF1648

.text.USBCtrlTrfTxService
                0x9d00a590       0xf8
 .text.USBCtrlTrfTxService
                0x9d00a590       0xf8 build/PIC32_Standalone/production/usb/usb_device.o

.text.OLEDPrint
                0x9d00a688       0xec
 .text.OLEDPrint
                0x9d00a688       0xec build/PIC32_Standalone/production/OLED.o
                0x9d00a688                OLEDPrint

.text.OLEDPrintGr
                0x9d00a774       0xec
 .text.OLEDPrintGr
                0x9d00a774       0xec build/PIC32_Standalone/production/OLED.o
                0x9d00a774                OLEDPrintGr

.text.mcuI2CReset
                0x9d00a860       0xe8
 .text.mcuI2CReset
                0x9d00a860       0xe8 build/PIC32_Standalone/production/PIC32MX534F064H.o
                0x9d00a860                mcuI2CReset

.text.DmaChnOpen
                0x9d00a948       0xe4
 .text.DmaChnOpen
                0x9d00a948       0xe4 f:/program files/microchip/xc32/v1.33/bin/bin/../../lib/gcc/pic32mx/4.5.2/../../../../pic32mx/lib/size\libmchp_peripheral_32MX534F064H.a(dma_chn_open_lib.o)
                0x9d00a948                DmaChnOpen

.text.OLEDPrintNum3248
                0x9d00aa2c       0xdc
 .text.OLEDPrintNum3248
                0x9d00aa2c       0xdc build/PIC32_Standalone/production/OLED.o
                0x9d00aa2c                OLEDPrintNum3248

.text.general_exception
                0x9d00ab08       0xdc
 .text.general_exception
                0x9d00ab08       0xdc f:/program files/microchip/xc32/v1.33/bin/bin/../../lib/gcc/pic32mx/4.5.2/../../../../pic32mx/lib/size\libpic32.a(general-exception.o)
                0x9d00ab08                _general_exception_context

.rodata         0x9d00abe4       0xd4
 .rodata        0x9d00abe4       0xd4 build/PIC32_Standalone/production/usb/usb_descriptors.o
                0x9d00abe4                device_dsc
                0x9d00abf8                configDescriptor1
                0x9d00ac24                sd000
                0x9d00ac28                sd001
                0x9d00ac5c                sd002
                0x9d00ac8c                hid_rpt01
                0x9d00aca8                USB_CD_Ptr
                0x9d00acac                USB_SD_Ptr

.text.USBCtrlEPAllowDataStage
                0x9d00acb8       0xd0
 .text.USBCtrlEPAllowDataStage
                0x9d00acb8       0xd0 build/PIC32_Standalone/production/usb/usb_device.o
                0x9d00acb8                USBCtrlEPAllowDataStage

.text.ParDispNum
                0x9d00ad88       0xc4
 .text.ParDispNum
                0x9d00ad88       0xc4 build/PIC32_Standalone/production/pars.o
                0x9d00ad88                ParDispNum

.rodata         0x9d00ae4c       0xc0
 .rodata        0x9d00ae4c       0xc0 build/PIC32_Standalone/production/menu.o

.text.OLEDWriteGr
                0x9d00af0c       0xc0
 .text.OLEDWriteGr
                0x9d00af0c       0xc0 build/PIC32_Standalone/production/OLED.o
                0x9d00af0c                OLEDWriteGr

.text.mcuADCReadWait
                0x9d00afcc       0xbc
 .text.mcuADCReadWait
                0x9d00afcc       0xbc build/PIC32_Standalone/production/PIC32MX534F064H.o
                0x9d00afcc                mcuADCReadWait

.text.SpiChnClose
                0x9d00b088       0xbc
 .text.SpiChnClose
                0x9d00b088       0xbc f:/program files/microchip/xc32/v1.33/bin/bin/../../lib/gcc/pic32mx/4.5.2/../../../../pic32mx/lib/size\libmchp_peripheral_32MX534F064H.a(spi_chn_close_lib.o)
                0x9d00b088                SpiChnClose

.text.SpiChnPutS
                0x9d00b144       0xb8
 .text.SpiChnPutS
                0x9d00b144       0xb8 f:/program files/microchip/xc32/v1.33/bin/bin/../../lib/gcc/pic32mx/4.5.2/../../../../pic32mx/lib/size\libmchp_peripheral_32MX534F064H.a(spi_chn_puts_lib.o)
                0x9d00b144                SpiChnPutS

.text.IronTasks
                0x9d00b1fc       0xb4
 .text.IronTasks
                0x9d00b1fc       0xb4 build/PIC32_Standalone/production/iron.o
                0x9d00b1fc                IronTasks

.text.ADCISR    0x9d00b2b0       0xac
 .text.ADCISR   0x9d00b2b0       0xac build/PIC32_Standalone/production/PIC32MX534F064H.o
                0x9d00b2b0                ADCISR

.text.ISRInit   0x9d00b35c       0xa8
 .text.ISRInit  0x9d00b35c       0xa8 build/PIC32_Standalone/production/isr.o
                0x9d00b35c                ISRInit

.text           0x9d00b404       0xa8
 .text          0x9d00b404       0xa8 f:/program files/microchip/xc32/v1.33/bin/bin/../../lib/gcc/pic32mx/4.5.2/../../../../pic32mx/lib/size\libpic32.a(memset.o)
                0x9d00b404                memset

.text.ParDispCF
                0x9d00b4ac       0xa0
 .text.ParDispCF
                0x9d00b4ac       0xa0 build/PIC32_Standalone/production/pars.o
                0x9d00b4ac                ParDispCF

.rodata         0x9d00b54c       0xa0
 .rodata        0x9d00b54c       0xa0 f:/program files/microchip/xc32/v1.33/bin/bin/../../lib/gcc/pic32mx/4.5.2/../../../../pic32mx/lib/size\libmchp_peripheral_32MX534F064H.a(spi_io_tbl_libp.o)
                0x9d00b54c                _SpiIoTbl

.text.MenuInit  0x9d00b5ec       0x9c
 .text.MenuInit
                0x9d00b5ec       0x9c build/PIC32_Standalone/production/menu.o
                0x9d00b5ec                MenuInit

.text.OnPowerLost
                0x9d00b688       0x90
 .text.OnPowerLost
                0x9d00b688       0x90 build/PIC32_Standalone/production/isr.o
                0x9d00b688                OnPowerLost

.text.ISRStop   0x9d00b718       0x8c
 .text.ISRStop  0x9d00b718       0x8c build/PIC32_Standalone/production/isr.o
                0x9d00b718                ISRStop

.text.mcuADCStartManual
                0x9d00b7a4       0x88
 .text.mcuADCStartManual
                0x9d00b7a4       0x88 build/PIC32_Standalone/production/PIC32MX534F064H.o
                0x9d00b7a4                mcuADCStartManual

.text.ParDispTemp
                0x9d00b82c       0x88
 .text.ParDispTemp
                0x9d00b82c       0x88 build/PIC32_Standalone/production/pars.o
                0x9d00b82c                ParDispTemp

.text.Timer2ISR
                0x9d00b8b4       0x84
 .text.Timer2ISR
                0x9d00b8b4       0x84 build/PIC32_Standalone/production/PIC32MX534F064H.o
                0x9d00b8b4                Timer2ISR

.text.EEPRead   0x9d00b938       0x84
 .text.EEPRead  0x9d00b938       0x84 build/PIC32_Standalone/production/EEP.o
                0x9d00b938                EEPRead

.text.Timer1ISR
                0x9d00b9bc       0x7c
 .text.Timer1ISR
                0x9d00b9bc       0x7c build/PIC32_Standalone/production/PIC32MX534F064H.o
                0x9d00b9bc                Timer1ISR

.text.SoftReset
                0x9d00ba38       0x78
 .text.SoftReset
                0x9d00ba38       0x78 f:/program files/microchip/xc32/v1.33/bin/bin/../../lib/gcc/pic32mx/4.5.2/../../../../pic32mx/lib/size\libmchp_peripheral_32MX534F064H.a(soft_reset_lib.o)
                0x9d00ba38                SoftReset

.text.USBEnableEndpoint
                0x9d00bab0       0x6c
 .text.USBEnableEndpoint
                0x9d00bab0       0x6c build/PIC32_Standalone/production/usb/usb_device.o
                0x9d00bab0                USBEnableEndpoint

.text.mcuInitISRTimer
                0x9d00bb1c       0x6c
 .text.mcuInitISRTimer
                0x9d00bb1c       0x6c build/PIC32_Standalone/production/PIC32MX534F064H.o
                0x9d00bb1c                mcuInitISRTimer

.text.ParDispStr
                0x9d00bb88       0x6c
 .text.ParDispStr
                0x9d00bb88       0x6c build/PIC32_Standalone/production/pars.o
                0x9d00bb88                ParDispStr

.text.DmaChnSetTxfer
                0x9d00bbf4       0x68
 .text.DmaChnSetTxfer
                0x9d00bbf4       0x68 f:/program files/microchip/xc32/v1.33/bin/bin/../../lib/gcc/pic32mx/4.5.2/../../../../pic32mx/lib/size\libmchp_peripheral_32MX534F064H.a(dma_chn_set_txfer_lib.o)
                0x9d00bbf4                DmaChnSetTxfer

.text.USBConfigureEndpoint
                0x9d00bc5c       0x60
 .text.USBConfigureEndpoint
                0x9d00bc5c       0x60 build/PIC32_Standalone/production/usb/usb_device.o

.text.EEPWriteImm
                0x9d00bcbc       0x60
 .text.EEPWriteImm
                0x9d00bcbc       0x60 build/PIC32_Standalone/production/EEP.o
                0x9d00bcbc                EEPWriteImm

.text.OLEDWrite
                0x9d00bd1c       0x60
 .text.OLEDWrite
                0x9d00bd1c       0x60 build/PIC32_Standalone/production/OLED.o
                0x9d00bd1c                OLEDWrite

.text.ParDispNumOff
                0x9d00bd7c       0x5c
 .text.ParDispNumOff
                0x9d00bd7c       0x5c build/PIC32_Standalone/production/pars.o
                0x9d00bd7c                ParDispNumOff

.text.PIDInit   0x9d00bdd8       0x58
 .text.PIDInit  0x9d00bdd8       0x58 build/PIC32_Standalone/production/PID.o
                0x9d00bdd8                PIDInit

.text.I2CAddCommands
                0x9d00be30       0x54
 .text.I2CAddCommands
                0x9d00be30       0x54 build/PIC32_Standalone/production/isr.o
                0x9d00be30                I2CAddCommands

.text.SpiChnPutC
                0x9d00be84       0x54
 .text.SpiChnPutC
                0x9d00be84       0x54 f:/program files/microchip/xc32/v1.33/bin/bin/../../lib/gcc/pic32mx/4.5.2/../../../../pic32mx/lib/size\libmchp_peripheral_32MX534F064H.a(spi_chn_putc_lib.o)
                0x9d00be84                SpiChnPutC

.text.mcuADCRead
                0x9d00bed8       0x50
 .text.mcuADCRead
                0x9d00bed8       0x50 build/PIC32_Standalone/production/PIC32MX534F064H.o
                0x9d00bed8                mcuADCRead

.text.mcuSPIStop
                0x9d00bf28       0x50
 .text.mcuSPIStop
                0x9d00bf28       0x50 build/PIC32_Standalone/production/PIC32MX534F064H.o
                0x9d00bf28                mcuSPIStop

.text.OLEDInvert
                0x9d00bf78       0x50
 .text.OLEDInvert
                0x9d00bf78       0x50 build/PIC32_Standalone/production/OLED.o
                0x9d00bf78                OLEDInvert

.text.main_entry
                0x9d00bfc8       0x4c
 .text.main_entry
                0x9d00bfc8       0x4c f:/program files/microchip/xc32/v1.33/bin/bin/../../lib/gcc/pic32mx/4.5.2/../../../../pic32mx/lib/./proc/32MX534F064H/crt0_mips32r2.o
                0x9d00bff4                __crt0_exit

.text.USER_USB_CALLBACK_EVENT_HANDLER
                0x9d00c014       0x4c
 .text.USER_USB_CALLBACK_EVENT_HANDLER
                0x9d00c014       0x4c build/PIC32_Standalone/production/usb/usb_driver.o
                0x9d00c014                USER_USB_CALLBACK_EVENT_HANDLER

.text.OLEDFill  0x9d00c060       0x4c
 .text.OLEDFill
                0x9d00c060       0x4c build/PIC32_Standalone/production/OLED.o
                0x9d00c060                OLEDFill

.text.INTEnable
                0x9d00c0ac       0x4c
 .text.INTEnable
                0x9d00c0ac       0x4c f:/program files/microchip/xc32/v1.33/bin/bin/../../lib/gcc/pic32mx/4.5.2/../../../../pic32mx/lib/size\libmchp_peripheral_32MX534F064H.a(int_tbl_lib.o)
                0x9d00c0ac                INTEnable

.text.DmaChnAbortTxfer
                0x9d00c0f8       0x48
 .text.DmaChnAbortTxfer
                0x9d00c0f8       0x48 f:/program files/microchip/xc32/v1.33/bin/bin/../../lib/gcc/pic32mx/4.5.2/../../../../pic32mx/lib/size\libmchp_peripheral_32MX534F064H.a(dma_chn_abort_txfer_lib.o)
                0x9d00c0f8                DmaChnAbortTxfer

.rodata         0x9d00c140       0x48
 .rodata        0x9d00c140       0x48 f:/program files/microchip/xc32/v1.33/bin/bin/../../lib/gcc/pic32mx/4.5.2/../../../../pic32mx/lib/size\libmchp_peripheral_32MX534F064H.a(_ports_tbl_libp.o)
                0x9d00c140                PortRegTbl

.text.I2CSetFrequency
                0x9d00c188       0x48
 .text.I2CSetFrequency
                0x9d00c188       0x48 f:/program files/microchip/xc32/v1.33/bin/bin/../../lib/gcc/pic32mx/4.5.2/../../../../pic32mx/lib/size\libmchp_peripheral_32MX534F064H.a(I2CSetFrequency.o)
                0x9d00c188                I2CSetFrequency

.text._bootstrap_exception_handler
                0x9d00c1d0       0x48
 .text._bootstrap_exception_handler
                0x9d00c1d0       0x48 f:/program files/microchip/xc32/v1.33/bin/bin/../../lib/gcc/pic32mx/4.5.2/../../../../pic32mx/lib/size\libpic32.a(default-bootstrap-exception-handler.o)
                0x9d00c1d0                _bootstrap_exception_handler

.text._general_exception_handler
                0x9d00c218       0x48
 .text._general_exception_handler
                0x9d00c218       0x48 f:/program files/microchip/xc32/v1.33/bin/bin/../../lib/gcc/pic32mx/4.5.2/../../../../pic32mx/lib/size\libpic32.a(default-general-exception-handler.o)
                0x9d00c218                _general_exception_handler

.text.IOTasks   0x9d00c260       0x44
 .text.IOTasks  0x9d00c260       0x44 build/PIC32_Standalone/production/io.o
                0x9d00c260                IOTasks

.text.DelayTicks
                0x9d00c2a4       0x44
 .text.DelayTicks
                0x9d00c2a4       0x44 build/PIC32_Standalone/production/PIC32MX534F064H.o
                0x9d00c2a4                DelayTicks

.text.mcuReadTime_us
                0x9d00c2e8       0x44
 .text.mcuReadTime_us
                0x9d00c2e8       0x44 build/PIC32_Standalone/production/PIC32MX534F064H.o
                0x9d00c2e8                mcuReadTime_us

.text           0x9d00c32c       0x44
 .text          0x9d00c32c       0x44 f:/program files/microchip/xc32/v1.33/bin/bin/../../lib/gcc/pic32mx/4.5.2/../../../../pic32mx/lib/size\pic32_software_reset.o
                0x9d00c32c                __pic32_software_reset

.text.I2CAcknowledgeByte
                0x9d00c370       0x44
 .text.I2CAcknowledgeByte
                0x9d00c370       0x44 f:/program files/microchip/xc32/v1.33/bin/bin/../../lib/gcc/pic32mx/4.5.2/../../../../pic32mx/lib/size\libmchp_peripheral_32MX534F064H.a(I2CAcknowledgeByte.o)
                0x9d00c370                I2CAcknowledgeByte

.text           0x9d00c3b4       0x44
 .text          0x9d00c3b4       0x44 f:/program files/microchip/xc32/v1.33/bin/bin/../../lib/gcc/pic32mx/4.5.2/size\libgcc.a(_ashldi3.o)
                0x9d00c3b4                __ashldi3

.vector_default
                0x9d00c3f8       0x40
 .vector_default
                0x9d00c3f8       0x40 f:/program files/microchip/xc32/v1.33/bin/bin/../../lib/gcc/pic32mx/4.5.2/../../../../pic32mx/lib/size\libpic32.a(defaultinterrupt.o)
                0x9d00c3f8                _DefaultInterrupt

.text.USBCBInitEP
                0x9d00c438       0x3c
 .text.USBCBInitEP
                0x9d00c438       0x3c build/PIC32_Standalone/production/usb/usb_driver.o
                0x9d00c438                USBCBInitEP

.text.PORTSetPinsDigitalIn
                0x9d00c474       0x3c
 .text.PORTSetPinsDigitalIn
                0x9d00c474       0x3c f:/program files/microchip/xc32/v1.33/bin/bin/../../lib/gcc/pic32mx/4.5.2/../../../../pic32mx/lib/size\libmchp_peripheral_32MX534F064H.a(port_set_pins_digital_in_lib.o)
                0x9d00c474                PORTSetPinsDigitalIn

.text.PORTSetPinsDigitalOut
                0x9d00c4b0       0x3c
 .text.PORTSetPinsDigitalOut
                0x9d00c4b0       0x3c f:/program files/microchip/xc32/v1.33/bin/bin/../../lib/gcc/pic32mx/4.5.2/../../../../pic32mx/lib/size\libmchp_peripheral_32MX534F064H.a(port_set_pins_digital_out_lib.o)
                0x9d00c4b0                PORTSetPinsDigitalOut

.text.INTSetVectorPriority
                0x9d00c4ec       0x38
 .text.INTSetVectorPriority
                0x9d00c4ec       0x38 f:/program files/microchip/xc32/v1.33/bin/bin/../../lib/gcc/pic32mx/4.5.2/../../../../pic32mx/lib/size\libmchp_peripheral_32MX534F064H.a(int_tbl_lib.o)
                0x9d00c4ec                INTSetVectorPriority

.text.INTSetVectorSubPriority
                0x9d00c524       0x38
 .text.INTSetVectorSubPriority
                0x9d00c524       0x38 f:/program files/microchip/xc32/v1.33/bin/bin/../../lib/gcc/pic32mx/4.5.2/../../../../pic32mx/lib/size\libmchp_peripheral_32MX534F064H.a(int_tbl_lib.o)
                0x9d00c524                INTSetVectorSubPriority

.text.I2CReceiverEnable
                0x9d00c55c       0x38
 .text.I2CReceiverEnable
                0x9d00c55c       0x38 f:/program files/microchip/xc32/v1.33/bin/bin/../../lib/gcc/pic32mx/4.5.2/../../../../pic32mx/lib/size\libmchp_peripheral_32MX534F064H.a(I2CReceiverEnable.o)
                0x9d00c55c                I2CReceiverEnable

.text.IronInit  0x9d00c594       0x34
 .text.IronInit
                0x9d00c594       0x34 build/PIC32_Standalone/production/iron.o
                0x9d00c594                IronInit

.text.IOInit    0x9d00c5c8       0x34
 .text.IOInit   0x9d00c5c8       0x34 build/PIC32_Standalone/production/io.o
                0x9d00c5c8                IOInit

.text.mcuSqrt   0x9d00c5fc       0x34
 .text.mcuSqrt  0x9d00c5fc       0x34 build/PIC32_Standalone/production/PIC32MX534F064H.o
                0x9d00c5fc                mcuSqrt

.text.INTEnableSystemMultiVectoredInt
                0x9d00c630       0x34
 .text.INTEnableSystemMultiVectoredInt
                0x9d00c630       0x34 f:/program files/microchip/xc32/v1.33/bin/bin/../../lib/gcc/pic32mx/4.5.2/../../../../pic32mx/lib/size\libmchp_peripheral_32MX534F064H.a(int_enable_mv_int_lib.o)
                0x9d00c630                INTEnableSystemMultiVectoredInt

.text.DmaChnDisable
                0x9d00c664       0x34
 .text.DmaChnDisable
                0x9d00c664       0x34 f:/program files/microchip/xc32/v1.33/bin/bin/../../lib/gcc/pic32mx/4.5.2/../../../../pic32mx/lib/size\libmchp_peripheral_32MX534F064H.a(dma_chn_disable_lib.o)
                0x9d00c664                DmaChnDisable

.text.I2CSendByte
                0x9d00c698       0x34
 .text.I2CSendByte
                0x9d00c698       0x34 f:/program files/microchip/xc32/v1.33/bin/bin/../../lib/gcc/pic32mx/4.5.2/../../../../pic32mx/lib/size\libmchp_peripheral_32MX534F064H.a(I2CSendByte.o)
                0x9d00c698                I2CSendByte

.text.I2CStart  0x9d00c6cc       0x34
 .text.I2CStart
                0x9d00c6cc       0x34 f:/program files/microchip/xc32/v1.33/bin/bin/../../lib/gcc/pic32mx/4.5.2/../../../../pic32mx/lib/size\libmchp_peripheral_32MX534F064H.a(I2CStart.o)
                0x9d00c6cc                I2CStart

.text.mcuStartISRTimer
                0x9d00c700       0x2c
 .text.mcuStartISRTimer
                0x9d00c700       0x2c build/PIC32_Standalone/production/PIC32MX534F064H.o
                0x9d00c700                mcuStartISRTimer

.text.mcuStopISRTimer
                0x9d00c72c       0x2c
 .text.mcuStopISRTimer
                0x9d00c72c       0x2c build/PIC32_Standalone/production/PIC32MX534F064H.o
                0x9d00c72c                mcuStopISRTimer

.text.DmaChnWriteEventControlFlags
                0x9d00c758       0x2c
 .text.DmaChnWriteEventControlFlags
                0x9d00c758       0x2c f:/program files/microchip/xc32/v1.33/bin/bin/../../lib/gcc/pic32mx/4.5.2/../../../../pic32mx/lib/size\libmchp_peripheral_32MX534F064H.a(dma_chn_write_event_control_flags_lib.o)
                0x9d00c758                DmaChnWriteEventControlFlags

.text.DmaChnWriteEvEnableFlags
                0x9d00c784       0x2c
 .text.DmaChnWriteEvEnableFlags
                0x9d00c784       0x2c f:/program files/microchip/xc32/v1.33/bin/bin/../../lib/gcc/pic32mx/4.5.2/../../../../pic32mx/lib/size\libmchp_peripheral_32MX534F064H.a(dma_chn_write_ev_enable_flags_lib.o)
                0x9d00c784                DmaChnWriteEvEnableFlags

.text.INTClearFlag
                0x9d00c7b0       0x28
 .text.INTClearFlag
                0x9d00c7b0       0x28 f:/program files/microchip/xc32/v1.33/bin/bin/../../lib/gcc/pic32mx/4.5.2/../../../../pic32mx/lib/size\libmchp_peripheral_32MX534F064H.a(int_tbl_lib.o)
                0x9d00c7b0                INTClearFlag

.text.INTSetFlag
                0x9d00c7d8       0x28
 .text.INTSetFlag
                0x9d00c7d8       0x28 f:/program files/microchip/xc32/v1.33/bin/bin/../../lib/gcc/pic32mx/4.5.2/../../../../pic32mx/lib/size\libmchp_peripheral_32MX534F064H.a(int_tbl_lib.o)
                0x9d00c7d8                INTSetFlag

.text.PORTResetPins
                0x9d00c800       0x28
 .text.PORTResetPins
                0x9d00c800       0x28 f:/program files/microchip/xc32/v1.33/bin/bin/../../lib/gcc/pic32mx/4.5.2/../../../../pic32mx/lib/size\libmchp_peripheral_32MX534F064H.a(port_reset_pins_lib.o)
                0x9d00c800                PORTResetPins

.text.I2CEnable
                0x9d00c828       0x28
 .text.I2CEnable
                0x9d00c828       0x28 f:/program files/microchip/xc32/v1.33/bin/bin/../../lib/gcc/pic32mx/4.5.2/../../../../pic32mx/lib/size\libmchp_peripheral_32MX534F064H.a(I2CEnable.o)
                0x9d00c828                I2CEnable

.text.DmaChnEnable
                0x9d00c850       0x24
 .text.DmaChnEnable
                0x9d00c850       0x24 f:/program files/microchip/xc32/v1.33/bin/bin/../../lib/gcc/pic32mx/4.5.2/../../../../pic32mx/lib/size\libmchp_peripheral_32MX534F064H.a(dma_chn_enable_lib.o)
                0x9d00c850                DmaChnEnable

.text.I2CByteWasAcknowledged
                0x9d00c874       0x24
 .text.I2CByteWasAcknowledged
                0x9d00c874       0x24 f:/program files/microchip/xc32/v1.33/bin/bin/../../lib/gcc/pic32mx/4.5.2/../../../../pic32mx/lib/size\libmchp_peripheral_32MX534F064H.a(I2CByteWasAcknowledged.o)
                0x9d00c874                I2CByteWasAcknowledged

.text.I2CStop   0x9d00c898       0x24
 .text.I2CStop  0x9d00c898       0x24 f:/program files/microchip/xc32/v1.33/bin/bin/../../lib/gcc/pic32mx/4.5.2/../../../../pic32mx/lib/size\libmchp_peripheral_32MX534F064H.a(I2CStop.o)
                0x9d00c898                I2CStop

.text.mcuSPIWait
                0x9d00c8bc       0x20
 .text.mcuSPIWait
                0x9d00c8bc       0x20 build/PIC32_Standalone/production/PIC32MX534F064H.o
                0x9d00c8bc                mcuSPIWait

.text.OLEDFillGr
                0x9d00c8dc       0x20
 .text.OLEDFillGr
                0x9d00c8dc       0x20 build/PIC32_Standalone/production/OLED.o
                0x9d00c8dc                OLEDFillGr

.text.SpiChnIsBusy
                0x9d00c8fc       0x20
 .text.SpiChnIsBusy
                0x9d00c8fc       0x20 f:/program files/microchip/xc32/v1.33/bin/bin/../../lib/gcc/pic32mx/4.5.2/../../../../pic32mx/lib/size\libmchp_peripheral_32MX534F064H.a(spi_chn_is_busy_lib.o)
                0x9d00c8fc                SpiChnIsBusy

.text.DmaChnGetDstPnt
                0x9d00c91c       0x20
 .text.DmaChnGetDstPnt
                0x9d00c91c       0x20 f:/program files/microchip/xc32/v1.33/bin/bin/../../lib/gcc/pic32mx/4.5.2/../../../../pic32mx/lib/size\libmchp_peripheral_32MX534F064H.a(dma_chn_get_dst_pnt_lib.o)
                0x9d00c91c                DmaChnGetDstPnt

.text.I2CGetByte
                0x9d00c93c       0x20
 .text.I2CGetByte
                0x9d00c93c       0x20 f:/program files/microchip/xc32/v1.33/bin/bin/../../lib/gcc/pic32mx/4.5.2/../../../../pic32mx/lib/size\libmchp_peripheral_32MX534F064H.a(I2CGetByte.o)
                0x9d00c93c                I2CGetByte

.text.mcuDCTimerReset
                0x9d00c95c       0x1c
 .text.mcuDCTimerReset
                0x9d00c95c       0x1c build/PIC32_Standalone/production/PIC32MX534F064H.o
                0x9d00c95c                mcuDCTimerReset

.text.INTRestoreInterrupts
                0x9d00c978       0x1c
 .text.INTRestoreInterrupts
                0x9d00c978       0x1c f:/program files/microchip/xc32/v1.33/bin/bin/../../lib/gcc/pic32mx/4.5.2/../../../../pic32mx/lib/size\libmchp_peripheral_32MX534F064H.a(int_restore_interrupts_lib.o)
                0x9d00c978                INTRestoreInterrupts

.text.mcuJumpToBootLoader
                0x9d00c994       0x18
 .text.mcuJumpToBootLoader
                0x9d00c994       0x18 build/PIC32_Standalone/production/PIC32MX534F064H.o
                0x9d00c994                mcuJumpToBootLoader

.text           0x9d00c9ac       0x18
 .text          0x9d00c9ac       0x18 f:/program files/microchip/xc32/v1.33/bin/bin/../../lib/gcc/pic32mx/4.5.2/../../../../pic32mx/lib/size\libpic32.a(default-nmi-handler.o)
                0x9d00c9ac                _nmi_handler

.rodata         0x9d00c9c4       0x24
 .rodata        0x9d00c9c4       0x14 f:/program files/microchip/xc32/v1.33/bin/bin/../../lib/gcc/pic32mx/4.5.2/../../../../pic32mx/lib/size\libmchp_peripheral_32MX534F064H.a(spi_map_tbl_libp.o)
                0x9d00c9c4                _SpiMapTbl
 .rodata        0x9d00c9d8       0x10 f:/program files/microchip/xc32/v1.33/bin/bin/../../lib/gcc/pic32mx/4.5.2/../../../../pic32mx/lib/size\libmchp_peripheral_32MX534F064H.a(I2CPrivate.o)
                0x9d00c9d8                i2cBase

.text.USBDriverInit
                0x9d00c9e8        0xc
 .text.USBDriverInit
                0x9d00c9e8        0xc build/PIC32_Standalone/production/usb/usb_driver.o
                0x9d00c9e8                USBDriverInit

.text.OpenCoreTimer
                0x9d00c9f4        0xc
 .text.OpenCoreTimer
                0x9d00c9f4        0xc f:/program files/microchip/xc32/v1.33/bin/bin/../../lib/gcc/pic32mx/4.5.2/../../../../pic32mx/lib/size\libmchp_peripheral.a(open_core_timer_lib.o)
                0x9d00c9f4                OpenCoreTimer

.text.ReadCoreTimer
                0x9d00ca00        0x8
 .text.ReadCoreTimer
                0x9d00ca00        0x8 f:/program files/microchip/xc32/v1.33/bin/bin/../../lib/gcc/pic32mx/4.5.2/../../../../pic32mx/lib/size\libmchp_peripheral.a(read_core_timer_lib.o)
                0x9d00ca00                ReadCoreTimer

.text.INTEnableInterrupts
                0x9d00ca08        0x8
 .text.INTEnableInterrupts
                0x9d00ca08        0x8 f:/program files/microchip/xc32/v1.33/bin/bin/../../lib/gcc/pic32mx/4.5.2/../../../../pic32mx/lib/size\libmchp_peripheral_32MX534F064H.a(int_enable_interrupts_lib.o)
                0x9d00ca08                INTEnableInterrupts

.text.INTDisableInterrupts
                0x9d00ca10        0x8
 .text.INTDisableInterrupts
                0x9d00ca10        0x8 f:/program files/microchip/xc32/v1.33/bin/bin/../../lib/gcc/pic32mx/4.5.2/../../../../pic32mx/lib/size\libmchp_peripheral_32MX534F064H.a(int_disable_interrupts_lib.o)
                0x9d00ca10                INTDisableInterrupts

.text._on_reset
                0x9d00ca18        0x8
 .text._on_reset
                0x9d00ca18        0x8 f:/program files/microchip/xc32/v1.33/bin/bin/../../lib/gcc/pic32mx/4.5.2/../../../../pic32mx/lib/size\libpic32.a(default-on-reset.o)
                0x9d00ca18                _on_reset

.text._on_bootstrap
                0x9d00ca20        0x8
 .text._on_bootstrap
                0x9d00ca20        0x8 f:/program files/microchip/xc32/v1.33/bin/bin/../../lib/gcc/pic32mx/4.5.2/../../../../pic32mx/lib/size\libpic32.a(default-on-bootstrap.o)
                0x9d00ca20                _on_bootstrap

.rodata         0x9d00ca28        0x4
 .rodata        0x9d00ca28        0x4 f:/program files/microchip/xc32/v1.33/bin/bin/../../lib/gcc/pic32mx/4.5.2/../../../../pic32mx/lib/size\libmchp_peripheral_32MX534F064H.a(dma_reg_map_tbl_lib.o)
                0x9d00ca28                _DmaMapTbl
