Archive member included because of file (symbol)

f:/program files/microchip/xc32/v2.50/bin/bin/../../lib/gcc/pic32mx/4.8.3/../../../../pic32mx/lib/size\libmchp_peripheral.a(open_core_timer_lib.o)
                              build/PIC32_Standalone/production/PIC32MX534F064H.o (OpenCoreTimer)
f:/program files/microchip/xc32/v2.50/bin/bin/../../lib/gcc/pic32mx/4.8.3/../../../../pic32mx/lib/size\libmchp_peripheral.a(read_core_timer_lib.o)
                              build/PIC32_Standalone/production/PIC32MX534F064H.o (ReadCoreTimer)
f:/program files/microchip/xc32/v2.50/bin/bin/../../lib/gcc/pic32mx/4.8.3/../../../../pic32mx/lib/size\libmchp_peripheral_32MX534F064H.a(soft_reset_lib.o)
                              build/PIC32_Standalone/production/main.o (SoftReset)
f:/program files/microchip/xc32/v2.50/bin/bin/../../lib/gcc/pic32mx/4.8.3/../../../../pic32mx/lib/size\libmchp_peripheral_32MX534F064H.a(int_enable_interrupts_lib.o)
                              build/PIC32_Standalone/production/isr.o (INTEnableInterrupts)
f:/program files/microchip/xc32/v2.50/bin/bin/../../lib/gcc/pic32mx/4.8.3/../../../../pic32mx/lib/size\libmchp_peripheral_32MX534F064H.a(int_disable_interrupts_lib.o)
                              build/PIC32_Standalone/production/isr.o (INTDisableInterrupts)
f:/program files/microchip/xc32/v2.50/bin/bin/../../lib/gcc/pic32mx/4.8.3/../../../../pic32mx/lib/size\libmchp_peripheral_32MX534F064H.a(int_restore_interrupts_lib.o)
                              build/PIC32_Standalone/production/isr.o (INTRestoreInterrupts)
f:/program files/microchip/xc32/v2.50/bin/bin/../../lib/gcc/pic32mx/4.8.3/../../../../pic32mx/lib/size\libmchp_peripheral_32MX534F064H.a(int_enable_mv_int_lib.o)
                              build/PIC32_Standalone/production/main.o (INTEnableSystemMultiVectoredInt)
f:/program files/microchip/xc32/v2.50/bin/bin/../../lib/gcc/pic32mx/4.8.3/../../../../pic32mx/lib/size\libmchp_peripheral_32MX534F064H.a(int_tbl_lib.o)
                              build/PIC32_Standalone/production/usb/usb_device.o (INTClearFlag)
f:/program files/microchip/xc32/v2.50/bin/bin/../../lib/gcc/pic32mx/4.8.3/../../../../pic32mx/lib/size\libmchp_peripheral_32MX534F064H.a(spi_chn_close_lib.o)
                              build/PIC32_Standalone/production/OLED.o (SpiChnClose)
f:/program files/microchip/xc32/v2.50/bin/bin/../../lib/gcc/pic32mx/4.8.3/../../../../pic32mx/lib/size\libmchp_peripheral_32MX534F064H.a(spi_chn_open_lib.o)
                              build/PIC32_Standalone/production/OLED.o (SpiChnOpen)
f:/program files/microchip/xc32/v2.50/bin/bin/../../lib/gcc/pic32mx/4.8.3/../../../../pic32mx/lib/size\libmchp_peripheral_32MX534F064H.a(spi_chn_putc_lib.o)
                              build/PIC32_Standalone/production/OLED.o (SpiChnPutC)
f:/program files/microchip/xc32/v2.50/bin/bin/../../lib/gcc/pic32mx/4.8.3/../../../../pic32mx/lib/size\libmchp_peripheral_32MX534F064H.a(spi_chn_puts_lib.o)
                              build/PIC32_Standalone/production/OLED.o (SpiChnPutS)
f:/program files/microchip/xc32/v2.50/bin/bin/../../lib/gcc/pic32mx/4.8.3/../../../../pic32mx/lib/size\libmchp_peripheral_32MX534F064H.a(spi_chn_is_busy_lib.o)
                              build/PIC32_Standalone/production/PIC32MX534F064H.o (SpiChnIsBusy)
f:/program files/microchip/xc32/v2.50/bin/bin/../../lib/gcc/pic32mx/4.8.3/../../../../pic32mx/lib/size\libmchp_peripheral_32MX534F064H.a(spi_io_tbl_libp.o)
                              f:/program files/microchip/xc32/v2.50/bin/bin/../../lib/gcc/pic32mx/4.8.3/../../../../pic32mx/lib/size\libmchp_peripheral_32MX534F064H.a(spi_chn_close_lib.o) (_SpiIoTbl)
f:/program files/microchip/xc32/v2.50/bin/bin/../../lib/gcc/pic32mx/4.8.3/../../../../pic32mx/lib/size\libmchp_peripheral_32MX534F064H.a(spi_map_tbl_libp.o)
                              f:/program files/microchip/xc32/v2.50/bin/bin/../../lib/gcc/pic32mx/4.8.3/../../../../pic32mx/lib/size\libmchp_peripheral_32MX534F064H.a(spi_chn_close_lib.o) (_SpiMapTbl)
f:/program files/microchip/xc32/v2.50/bin/bin/../../lib/gcc/pic32mx/4.8.3/../../../../pic32mx/lib/size\libmchp_peripheral_32MX534F064H.a(dma_chn_abort_txfer_lib.o)
                              build/PIC32_Standalone/production/PIC32MX534F064H.o (DmaChnAbortTxfer)
f:/program files/microchip/xc32/v2.50/bin/bin/../../lib/gcc/pic32mx/4.8.3/../../../../pic32mx/lib/size\libmchp_peripheral_32MX534F064H.a(dma_chn_open_lib.o)
                              build/PIC32_Standalone/production/PIC32MX534F064H.o (DmaChnOpen)
f:/program files/microchip/xc32/v2.50/bin/bin/../../lib/gcc/pic32mx/4.8.3/../../../../pic32mx/lib/size\libmchp_peripheral_32MX534F064H.a(dma_chn_disable_lib.o)
                              build/PIC32_Standalone/production/PIC32MX534F064H.o (DmaChnDisable)
f:/program files/microchip/xc32/v2.50/bin/bin/../../lib/gcc/pic32mx/4.8.3/../../../../pic32mx/lib/size\libmchp_peripheral_32MX534F064H.a(dma_chn_enable_lib.o)
                              build/PIC32_Standalone/production/PIC32MX534F064H.o (DmaChnEnable)
f:/program files/microchip/xc32/v2.50/bin/bin/../../lib/gcc/pic32mx/4.8.3/../../../../pic32mx/lib/size\libmchp_peripheral_32MX534F064H.a(dma_chn_get_dst_pnt_lib.o)
                              build/PIC32_Standalone/production/isr.o (DmaChnGetDstPnt)
f:/program files/microchip/xc32/v2.50/bin/bin/../../lib/gcc/pic32mx/4.8.3/../../../../pic32mx/lib/size\libmchp_peripheral_32MX534F064H.a(dma_chn_write_event_control_flags_lib.o)
                              build/PIC32_Standalone/production/PIC32MX534F064H.o (DmaChnWriteEventControlFlags)
f:/program files/microchip/xc32/v2.50/bin/bin/../../lib/gcc/pic32mx/4.8.3/../../../../pic32mx/lib/size\libmchp_peripheral_32MX534F064H.a(dma_chn_set_txfer_lib.o)
                              build/PIC32_Standalone/production/PIC32MX534F064H.o (DmaChnSetTxfer)
f:/program files/microchip/xc32/v2.50/bin/bin/../../lib/gcc/pic32mx/4.8.3/../../../../pic32mx/lib/size\libmchp_peripheral_32MX534F064H.a(dma_chn_write_ev_enable_flags_lib.o)
                              build/PIC32_Standalone/production/PIC32MX534F064H.o (DmaChnWriteEvEnableFlags)
f:/program files/microchip/xc32/v2.50/bin/bin/../../lib/gcc/pic32mx/4.8.3/../../../../pic32mx/lib/size\libmchp_peripheral_32MX534F064H.a(dma_reg_map_tbl_lib.o)
                              f:/program files/microchip/xc32/v2.50/bin/bin/../../lib/gcc/pic32mx/4.8.3/../../../../pic32mx/lib/size\libmchp_peripheral_32MX534F064H.a(dma_chn_abort_txfer_lib.o) (_DmaMapTbl)
f:/program files/microchip/xc32/v2.50/bin/bin/../../lib/gcc/pic32mx/4.8.3/../../../../pic32mx/lib/size\libmchp_peripheral_32MX534F064H.a(port_reset_pins_lib.o)
                              f:/program files/microchip/xc32/v2.50/bin/bin/../../lib/gcc/pic32mx/4.8.3/../../../../pic32mx/lib/size\libmchp_peripheral_32MX534F064H.a(spi_chn_close_lib.o) (PORTResetPins)
f:/program files/microchip/xc32/v2.50/bin/bin/../../lib/gcc/pic32mx/4.8.3/../../../../pic32mx/lib/size\libmchp_peripheral_32MX534F064H.a(port_set_pins_digital_in_lib.o)
                              f:/program files/microchip/xc32/v2.50/bin/bin/../../lib/gcc/pic32mx/4.8.3/../../../../pic32mx/lib/size\libmchp_peripheral_32MX534F064H.a(spi_chn_open_lib.o) (PORTSetPinsDigitalIn)
f:/program files/microchip/xc32/v2.50/bin/bin/../../lib/gcc/pic32mx/4.8.3/../../../../pic32mx/lib/size\libmchp_peripheral_32MX534F064H.a(port_set_pins_digital_out_lib.o)
                              f:/program files/microchip/xc32/v2.50/bin/bin/../../lib/gcc/pic32mx/4.8.3/../../../../pic32mx/lib/size\libmchp_peripheral_32MX534F064H.a(spi_chn_open_lib.o) (PORTSetPinsDigitalOut)
f:/program files/microchip/xc32/v2.50/bin/bin/../../lib/gcc/pic32mx/4.8.3/../../../../pic32mx/lib/size\libmchp_peripheral_32MX534F064H.a(_ports_tbl_libp.o)
                              f:/program files/microchip/xc32/v2.50/bin/bin/../../lib/gcc/pic32mx/4.8.3/../../../../pic32mx/lib/size\libmchp_peripheral_32MX534F064H.a(port_reset_pins_lib.o) (PortRegTbl)
f:/program files/microchip/xc32/v2.50/bin/bin/../../lib/gcc/pic32mx/4.8.3/../../../../pic32mx/lib/size\libmchp_peripheral_32MX534F064H.a(I2CAcknowledgeByte.o)
                              build/PIC32_Standalone/production/isr.o (I2CAcknowledgeByte)
f:/program files/microchip/xc32/v2.50/bin/bin/../../lib/gcc/pic32mx/4.8.3/../../../../pic32mx/lib/size\libmchp_peripheral_32MX534F064H.a(I2CByteWasAcknowledged.o)
                              build/PIC32_Standalone/production/isr.o (I2CByteWasAcknowledged)
f:/program files/microchip/xc32/v2.50/bin/bin/../../lib/gcc/pic32mx/4.8.3/../../../../pic32mx/lib/size\libmchp_peripheral_32MX534F064H.a(I2CEnable.o)
                              build/PIC32_Standalone/production/PIC32MX534F064H.o (I2CEnable)
f:/program files/microchip/xc32/v2.50/bin/bin/../../lib/gcc/pic32mx/4.8.3/../../../../pic32mx/lib/size\libmchp_peripheral_32MX534F064H.a(I2CGetByte.o)
                              build/PIC32_Standalone/production/isr.o (I2CGetByte)
f:/program files/microchip/xc32/v2.50/bin/bin/../../lib/gcc/pic32mx/4.8.3/../../../../pic32mx/lib/size\libmchp_peripheral_32MX534F064H.a(I2CReceiverEnable.o)
                              build/PIC32_Standalone/production/isr.o (I2CReceiverEnable)
f:/program files/microchip/xc32/v2.50/bin/bin/../../lib/gcc/pic32mx/4.8.3/../../../../pic32mx/lib/size\libmchp_peripheral_32MX534F064H.a(I2CSendByte.o)
                              build/PIC32_Standalone/production/isr.o (I2CSendByte)
f:/program files/microchip/xc32/v2.50/bin/bin/../../lib/gcc/pic32mx/4.8.3/../../../../pic32mx/lib/size\libmchp_peripheral_32MX534F064H.a(I2CSetFrequency.o)
                              build/PIC32_Standalone/production/PIC32MX534F064H.o (I2CSetFrequency)
f:/program files/microchip/xc32/v2.50/bin/bin/../../lib/gcc/pic32mx/4.8.3/../../../../pic32mx/lib/size\libmchp_peripheral_32MX534F064H.a(I2CStart.o)
                              build/PIC32_Standalone/production/isr.o (I2CStart)
f:/program files/microchip/xc32/v2.50/bin/bin/../../lib/gcc/pic32mx/4.8.3/../../../../pic32mx/lib/size\libmchp_peripheral_32MX534F064H.a(I2CStop.o)
                              build/PIC32_Standalone/production/isr.o (I2CStop)
f:/program files/microchip/xc32/v2.50/bin/bin/../../lib/gcc/pic32mx/4.8.3/../../../../pic32mx/lib/size\libmchp_peripheral_32MX534F064H.a(I2CPrivate.o)
                              f:/program files/microchip/xc32/v2.50/bin/bin/../../lib/gcc/pic32mx/4.8.3/../../../../pic32mx/lib/size\libmchp_peripheral_32MX534F064H.a(I2CAcknowledgeByte.o) (i2cBase)
f:/program files/microchip/xc32/v2.50/bin/bin/../../lib/gcc/pic32mx/4.8.3/../../../../pic32mx/lib/size\libpic32.a(memcpy.o)
                              build/PIC32_Standalone/production/iron.o (memcpy)
f:/program files/microchip/xc32/v2.50/bin/bin/../../lib/gcc/pic32mx/4.8.3/../../../../pic32mx/lib/size\libpic32.a(memset.o)
                              build/PIC32_Standalone/production/usb/usb_device.o (memset)
f:/program files/microchip/xc32/v2.50/bin/bin/../../lib/gcc/pic32mx/4.8.3/../../../../pic32mx/lib/size\libpic32.a(default-bootstrap-exception-handler.o)
                              C:\Users\Sparky\AppData\Local\Temp\ccKRlJUm.o (_bootstrap_exception_handler)
f:/program files/microchip/xc32/v2.50/bin/bin/../../lib/gcc/pic32mx/4.8.3/../../../../pic32mx/lib/size\libpic32.a(default-on-reset.o)
                              C:\Users\Sparky\AppData\Local\Temp\ccKRlJUm.o (_on_reset)
f:/program files/microchip/xc32/v2.50/bin/bin/../../lib/gcc/pic32mx/4.8.3/../../../../pic32mx/lib/size\libpic32.a(default-on-bootstrap.o)
                              C:\Users\Sparky\AppData\Local\Temp\ccKRlJUm.o (_on_bootstrap)
f:/program files/microchip/xc32/v2.50/bin/bin/../../lib/gcc/pic32mx/4.8.3/../../../../pic32mx/lib/size\libpic32.a(default-nmi-handler.o)
                              C:\Users\Sparky\AppData\Local\Temp\ccKRlJUm.o (_nmi_handler)
f:/program files/microchip/xc32/v2.50/bin/bin/../../lib/gcc/pic32mx/4.8.3/../../../../pic32mx/lib/size\libpic32.a(pic32_data_init.o)
                              C:\Users\Sparky\AppData\Local\Temp\ccKRlJUm.o (__pic32_data_init)
f:/program files/microchip/xc32/v2.50/bin/bin/../../lib/gcc/pic32mx/4.8.3/../../../../pic32mx/lib/size\libpic32.a(general-exception.o)
                              C:\Users\Sparky\AppData\Local\Temp\ccKRlJUm.o (_general_exception_context)
f:/program files/microchip/xc32/v2.50/bin/bin/../../lib/gcc/pic32mx/4.8.3/../../../../pic32mx/lib/size\libpic32.a(vector0.o)
                              C:\Users\Sparky\AppData\Local\Temp\ccGxd9Dz.o (__vector_dispatch_0)
f:/program files/microchip/xc32/v2.50/bin/bin/../../lib/gcc/pic32mx/4.8.3/../../../../pic32mx/lib/size\libpic32.a(vector1.o)
                              C:\Users\Sparky\AppData\Local\Temp\ccGxd9Dz.o (__vector_dispatch_1)
f:/program files/microchip/xc32/v2.50/bin/bin/../../lib/gcc/pic32mx/4.8.3/../../../../pic32mx/lib/size\libpic32.a(vector2.o)
                              C:\Users\Sparky\AppData\Local\Temp\ccGxd9Dz.o (__vector_dispatch_2)
f:/program files/microchip/xc32/v2.50/bin/bin/../../lib/gcc/pic32mx/4.8.3/../../../../pic32mx/lib/size\libpic32.a(vector3.o)
                              C:\Users\Sparky\AppData\Local\Temp\ccGxd9Dz.o (__vector_dispatch_3)
f:/program files/microchip/xc32/v2.50/bin/bin/../../lib/gcc/pic32mx/4.8.3/../../../../pic32mx/lib/size\libpic32.a(vector5.o)
                              C:\Users\Sparky\AppData\Local\Temp\ccGxd9Dz.o (__vector_dispatch_5)
f:/program files/microchip/xc32/v2.50/bin/bin/../../lib/gcc/pic32mx/4.8.3/../../../../pic32mx/lib/size\libpic32.a(vector6.o)
                              C:\Users\Sparky\AppData\Local\Temp\ccGxd9Dz.o (__vector_dispatch_6)
f:/program files/microchip/xc32/v2.50/bin/bin/../../lib/gcc/pic32mx/4.8.3/../../../../pic32mx/lib/size\libpic32.a(vector7.o)
                              C:\Users\Sparky\AppData\Local\Temp\ccGxd9Dz.o (__vector_dispatch_7)
f:/program files/microchip/xc32/v2.50/bin/bin/../../lib/gcc/pic32mx/4.8.3/../../../../pic32mx/lib/size\libpic32.a(vector9.o)
                              C:\Users\Sparky\AppData\Local\Temp\ccGxd9Dz.o (__vector_dispatch_9)
f:/program files/microchip/xc32/v2.50/bin/bin/../../lib/gcc/pic32mx/4.8.3/../../../../pic32mx/lib/size\libpic32.a(vector11.o)
                              C:\Users\Sparky\AppData\Local\Temp\ccGxd9Dz.o (__vector_dispatch_11)
f:/program files/microchip/xc32/v2.50/bin/bin/../../lib/gcc/pic32mx/4.8.3/../../../../pic32mx/lib/size\libpic32.a(vector12.o)
                              C:\Users\Sparky\AppData\Local\Temp\ccGxd9Dz.o (__vector_dispatch_12)
f:/program files/microchip/xc32/v2.50/bin/bin/../../lib/gcc/pic32mx/4.8.3/../../../../pic32mx/lib/size\libpic32.a(vector13.o)
                              C:\Users\Sparky\AppData\Local\Temp\ccGxd9Dz.o (__vector_dispatch_13)
f:/program files/microchip/xc32/v2.50/bin/bin/../../lib/gcc/pic32mx/4.8.3/../../../../pic32mx/lib/size\libpic32.a(vector14.o)
                              C:\Users\Sparky\AppData\Local\Temp\ccGxd9Dz.o (__vector_dispatch_14)
f:/program files/microchip/xc32/v2.50/bin/bin/../../lib/gcc/pic32mx/4.8.3/../../../../pic32mx/lib/size\libpic32.a(vector15.o)
                              C:\Users\Sparky\AppData\Local\Temp\ccGxd9Dz.o (__vector_dispatch_15)
f:/program files/microchip/xc32/v2.50/bin/bin/../../lib/gcc/pic32mx/4.8.3/../../../../pic32mx/lib/size\libpic32.a(vector16.o)
                              C:\Users\Sparky\AppData\Local\Temp\ccGxd9Dz.o (__vector_dispatch_16)
f:/program files/microchip/xc32/v2.50/bin/bin/../../lib/gcc/pic32mx/4.8.3/../../../../pic32mx/lib/size\libpic32.a(vector17.o)
                              C:\Users\Sparky\AppData\Local\Temp\ccGxd9Dz.o (__vector_dispatch_17)
f:/program files/microchip/xc32/v2.50/bin/bin/../../lib/gcc/pic32mx/4.8.3/../../../../pic32mx/lib/size\libpic32.a(vector18.o)
                              C:\Users\Sparky\AppData\Local\Temp\ccGxd9Dz.o (__vector_dispatch_18)
f:/program files/microchip/xc32/v2.50/bin/bin/../../lib/gcc/pic32mx/4.8.3/../../../../pic32mx/lib/size\libpic32.a(vector19.o)
                              C:\Users\Sparky\AppData\Local\Temp\ccGxd9Dz.o (__vector_dispatch_19)
f:/program files/microchip/xc32/v2.50/bin/bin/../../lib/gcc/pic32mx/4.8.3/../../../../pic32mx/lib/size\libpic32.a(vector20.o)
                              C:\Users\Sparky\AppData\Local\Temp\ccGxd9Dz.o (__vector_dispatch_20)
f:/program files/microchip/xc32/v2.50/bin/bin/../../lib/gcc/pic32mx/4.8.3/../../../../pic32mx/lib/size\libpic32.a(vector21.o)
                              C:\Users\Sparky\AppData\Local\Temp\ccGxd9Dz.o (__vector_dispatch_21)
f:/program files/microchip/xc32/v2.50/bin/bin/../../lib/gcc/pic32mx/4.8.3/../../../../pic32mx/lib/size\libpic32.a(vector22.o)
                              C:\Users\Sparky\AppData\Local\Temp\ccGxd9Dz.o (__vector_dispatch_22)
f:/program files/microchip/xc32/v2.50/bin/bin/../../lib/gcc/pic32mx/4.8.3/../../../../pic32mx/lib/size\libpic32.a(vector23.o)
                              C:\Users\Sparky\AppData\Local\Temp\ccGxd9Dz.o (__vector_dispatch_23)
f:/program files/microchip/xc32/v2.50/bin/bin/../../lib/gcc/pic32mx/4.8.3/../../../../pic32mx/lib/size\libpic32.a(vector24.o)
                              C:\Users\Sparky\AppData\Local\Temp\ccGxd9Dz.o (__vector_dispatch_24)
f:/program files/microchip/xc32/v2.50/bin/bin/../../lib/gcc/pic32mx/4.8.3/../../../../pic32mx/lib/size\libpic32.a(vector25.o)
                              C:\Users\Sparky\AppData\Local\Temp\ccGxd9Dz.o (__vector_dispatch_25)
f:/program files/microchip/xc32/v2.50/bin/bin/../../lib/gcc/pic32mx/4.8.3/../../../../pic32mx/lib/size\libpic32.a(vector26.o)
                              C:\Users\Sparky\AppData\Local\Temp\ccGxd9Dz.o (__vector_dispatch_26)
f:/program files/microchip/xc32/v2.50/bin/bin/../../lib/gcc/pic32mx/4.8.3/../../../../pic32mx/lib/size\libpic32.a(vector28.o)
                              C:\Users\Sparky\AppData\Local\Temp\ccGxd9Dz.o (__vector_dispatch_28)
f:/program files/microchip/xc32/v2.50/bin/bin/../../lib/gcc/pic32mx/4.8.3/../../../../pic32mx/lib/size\libpic32.a(vector29.o)
                              C:\Users\Sparky\AppData\Local\Temp\ccGxd9Dz.o (__vector_dispatch_29)
f:/program files/microchip/xc32/v2.50/bin/bin/../../lib/gcc/pic32mx/4.8.3/../../../../pic32mx/lib/size\libpic32.a(vector32.o)
                              C:\Users\Sparky\AppData\Local\Temp\ccGxd9Dz.o (__vector_dispatch_32)
f:/program files/microchip/xc32/v2.50/bin/bin/../../lib/gcc/pic32mx/4.8.3/../../../../pic32mx/lib/size\libpic32.a(vector33.o)
                              C:\Users\Sparky\AppData\Local\Temp\ccGxd9Dz.o (__vector_dispatch_33)
f:/program files/microchip/xc32/v2.50/bin/bin/../../lib/gcc/pic32mx/4.8.3/../../../../pic32mx/lib/size\libpic32.a(vector34.o)
                              C:\Users\Sparky\AppData\Local\Temp\ccGxd9Dz.o (__vector_dispatch_34)
f:/program files/microchip/xc32/v2.50/bin/bin/../../lib/gcc/pic32mx/4.8.3/../../../../pic32mx/lib/size\libpic32.a(vector35.o)
                              C:\Users\Sparky\AppData\Local\Temp\ccGxd9Dz.o (__vector_dispatch_35)
f:/program files/microchip/xc32/v2.50/bin/bin/../../lib/gcc/pic32mx/4.8.3/../../../../pic32mx/lib/size\libpic32.a(vector36.o)
                              C:\Users\Sparky\AppData\Local\Temp\ccGxd9Dz.o (__vector_dispatch_36)
f:/program files/microchip/xc32/v2.50/bin/bin/../../lib/gcc/pic32mx/4.8.3/../../../../pic32mx/lib/size\libpic32.a(vector37.o)
                              C:\Users\Sparky\AppData\Local\Temp\ccGxd9Dz.o (__vector_dispatch_37)
f:/program files/microchip/xc32/v2.50/bin/bin/../../lib/gcc/pic32mx/4.8.3/../../../../pic32mx/lib/size\libpic32.a(vector38.o)
                              C:\Users\Sparky\AppData\Local\Temp\ccGxd9Dz.o (__vector_dispatch_38)
f:/program files/microchip/xc32/v2.50/bin/bin/../../lib/gcc/pic32mx/4.8.3/../../../../pic32mx/lib/size\libpic32.a(vector39.o)
                              C:\Users\Sparky\AppData\Local\Temp\ccGxd9Dz.o (__vector_dispatch_39)
f:/program files/microchip/xc32/v2.50/bin/bin/../../lib/gcc/pic32mx/4.8.3/../../../../pic32mx/lib/size\libpic32.a(vector40.o)
                              C:\Users\Sparky\AppData\Local\Temp\ccGxd9Dz.o (__vector_dispatch_40)
f:/program files/microchip/xc32/v2.50/bin/bin/../../lib/gcc/pic32mx/4.8.3/../../../../pic32mx/lib/size\libpic32.a(vector41.o)
                              C:\Users\Sparky\AppData\Local\Temp\ccGxd9Dz.o (__vector_dispatch_41)
f:/program files/microchip/xc32/v2.50/bin/bin/../../lib/gcc/pic32mx/4.8.3/../../../../pic32mx/lib/size\libpic32.a(vector42.o)
                              C:\Users\Sparky\AppData\Local\Temp\ccGxd9Dz.o (__vector_dispatch_42)
f:/program files/microchip/xc32/v2.50/bin/bin/../../lib/gcc/pic32mx/4.8.3/../../../../pic32mx/lib/size\libpic32.a(vector43.o)
                              C:\Users\Sparky\AppData\Local\Temp\ccGxd9Dz.o (__vector_dispatch_43)
f:/program files/microchip/xc32/v2.50/bin/bin/../../lib/gcc/pic32mx/4.8.3/../../../../pic32mx/lib/size\libpic32.a(vector44.o)
                              C:\Users\Sparky\AppData\Local\Temp\ccGxd9Dz.o (__vector_dispatch_44)
f:/program files/microchip/xc32/v2.50/bin/bin/../../lib/gcc/pic32mx/4.8.3/../../../../pic32mx/lib/size\libpic32.a(vector45.o)
                              C:\Users\Sparky\AppData\Local\Temp\ccGxd9Dz.o (__vector_dispatch_45)
f:/program files/microchip/xc32/v2.50/bin/bin/../../lib/gcc/pic32mx/4.8.3/../../../../pic32mx/lib/size\libpic32.a(vector46.o)
                              C:\Users\Sparky\AppData\Local\Temp\ccGxd9Dz.o (__vector_dispatch_46)
f:/program files/microchip/xc32/v2.50/bin/bin/../../lib/gcc/pic32mx/4.8.3/../../../../pic32mx/lib/size\libpic32.a(vector47.o)
                              C:\Users\Sparky\AppData\Local\Temp\ccGxd9Dz.o (__vector_dispatch_47)
f:/program files/microchip/xc32/v2.50/bin/bin/../../lib/gcc/pic32mx/4.8.3/../../../../pic32mx/lib/size\libpic32.a(vector48.o)
                              C:\Users\Sparky\AppData\Local\Temp\ccGxd9Dz.o (__vector_dispatch_48)
f:/program files/microchip/xc32/v2.50/bin/bin/../../lib/gcc/pic32mx/4.8.3/../../../../pic32mx/lib/size\libpic32.a(vector49.o)
                              C:\Users\Sparky\AppData\Local\Temp\ccGxd9Dz.o (__vector_dispatch_49)
f:/program files/microchip/xc32/v2.50/bin/bin/../../lib/gcc/pic32mx/4.8.3/../../../../pic32mx/lib/size\libpic32.a(vector50.o)
                              C:\Users\Sparky\AppData\Local\Temp\ccGxd9Dz.o (__vector_dispatch_50)
f:/program files/microchip/xc32/v2.50/bin/bin/../../lib/gcc/pic32mx/4.8.3/../../../../pic32mx/lib/size\libpic32.a(vector51.o)
                              C:\Users\Sparky\AppData\Local\Temp\ccGxd9Dz.o (__vector_dispatch_51)
f:/program files/microchip/xc32/v2.50/bin/bin/../../lib/gcc/pic32mx/4.8.3/../../../../pic32mx/lib/size\libpic32.a(default-general-exception-handler.o)
                              f:/program files/microchip/xc32/v2.50/bin/bin/../../lib/gcc/pic32mx/4.8.3/../../../../pic32mx/lib/size\libpic32.a(general-exception.o) (_general_exception_handler)
f:/program files/microchip/xc32/v2.50/bin/bin/../../lib/gcc/pic32mx/4.8.3/../../../../pic32mx/lib/size\libpic32.a(defaultinterrupt.o)
                              f:/program files/microchip/xc32/v2.50/bin/bin/../../lib/gcc/pic32mx/4.8.3/../../../../pic32mx/lib/size\libpic32.a(vector0.o) (_DefaultInterrupt)

Allocating common symbols
Common symbol       size              file

USBRxBuffer         0x40              build/PIC32_Standalone/production/usb/usb_driver.o
TIBuff              0x400             build/PIC32_Standalone/production/isr.o
CalCh               0x4               build/PIC32_Standalone/production/main.o
IronID              0x2               build/PIC32_Standalone/production/iron.o
pDst                0x4               build/PIC32_Standalone/production/usb/usb_device.o
EEPCntR             0x2               build/PIC32_Standalone/production/isr.o
EEPCntW             0x2               build/PIC32_Standalone/production/isr.o
InvertTicks         0x4               build/PIC32_Standalone/production/main.o
NoHeater            0x1               build/PIC32_Standalone/production/isr.o
USBDeferINDataStagePackets
                    0x4               build/PIC32_Standalone/production/usb/usb_device.o
BDT                 0x40              build/PIC32_Standalone/production/usb/usb_device.o
CtrlTrfData         0x8               build/PIC32_Standalone/production/usb/usb_device.o
OLEDTemp            0x4               build/PIC32_Standalone/production/menu.o
OLEDBUFF            0x400             build/PIC32_Standalone/production/OLED.o
USBDeferOUTDataStagePackets
                    0x4               build/PIC32_Standalone/production/usb/usb_device.o
ISRStep             0x4               build/PIC32_Standalone/production/isr.o
USBDeviceState      0x4               build/PIC32_Standalone/production/usb/usb_device.o
controlTransferState
                    0x1               build/PIC32_Standalone/production/usb/usb_device.o
endpoint_number     0x1               build/PIC32_Standalone/production/usb/usb_device.o
MAINS_PER           0x4               build/PIC32_Standalone/production/main.o
_MRT_LastCoreTimer  0x4               build/PIC32_Standalone/production/PIC32MX534F064H.o
BuffEmpty           0x4               build/PIC32_Standalone/production/io.o
CRTemp              0x4               build/PIC32_Standalone/production/PID.o
inPipes             0x10              build/PIC32_Standalone/production/usb/usb_device.o
pBDTEntryIn         0x8               build/PIC32_Standalone/production/usb/usb_device.o
I2CIdle             0x1               build/PIC32_Standalone/production/isr.o
VBuff               0x400             build/PIC32_Standalone/production/isr.o
ep_data_out         0x2               build/PIC32_Standalone/production/usb/usb_device.o
mcuADCRES           0x4               build/PIC32_Standalone/production/PIC32MX534F064H.o
ADCStep             0x4               build/PIC32_Standalone/production/isr.o
USBStatusStageEnabledFlag1
                    0x4               build/PIC32_Standalone/production/usb/usb_device.o
SPIAuto             0x4               build/PIC32_Standalone/production/PIC32MX534F064H.o
BeepTicks           0x4               build/PIC32_Standalone/production/main.o
KeepOff             0x4               build/PIC32_Standalone/production/isr.o
OLEDMsg1            0x4               build/PIC32_Standalone/production/menu.o
CompLowTime         0x4               build/PIC32_Standalone/production/isr.o
CTTemp              0x4               build/PIC32_Standalone/production/PID.o
EEPAddrR            0x2               build/PIC32_Standalone/production/isr.o
pars                0x11              build/PIC32_Standalone/production/main.o
EEPDataW            0x4               build/PIC32_Standalone/production/isr.o
Buff2               0x200             build/PIC32_Standalone/production/isr.o
USBStatusStageEnabledFlag2
                    0x4               build/PIC32_Standalone/production/usb/usb_device.o
pBDTEntryOut        0x8               build/PIC32_Standalone/production/usb/usb_device.o
I2CCCommand         0x4               build/PIC32_Standalone/production/isr.o
VTIBuffCnt          0x4               build/PIC32_Standalone/production/isr.o
BothEP0OutUOWNsSet  0x4               build/PIC32_Standalone/production/usb/usb_device.o
pBDTEntryEP0OutNext
                    0x4               build/PIC32_Standalone/production/usb/usb_device.o
CompLowTimeOff      0x4               build/PIC32_Standalone/production/isr.o
ShortCircuit        0x1               build/PIC32_Standalone/production/isr.o
USBBusIsSuspended   0x4               build/PIC32_Standalone/production/usb/usb_device.o
IronPars            0xa4              build/PIC32_Standalone/production/iron.o
I2CData             0x8               build/PIC32_Standalone/production/isr.o
I2CCommands         0x4               build/PIC32_Standalone/production/isr.o
MAINS_PER_Q_US      0x4               build/PIC32_Standalone/production/main.o
USBTxBuffer         0x40              build/PIC32_Standalone/production/usb/usb_driver.o
ISRTicks            0x4               build/PIC32_Standalone/production/isr.o
USBStatusStageTimeoutCounter
                    0x1               build/PIC32_Standalone/production/usb/usb_device.o
CJTemp              0x4               build/PIC32_Standalone/production/PID.o
I2CStep             0x4               build/PIC32_Standalone/production/isr.o
OLEDPower           0x4               build/PIC32_Standalone/production/menu.o
RTAvg               0x4               build/PIC32_Standalone/production/PID.o
CJTicks             0x4               build/PIC32_Standalone/production/isr.o
SetupPkt            0x8               build/PIC32_Standalone/production/usb/usb_device.o
ADCData             0x24              build/PIC32_Standalone/production/isr.o
MAINS_PER_H_US      0x4               build/PIC32_Standalone/production/main.o
ep_data_in          0x2               build/PIC32_Standalone/production/usb/usb_device.o
active_protocol     0x1               build/PIC32_Standalone/production/usb/usb_function_hid.o
OffDelayOff         0x4               build/PIC32_Standalone/production/isr.o
shortPacketStatus   0x1               build/PIC32_Standalone/production/usb/usb_device.o
EEPDataR            0x4               build/PIC32_Standalone/production/isr.o
pBDTEntryEP0OutCurrent
                    0x4               build/PIC32_Standalone/production/usb/usb_device.o
USBActiveConfiguration
                    0x1               build/PIC32_Standalone/production/usb/usb_device.o
RemoteWakeup        0x4               build/PIC32_Standalone/production/usb/usb_device.o
IronTicks           0x4               build/PIC32_Standalone/production/iron.o
OLEDMsg2            0x4               build/PIC32_Standalone/production/menu.o
PIDTicks            0x4               build/PIC32_Standalone/production/PID.o
EEPAddrW            0x2               build/PIC32_Standalone/production/isr.o
ISRStopped          0x4               build/PIC32_Standalone/production/isr.o
NoSensor            0x1               build/PIC32_Standalone/production/isr.o
CompLowTimeOn       0x4               build/PIC32_Standalone/production/isr.o
USTATcopy           0x1               build/PIC32_Standalone/production/usb/usb_device.o
PHEATER             0x1               build/PIC32_Standalone/production/isr.o
C_PER               0x4               build/PIC32_Standalone/production/main.o
T_PER               0x4               build/PIC32_Standalone/production/main.o
USBAlternateInterface
                    0x1               build/PIC32_Standalone/production/usb/usb_device.o
outPipes            0xb               build/PIC32_Standalone/production/usb/usb_device.o
USBDeferStatusStagePacket
                    0x4               build/PIC32_Standalone/production/usb/usb_device.o
PIDVars             0x290             build/PIC32_Standalone/production/PID.o
TTemp               0x4               build/PIC32_Standalone/production/main.o
MAINS_PER_US        0x4               build/PIC32_Standalone/production/main.o
idle_rate           0x1               build/PIC32_Standalone/production/usb/usb_function_hid.o
Buff1               0x200             build/PIC32_Standalone/production/isr.o

Microchip PIC32 Memory-Usage Report

kseg0 Program-Memory Usage
section                    address  length [bytes]      (dec)  Description
-------                 ----------  -------------------------  -----------
.rodata                 0x9d000000         0x1700        5888  Read-only const 
.text                   0x9d001700         0x29a8       10664  App's exec code 
.text                   0x9d0040a8         0x2174        8564  App's exec code 
.rodata                 0x9d00621c          0x960        2400  Read-only const 
.text                   0x9d006b7c         0x11bc        4540  App's exec code 
.text                   0x9d007d38          0x824        2084  App's exec code 
.rodata                 0x9d00855c          0x7d4        2004  Read-only const 
.text                   0x9d008d30          0x714        1812  App's exec code 
.text                   0x9d009444          0x2b8         696  App's exec code 
.rodata                 0x9d0096fc          0x290         656  Read-only const 
.text                   0x9d00998c          0x2fc         764  App's exec code 
.text.SpiChnOpen        0x9d009c88          0x140         320   
.dinit                  0x9d009dc8          0x130         304   
.rodata                 0x9d009ef8          0x114         276  Read-only const 
.text.DmaChnOpen        0x9d00a00c           0xe4         228   
.text.general_exception 0x9d00a0f0           0xdc         220   
.rodata                 0x9d00a1cc           0xd4         212  Read-only const 
.text                   0x9d00a2a0          0x1a0         416  App's exec code 
.text                   0x9d00a440           0xc4         196  App's exec code 
.text.SpiChnClose       0x9d00a504           0xb8         184   
.text.SpiChnPutS        0x9d00a5bc           0xb0         176   
.text                   0x9d00a66c           0xa8         168  App's exec code 
.rodata                 0x9d00a714           0xa0         160  Read-only const 
.text.SoftReset         0x9d00a7b4           0x88         136   
.text                   0x9d00a83c           0x84         132  App's exec code 
.text.DmaChnSetTxfer    0x9d00a8c0           0x68         104   
.text.main_entry        0x9d00a928           0x54          84   
.text.SpiChnPutC        0x9d00a97c           0x54          84   
.text.DmaChnAbortTxfer  0x9d00a9d0           0x48          72   
.rodata                 0x9d00aa18           0x48          72  Read-only const 
.text.I2CSetFrequency   0x9d00aa60           0x48          72   
.text._bootstrap_except 0x9d00aaa8           0x48          72   
.text._general_exceptio 0x9d00aaf0           0x48          72   
.vector_default         0x9d00ab38           0x48          72   
.text                   0x9d00ab80           0x44          68  App's exec code 
.text.I2CAcknowledgeByt 0x9d00abc4           0x44          68   
.text.INTSetVectorPrior 0x9d00ac08           0x3c          60   
.text.INTSetVectorSubPr 0x9d00ac44           0x3c          60   
.text.PORTSetPinsDigita 0x9d00ac80           0x3c          60   
.text.PORTSetPinsDigita 0x9d00acbc           0x3c          60   
.text.INTEnable         0x9d00acf8           0x38          56   
.text.INTEnableSystemMu 0x9d00ad30           0x34          52   
.text.DmaChnDisable     0x9d00ad64           0x34          52   
.text.I2CReceiverEnable 0x9d00ad98           0x34          52   
.text.I2CSendByte       0x9d00adcc           0x30          48   
.text.I2CStart          0x9d00adfc           0x30          48   
.text.DmaChnWriteEventC 0x9d00ae2c           0x2c          44   
.text.DmaChnWriteEvEnab 0x9d00ae58           0x2c          44   
.text.INTClearFlag      0x9d00ae84           0x28          40   
.text.INTSetFlag        0x9d00aeac           0x28          40   
.text.PORTResetPins     0x9d00aed4           0x28          40   
.text.I2CEnable         0x9d00aefc           0x28          40   
.text.DmaChnEnable      0x9d00af24           0x24          36   
.text.I2CByteWasAcknowl 0x9d00af48           0x24          36   
.text.I2CStop           0x9d00af6c           0x24          36   
.text.SpiChnIsBusy      0x9d00af90           0x20          32   
.text.DmaChnGetDstPnt   0x9d00afb0           0x20          32   
.text.I2CGetByte        0x9d00afd0           0x20          32   
.text.INTRestoreInterru 0x9d00aff0           0x1c          28   
.text                   0x9d00b00c           0x18          24  App's exec code 
.rodata                 0x9d00b024           0x24          36  Read-only const 
.text.OpenCoreTimer     0x9d00b048            0xc          12   
.text.ReadCoreTimer     0x9d00b054            0x8           8   
.text.INTEnableInterrup 0x9d00b05c            0x8           8   
.text.INTDisableInterru 0x9d00b064            0x8           8   
.text._on_reset         0x9d00b06c            0x8           8   
.text._on_bootstrap     0x9d00b074            0x8           8   
.rodata                 0x9d00b07c            0x4           4  Read-only const 
      Total kseg0_program_mem used  :      0xb080       45184  68.9% of 0x10000

kseg0 Boot-Memory Usage
section                    address  length [bytes]      (dec)  Description
-------                 ----------  -------------------------  -----------
         Total kseg0_boot_mem used  :           0           0  <1% of 0x970

Exception-Memory Usage 
section                    address  length [bytes]      (dec)  Description
-------                 ----------  -------------------------  -----------
.app_excpt              0x9fc01180           0x10          16  General-Exception 
.vector_0               0x9fc01200            0x8           8  Interrupt Vector 0 
.vector_1               0x9fc01220            0x8           8  Interrupt Vector 1 
.vector_2               0x9fc01240            0x8           8  Interrupt Vector 2 
.vector_3               0x9fc01260            0x8           8  Interrupt Vector 3 
.vector_4               0x9fc01280           0x10          16  Interrupt Vector 4 
.vector_5               0x9fc012a0            0x8           8  Interrupt Vector 5 
.vector_6               0x9fc012c0            0x8           8  Interrupt Vector 6 
.vector_7               0x9fc012e0            0x8           8  Interrupt Vector 7 
.vector_8               0x9fc01300           0x10          16  Interrupt Vector 8 
.vector_9               0x9fc01320            0x8           8  Interrupt Vector 9 
.vector_10              0x9fc01340           0x10          16  Interrupt Vector 10 
.vector_11              0x9fc01360            0x8           8  Interrupt Vector 11 
.vector_12              0x9fc01380            0x8           8  Interrupt Vector 12 
.vector_13              0x9fc013a0            0x8           8  Interrupt Vector 13 
.vector_14              0x9fc013c0            0x8           8  Interrupt Vector 14 
.vector_15              0x9fc013e0            0x8           8  Interrupt Vector 15 
.vector_16              0x9fc01400            0x8           8  Interrupt Vector 16 
.vector_17              0x9fc01420            0x8           8  Interrupt Vector 17 
.vector_18              0x9fc01440            0x8           8  Interrupt Vector 18 
.vector_19              0x9fc01460            0x8           8  Interrupt Vector 19 
.vector_20              0x9fc01480            0x8           8  Interrupt Vector 20 
.vector_21              0x9fc014a0            0x8           8  Interrupt Vector 21 
.vector_22              0x9fc014c0            0x8           8  Interrupt Vector 22 
.vector_23              0x9fc014e0            0x8           8  Interrupt Vector 23 
.vector_24              0x9fc01500            0x8           8  Interrupt Vector 24 
.vector_25              0x9fc01520            0x8           8  Interrupt Vector 25 
.vector_26              0x9fc01540            0x8           8  Interrupt Vector 26 
.vector_27              0x9fc01560           0x10          16  Interrupt Vector 27 
.vector_28              0x9fc01580            0x8           8  Interrupt Vector 28 
.vector_29              0x9fc015a0            0x8           8  Interrupt Vector 29 
.vector_30              0x9fc015c0           0x10          16  Interrupt Vector 30 
.vector_31              0x9fc015e0           0x10          16  Interrupt Vector 31 
.vector_32              0x9fc01600            0x8           8  Interrupt Vector 32 
.vector_33              0x9fc01620            0x8           8  Interrupt Vector 33 
.vector_34              0x9fc01640            0x8           8  Interrupt Vector 34 
.vector_35              0x9fc01660            0x8           8  Interrupt Vector 35 
.vector_36              0x9fc01680            0x8           8  Interrupt Vector 36 
.vector_37              0x9fc016a0            0x8           8  Interrupt Vector 37 
.vector_38              0x9fc016c0            0x8           8  Interrupt Vector 38 
.vector_39              0x9fc016e0            0x8           8  Interrupt Vector 39 
.vector_40              0x9fc01700            0x8           8  Interrupt Vector 40 
.vector_41              0x9fc01720            0x8           8  Interrupt Vector 41 
.vector_42              0x9fc01740            0x8           8  Interrupt Vector 42 
.vector_43              0x9fc01760            0x8           8  Interrupt Vector 43 
.vector_44              0x9fc01780            0x8           8  Interrupt Vector 44 
.vector_45              0x9fc017a0            0x8           8  Interrupt Vector 45 
.vector_46              0x9fc017c0            0x8           8  Interrupt Vector 46 
.vector_47              0x9fc017e0            0x8           8  Interrupt Vector 47 
.vector_48              0x9fc01800            0x8           8  Interrupt Vector 48 
.vector_49              0x9fc01820            0x8           8  Interrupt Vector 49 
.vector_50              0x9fc01840            0x8           8  Interrupt Vector 50 
.vector_51              0x9fc01860            0x8           8  Interrupt Vector 51 
          Total exception_mem used  :       0x1e0         480  11.7% of 0x1000

kseg1 Boot-Memory Usage
section                    address  length [bytes]      (dec)  Description
-------                 ----------  -------------------------  -----------
.reset                  0xbfc00000          0x19c         412  Reset handler 
.bev_excpt              0xbfc00380           0x10          16  BEV-Exception 
         Total kseg1_boot_mem used  :       0x1ac         428  36.6% of 0x490
        --------------------------------------------------------------------------
         Total Program Memory used  :      0xb40c       46092  63.0% of 0x11e00
        --------------------------------------------------------------------------


kseg1 Data-Memory Usage
section                    address  length [bytes]      (dec)  Description
-------                 ----------  -------------------------  -----------
.sdata                  0xa0000000           0x24          36  Small init data 
.sbss                   0xa0000024          0x1d4         468  Small uninit data 
.bss                    0xa0000200         0x1448        5192  Uninitialized data 
.bss                    0xa0001648           0x24          36  Uninitialized data 
.data                   0xa000166c           0x1c          28  Initialized data 
         Total kseg1_data_mem used  :      0x1680        5760  35.2% of 0x4000
        --------------------------------------------------------------------------
            Total Data Memory used  :      0x1680        5760  35.2% of 0x4000
        --------------------------------------------------------------------------


Dynamic Data-Memory Reservation
section                    address  length [bytes]      (dec)  Description
-------                 ----------  -------------------------  -----------
heap                    0xa0001690           0x10          16  Reserved for heap 
stack                   0xa00016b8         0x2940       10560  Reserved for stack 

        --------------------------------------------------------------------------

Discarded input sections

 .text          0x00000000        0x0 f:/program files/microchip/xc32/v2.50/bin/bin/../../lib/gcc/pic32mx/4.8.3/../../../../pic32mx/lib/size\debug-exception-return.o
 .data          0x00000000        0x0 f:/program files/microchip/xc32/v2.50/bin/bin/../../lib/gcc/pic32mx/4.8.3/../../../../pic32mx/lib/size\debug-exception-return.o
 .bss           0x00000000        0x0 f:/program files/microchip/xc32/v2.50/bin/bin/../../lib/gcc/pic32mx/4.8.3/../../../../pic32mx/lib/size\debug-exception-return.o
 .text          0x00000000        0x0 build/PIC32_Standalone/production/usb/usb_descriptors.o
 .data          0x00000000        0x0 build/PIC32_Standalone/production/usb/usb_descriptors.o
 .bss           0x00000000        0x0 build/PIC32_Standalone/production/usb/usb_descriptors.o
 .reginfo       0x00000000       0x18 build/PIC32_Standalone/production/usb/usb_descriptors.o
 .data          0x00000000        0x0 build/PIC32_Standalone/production/usb/usb_device.o
 .bss           0x00000000        0x0 build/PIC32_Standalone/production/usb/usb_device.o
 .reginfo       0x00000000       0x18 build/PIC32_Standalone/production/usb/usb_device.o
 .data          0x00000000        0x0 build/PIC32_Standalone/production/usb/usb_driver.o
 .bss           0x00000000        0x0 build/PIC32_Standalone/production/usb/usb_driver.o
 .reginfo       0x00000000       0x18 build/PIC32_Standalone/production/usb/usb_driver.o
 .data          0x00000000        0x0 build/PIC32_Standalone/production/usb/usb_function_hid.o
 .bss           0x00000000        0x0 build/PIC32_Standalone/production/usb/usb_function_hid.o
 .reginfo       0x00000000       0x18 build/PIC32_Standalone/production/usb/usb_function_hid.o
 .text          0x00000000        0x0 build/PIC32_Standalone/production/usb/usb_hal_pic24.o
 .data          0x00000000        0x0 build/PIC32_Standalone/production/usb/usb_hal_pic24.o
 .bss           0x00000000        0x0 build/PIC32_Standalone/production/usb/usb_hal_pic24.o
 .reginfo       0x00000000       0x18 build/PIC32_Standalone/production/usb/usb_hal_pic24.o
 .data          0x00000000        0x0 build/PIC32_Standalone/production/main.o
 .bss           0x00000000        0x0 build/PIC32_Standalone/production/main.o
 .reginfo       0x00000000       0x18 build/PIC32_Standalone/production/main.o
 .data          0x00000000        0x0 build/PIC32_Standalone/production/isr.o
 .bss           0x00000000        0x0 build/PIC32_Standalone/production/isr.o
 .reginfo       0x00000000       0x18 build/PIC32_Standalone/production/isr.o
 .data          0x00000000        0x0 build/PIC32_Standalone/production/iron.o
 .bss           0x00000000        0x0 build/PIC32_Standalone/production/iron.o
 .reginfo       0x00000000       0x18 build/PIC32_Standalone/production/iron.o
 .data          0x00000000        0x0 build/PIC32_Standalone/production/PID.o
 .bss           0x00000000        0x0 build/PIC32_Standalone/production/PID.o
 .reginfo       0x00000000       0x18 build/PIC32_Standalone/production/PID.o
 .data          0x00000000        0x0 build/PIC32_Standalone/production/io.o
 .bss           0x00000000        0x0 build/PIC32_Standalone/production/io.o
 .reginfo       0x00000000       0x18 build/PIC32_Standalone/production/io.o
 .data          0x00000000        0x0 build/PIC32_Standalone/production/menu.o
 .reginfo       0x00000000       0x18 build/PIC32_Standalone/production/menu.o
 .data          0x00000000        0x0 build/PIC32_Standalone/production/PIC32MX534F064H.o
 .bss           0x00000000        0x0 build/PIC32_Standalone/production/PIC32MX534F064H.o
 .reginfo       0x00000000       0x18 build/PIC32_Standalone/production/PIC32MX534F064H.o
 .data          0x00000000        0x0 build/PIC32_Standalone/production/EEP.o
 .bss           0x00000000        0x0 build/PIC32_Standalone/production/EEP.o
 .reginfo       0x00000000       0x18 build/PIC32_Standalone/production/EEP.o
 .data          0x00000000        0x0 build/PIC32_Standalone/production/OLED.o
 .bss           0x00000000        0x0 build/PIC32_Standalone/production/OLED.o
 .reginfo       0x00000000       0x18 build/PIC32_Standalone/production/OLED.o
 .bss           0x00000000        0x0 build/PIC32_Standalone/production/pars.o
 .reginfo       0x00000000       0x18 build/PIC32_Standalone/production/pars.o
 .data          0x00000000        0x0 build/PIC32_Standalone/production/sensorMath.o
 .bss           0x00000000        0x0 build/PIC32_Standalone/production/sensorMath.o
 .reginfo       0x00000000       0x18 build/PIC32_Standalone/production/sensorMath.o
 .text          0x00000000        0x0 C:\Users\Sparky\AppData\Local\Temp\ccKRlJUm.o
 .data          0x00000000        0x0 C:\Users\Sparky\AppData\Local\Temp\ccKRlJUm.o
 .bss           0x00000000        0x0 C:\Users\Sparky\AppData\Local\Temp\ccKRlJUm.o
 .reginfo       0x00000000       0x18 C:\Users\Sparky\AppData\Local\Temp\ccKRlJUm.o
 .text          0x00000000        0x0 C:\Users\Sparky\AppData\Local\Temp\ccugLTpp.o
 .data          0x00000000        0x0 C:\Users\Sparky\AppData\Local\Temp\ccugLTpp.o
 .bss           0x00000000        0x0 C:\Users\Sparky\AppData\Local\Temp\ccugLTpp.o
 .reginfo       0x00000000       0x18 C:\Users\Sparky\AppData\Local\Temp\ccugLTpp.o
 .text          0x00000000        0x0 C:\Users\Sparky\AppData\Local\Temp\ccGxd9Dz.o
 .data          0x00000000        0x0 C:\Users\Sparky\AppData\Local\Temp\ccGxd9Dz.o
 .bss           0x00000000        0x0 C:\Users\Sparky\AppData\Local\Temp\ccGxd9Dz.o
 .reginfo       0x00000000       0x18 C:\Users\Sparky\AppData\Local\Temp\ccGxd9Dz.o
 .discard       0x00000000       0xd0 C:\Users\Sparky\AppData\Local\Temp\ccGxd9Dz.o
 .data          0x00000000        0x0 f:/program files/microchip/xc32/v2.50/bin/bin/../../lib/gcc/pic32mx/4.8.3/../../../../pic32mx/lib/size\pic32_software_reset.o
 .bss           0x00000000        0x0 f:/program files/microchip/xc32/v2.50/bin/bin/../../lib/gcc/pic32mx/4.8.3/../../../../pic32mx/lib/size\pic32_software_reset.o
 .reginfo       0x00000000       0x18 f:/program files/microchip/xc32/v2.50/bin/bin/../../lib/gcc/pic32mx/4.8.3/../../../../pic32mx/lib/size\pic32_software_reset.o
 .text          0x00000000        0x0 f:/program files/microchip/xc32/v2.50/bin/bin/../../lib/gcc/pic32mx/4.8.3/../../../../pic32mx/lib/./proc/32MX534F064H\processor.o
 .data          0x00000000        0x0 f:/program files/microchip/xc32/v2.50/bin/bin/../../lib/gcc/pic32mx/4.8.3/../../../../pic32mx/lib/./proc/32MX534F064H\processor.o
 .bss           0x00000000        0x0 f:/program files/microchip/xc32/v2.50/bin/bin/../../lib/gcc/pic32mx/4.8.3/../../../../pic32mx/lib/./proc/32MX534F064H\processor.o
 .reginfo       0x00000000       0x18 f:/program files/microchip/xc32/v2.50/bin/bin/../../lib/gcc/pic32mx/4.8.3/../../../../pic32mx/lib/./proc/32MX534F064H\processor.o
 .text          0x00000000        0x0 f:/program files/microchip/xc32/v2.50/bin/bin/../../lib/gcc/pic32mx/4.8.3/../../../../pic32mx/lib/size\libmchp_peripheral.a(open_core_timer_lib.o)
 .data          0x00000000        0x0 f:/program files/microchip/xc32/v2.50/bin/bin/../../lib/gcc/pic32mx/4.8.3/../../../../pic32mx/lib/size\libmchp_peripheral.a(open_core_timer_lib.o)
 .bss           0x00000000        0x0 f:/program files/microchip/xc32/v2.50/bin/bin/../../lib/gcc/pic32mx/4.8.3/../../../../pic32mx/lib/size\libmchp_peripheral.a(open_core_timer_lib.o)
 .reginfo       0x00000000       0x18 f:/program files/microchip/xc32/v2.50/bin/bin/../../lib/gcc/pic32mx/4.8.3/../../../../pic32mx/lib/size\libmchp_peripheral.a(open_core_timer_lib.o)
 .text          0x00000000        0x0 f:/program files/microchip/xc32/v2.50/bin/bin/../../lib/gcc/pic32mx/4.8.3/../../../../pic32mx/lib/size\libmchp_peripheral.a(read_core_timer_lib.o)
 .data          0x00000000        0x0 f:/program files/microchip/xc32/v2.50/bin/bin/../../lib/gcc/pic32mx/4.8.3/../../../../pic32mx/lib/size\libmchp_peripheral.a(read_core_timer_lib.o)
 .bss           0x00000000        0x0 f:/program files/microchip/xc32/v2.50/bin/bin/../../lib/gcc/pic32mx/4.8.3/../../../../pic32mx/lib/size\libmchp_peripheral.a(read_core_timer_lib.o)
 .reginfo       0x00000000       0x18 f:/program files/microchip/xc32/v2.50/bin/bin/../../lib/gcc/pic32mx/4.8.3/../../../../pic32mx/lib/size\libmchp_peripheral.a(read_core_timer_lib.o)
 .text          0x00000000        0x0 f:/program files/microchip/xc32/v2.50/bin/bin/../../lib/gcc/pic32mx/4.8.3/../../../../pic32mx/lib/size\libmchp_peripheral_32MX534F064H.a(soft_reset_lib.o)
 .data          0x00000000        0x0 f:/program files/microchip/xc32/v2.50/bin/bin/../../lib/gcc/pic32mx/4.8.3/../../../../pic32mx/lib/size\libmchp_peripheral_32MX534F064H.a(soft_reset_lib.o)
 .bss           0x00000000        0x0 f:/program files/microchip/xc32/v2.50/bin/bin/../../lib/gcc/pic32mx/4.8.3/../../../../pic32mx/lib/size\libmchp_peripheral_32MX534F064H.a(soft_reset_lib.o)
 .reginfo       0x00000000       0x18 f:/program files/microchip/xc32/v2.50/bin/bin/../../lib/gcc/pic32mx/4.8.3/../../../../pic32mx/lib/size\libmchp_peripheral_32MX534F064H.a(soft_reset_lib.o)
 .text          0x00000000        0x0 f:/program files/microchip/xc32/v2.50/bin/bin/../../lib/gcc/pic32mx/4.8.3/../../../../pic32mx/lib/size\libmchp_peripheral_32MX534F064H.a(int_enable_interrupts_lib.o)
 .data          0x00000000        0x0 f:/program files/microchip/xc32/v2.50/bin/bin/../../lib/gcc/pic32mx/4.8.3/../../../../pic32mx/lib/size\libmchp_peripheral_32MX534F064H.a(int_enable_interrupts_lib.o)
 .bss           0x00000000        0x0 f:/program files/microchip/xc32/v2.50/bin/bin/../../lib/gcc/pic32mx/4.8.3/../../../../pic32mx/lib/size\libmchp_peripheral_32MX534F064H.a(int_enable_interrupts_lib.o)
 .reginfo       0x00000000       0x18 f:/program files/microchip/xc32/v2.50/bin/bin/../../lib/gcc/pic32mx/4.8.3/../../../../pic32mx/lib/size\libmchp_peripheral_32MX534F064H.a(int_enable_interrupts_lib.o)
 .text          0x00000000        0x0 f:/program files/microchip/xc32/v2.50/bin/bin/../../lib/gcc/pic32mx/4.8.3/../../../../pic32mx/lib/size\libmchp_peripheral_32MX534F064H.a(int_disable_interrupts_lib.o)
 .data          0x00000000        0x0 f:/program files/microchip/xc32/v2.50/bin/bin/../../lib/gcc/pic32mx/4.8.3/../../../../pic32mx/lib/size\libmchp_peripheral_32MX534F064H.a(int_disable_interrupts_lib.o)
 .bss           0x00000000        0x0 f:/program files/microchip/xc32/v2.50/bin/bin/../../lib/gcc/pic32mx/4.8.3/../../../../pic32mx/lib/size\libmchp_peripheral_32MX534F064H.a(int_disable_interrupts_lib.o)
 .reginfo       0x00000000       0x18 f:/program files/microchip/xc32/v2.50/bin/bin/../../lib/gcc/pic32mx/4.8.3/../../../../pic32mx/lib/size\libmchp_peripheral_32MX534F064H.a(int_disable_interrupts_lib.o)
 .text          0x00000000        0x0 f:/program files/microchip/xc32/v2.50/bin/bin/../../lib/gcc/pic32mx/4.8.3/../../../../pic32mx/lib/size\libmchp_peripheral_32MX534F064H.a(int_restore_interrupts_lib.o)
 .data          0x00000000        0x0 f:/program files/microchip/xc32/v2.50/bin/bin/../../lib/gcc/pic32mx/4.8.3/../../../../pic32mx/lib/size\libmchp_peripheral_32MX534F064H.a(int_restore_interrupts_lib.o)
 .bss           0x00000000        0x0 f:/program files/microchip/xc32/v2.50/bin/bin/../../lib/gcc/pic32mx/4.8.3/../../../../pic32mx/lib/size\libmchp_peripheral_32MX534F064H.a(int_restore_interrupts_lib.o)
 .reginfo       0x00000000       0x18 f:/program files/microchip/xc32/v2.50/bin/bin/../../lib/gcc/pic32mx/4.8.3/../../../../pic32mx/lib/size\libmchp_peripheral_32MX534F064H.a(int_restore_interrupts_lib.o)
 .text          0x00000000        0x0 f:/program files/microchip/xc32/v2.50/bin/bin/../../lib/gcc/pic32mx/4.8.3/../../../../pic32mx/lib/size\libmchp_peripheral_32MX534F064H.a(int_enable_mv_int_lib.o)
 .data          0x00000000        0x0 f:/program files/microchip/xc32/v2.50/bin/bin/../../lib/gcc/pic32mx/4.8.3/../../../../pic32mx/lib/size\libmchp_peripheral_32MX534F064H.a(int_enable_mv_int_lib.o)
 .bss           0x00000000        0x0 f:/program files/microchip/xc32/v2.50/bin/bin/../../lib/gcc/pic32mx/4.8.3/../../../../pic32mx/lib/size\libmchp_peripheral_32MX534F064H.a(int_enable_mv_int_lib.o)
 .reginfo       0x00000000       0x18 f:/program files/microchip/xc32/v2.50/bin/bin/../../lib/gcc/pic32mx/4.8.3/../../../../pic32mx/lib/size\libmchp_peripheral_32MX534F064H.a(int_enable_mv_int_lib.o)
 .text          0x00000000        0x0 f:/program files/microchip/xc32/v2.50/bin/bin/../../lib/gcc/pic32mx/4.8.3/../../../../pic32mx/lib/size\libmchp_peripheral_32MX534F064H.a(int_tbl_lib.o)
 .data          0x00000000        0x0 f:/program files/microchip/xc32/v2.50/bin/bin/../../lib/gcc/pic32mx/4.8.3/../../../../pic32mx/lib/size\libmchp_peripheral_32MX534F064H.a(int_tbl_lib.o)
 .bss           0x00000000        0x0 f:/program files/microchip/xc32/v2.50/bin/bin/../../lib/gcc/pic32mx/4.8.3/../../../../pic32mx/lib/size\libmchp_peripheral_32MX534F064H.a(int_tbl_lib.o)
 .reginfo       0x00000000       0x18 f:/program files/microchip/xc32/v2.50/bin/bin/../../lib/gcc/pic32mx/4.8.3/../../../../pic32mx/lib/size\libmchp_peripheral_32MX534F064H.a(int_tbl_lib.o)
 .text.INTGetFlag
                0x00000000       0x28 f:/program files/microchip/xc32/v2.50/bin/bin/../../lib/gcc/pic32mx/4.8.3/../../../../pic32mx/lib/size\libmchp_peripheral_32MX534F064H.a(int_tbl_lib.o)
 .text.INTGetEnable
                0x00000000       0x28 f:/program files/microchip/xc32/v2.50/bin/bin/../../lib/gcc/pic32mx/4.8.3/../../../../pic32mx/lib/size\libmchp_peripheral_32MX534F064H.a(int_tbl_lib.o)
 .text.INTGetVectorPriority
                0x00000000       0x2c f:/program files/microchip/xc32/v2.50/bin/bin/../../lib/gcc/pic32mx/4.8.3/../../../../pic32mx/lib/size\libmchp_peripheral_32MX534F064H.a(int_tbl_lib.o)
 .text.INTGetVectorSubPriority
                0x00000000       0x2c f:/program files/microchip/xc32/v2.50/bin/bin/../../lib/gcc/pic32mx/4.8.3/../../../../pic32mx/lib/size\libmchp_peripheral_32MX534F064H.a(int_tbl_lib.o)
 .text          0x00000000        0x0 f:/program files/microchip/xc32/v2.50/bin/bin/../../lib/gcc/pic32mx/4.8.3/../../../../pic32mx/lib/size\libmchp_peripheral_32MX534F064H.a(spi_chn_close_lib.o)
 .data          0x00000000        0x0 f:/program files/microchip/xc32/v2.50/bin/bin/../../lib/gcc/pic32mx/4.8.3/../../../../pic32mx/lib/size\libmchp_peripheral_32MX534F064H.a(spi_chn_close_lib.o)
 .bss           0x00000000        0x0 f:/program files/microchip/xc32/v2.50/bin/bin/../../lib/gcc/pic32mx/4.8.3/../../../../pic32mx/lib/size\libmchp_peripheral_32MX534F064H.a(spi_chn_close_lib.o)
 .reginfo       0x00000000       0x18 f:/program files/microchip/xc32/v2.50/bin/bin/../../lib/gcc/pic32mx/4.8.3/../../../../pic32mx/lib/size\libmchp_peripheral_32MX534F064H.a(spi_chn_close_lib.o)
 .text          0x00000000        0x0 f:/program files/microchip/xc32/v2.50/bin/bin/../../lib/gcc/pic32mx/4.8.3/../../../../pic32mx/lib/size\libmchp_peripheral_32MX534F064H.a(spi_chn_open_lib.o)
 .data          0x00000000        0x0 f:/program files/microchip/xc32/v2.50/bin/bin/../../lib/gcc/pic32mx/4.8.3/../../../../pic32mx/lib/size\libmchp_peripheral_32MX534F064H.a(spi_chn_open_lib.o)
 .bss           0x00000000        0x0 f:/program files/microchip/xc32/v2.50/bin/bin/../../lib/gcc/pic32mx/4.8.3/../../../../pic32mx/lib/size\libmchp_peripheral_32MX534F064H.a(spi_chn_open_lib.o)
 .reginfo       0x00000000       0x18 f:/program files/microchip/xc32/v2.50/bin/bin/../../lib/gcc/pic32mx/4.8.3/../../../../pic32mx/lib/size\libmchp_peripheral_32MX534F064H.a(spi_chn_open_lib.o)
 .text          0x00000000        0x0 f:/program files/microchip/xc32/v2.50/bin/bin/../../lib/gcc/pic32mx/4.8.3/../../../../pic32mx/lib/size\libmchp_peripheral_32MX534F064H.a(spi_chn_putc_lib.o)
 .data          0x00000000        0x0 f:/program files/microchip/xc32/v2.50/bin/bin/../../lib/gcc/pic32mx/4.8.3/../../../../pic32mx/lib/size\libmchp_peripheral_32MX534F064H.a(spi_chn_putc_lib.o)
 .bss           0x00000000        0x0 f:/program files/microchip/xc32/v2.50/bin/bin/../../lib/gcc/pic32mx/4.8.3/../../../../pic32mx/lib/size\libmchp_peripheral_32MX534F064H.a(spi_chn_putc_lib.o)
 .reginfo       0x00000000       0x18 f:/program files/microchip/xc32/v2.50/bin/bin/../../lib/gcc/pic32mx/4.8.3/../../../../pic32mx/lib/size\libmchp_peripheral_32MX534F064H.a(spi_chn_putc_lib.o)
 .text.SpiChnWriteC
                0x00000000       0x20 f:/program files/microchip/xc32/v2.50/bin/bin/../../lib/gcc/pic32mx/4.8.3/../../../../pic32mx/lib/size\libmchp_peripheral_32MX534F064H.a(spi_chn_putc_lib.o)
 .text.SpiChnBuffer
                0x00000000       0x1c f:/program files/microchip/xc32/v2.50/bin/bin/../../lib/gcc/pic32mx/4.8.3/../../../../pic32mx/lib/size\libmchp_peripheral_32MX534F064H.a(spi_chn_putc_lib.o)
 .text          0x00000000        0x0 f:/program files/microchip/xc32/v2.50/bin/bin/../../lib/gcc/pic32mx/4.8.3/../../../../pic32mx/lib/size\libmchp_peripheral_32MX534F064H.a(spi_chn_puts_lib.o)
 .data          0x00000000        0x0 f:/program files/microchip/xc32/v2.50/bin/bin/../../lib/gcc/pic32mx/4.8.3/../../../../pic32mx/lib/size\libmchp_peripheral_32MX534F064H.a(spi_chn_puts_lib.o)
 .bss           0x00000000        0x0 f:/program files/microchip/xc32/v2.50/bin/bin/../../lib/gcc/pic32mx/4.8.3/../../../../pic32mx/lib/size\libmchp_peripheral_32MX534F064H.a(spi_chn_puts_lib.o)
 .reginfo       0x00000000       0x18 f:/program files/microchip/xc32/v2.50/bin/bin/../../lib/gcc/pic32mx/4.8.3/../../../../pic32mx/lib/size\libmchp_peripheral_32MX534F064H.a(spi_chn_puts_lib.o)
 .text          0x00000000        0x0 f:/program files/microchip/xc32/v2.50/bin/bin/../../lib/gcc/pic32mx/4.8.3/../../../../pic32mx/lib/size\libmchp_peripheral_32MX534F064H.a(spi_chn_is_busy_lib.o)
 .data          0x00000000        0x0 f:/program files/microchip/xc32/v2.50/bin/bin/../../lib/gcc/pic32mx/4.8.3/../../../../pic32mx/lib/size\libmchp_peripheral_32MX534F064H.a(spi_chn_is_busy_lib.o)
 .bss           0x00000000        0x0 f:/program files/microchip/xc32/v2.50/bin/bin/../../lib/gcc/pic32mx/4.8.3/../../../../pic32mx/lib/size\libmchp_peripheral_32MX534F064H.a(spi_chn_is_busy_lib.o)
 .reginfo       0x00000000       0x18 f:/program files/microchip/xc32/v2.50/bin/bin/../../lib/gcc/pic32mx/4.8.3/../../../../pic32mx/lib/size\libmchp_peripheral_32MX534F064H.a(spi_chn_is_busy_lib.o)
 .text.SpiChnIsSrEmpty
                0x00000000       0x20 f:/program files/microchip/xc32/v2.50/bin/bin/../../lib/gcc/pic32mx/4.8.3/../../../../pic32mx/lib/size\libmchp_peripheral_32MX534F064H.a(spi_chn_is_busy_lib.o)
 .text          0x00000000        0x0 f:/program files/microchip/xc32/v2.50/bin/bin/../../lib/gcc/pic32mx/4.8.3/../../../../pic32mx/lib/size\libmchp_peripheral_32MX534F064H.a(spi_io_tbl_libp.o)
 .data          0x00000000        0x0 f:/program files/microchip/xc32/v2.50/bin/bin/../../lib/gcc/pic32mx/4.8.3/../../../../pic32mx/lib/size\libmchp_peripheral_32MX534F064H.a(spi_io_tbl_libp.o)
 .bss           0x00000000        0x0 f:/program files/microchip/xc32/v2.50/bin/bin/../../lib/gcc/pic32mx/4.8.3/../../../../pic32mx/lib/size\libmchp_peripheral_32MX534F064H.a(spi_io_tbl_libp.o)
 .reginfo       0x00000000       0x18 f:/program files/microchip/xc32/v2.50/bin/bin/../../lib/gcc/pic32mx/4.8.3/../../../../pic32mx/lib/size\libmchp_peripheral_32MX534F064H.a(spi_io_tbl_libp.o)
 .text          0x00000000        0x0 f:/program files/microchip/xc32/v2.50/bin/bin/../../lib/gcc/pic32mx/4.8.3/../../../../pic32mx/lib/size\libmchp_peripheral_32MX534F064H.a(spi_map_tbl_libp.o)
 .data          0x00000000        0x0 f:/program files/microchip/xc32/v2.50/bin/bin/../../lib/gcc/pic32mx/4.8.3/../../../../pic32mx/lib/size\libmchp_peripheral_32MX534F064H.a(spi_map_tbl_libp.o)
 .bss           0x00000000        0x0 f:/program files/microchip/xc32/v2.50/bin/bin/../../lib/gcc/pic32mx/4.8.3/../../../../pic32mx/lib/size\libmchp_peripheral_32MX534F064H.a(spi_map_tbl_libp.o)
 .reginfo       0x00000000       0x18 f:/program files/microchip/xc32/v2.50/bin/bin/../../lib/gcc/pic32mx/4.8.3/../../../../pic32mx/lib/size\libmchp_peripheral_32MX534F064H.a(spi_map_tbl_libp.o)
 .text          0x00000000        0x0 f:/program files/microchip/xc32/v2.50/bin/bin/../../lib/gcc/pic32mx/4.8.3/../../../../pic32mx/lib/size\libmchp_peripheral_32MX534F064H.a(dma_chn_abort_txfer_lib.o)
 .data          0x00000000        0x0 f:/program files/microchip/xc32/v2.50/bin/bin/../../lib/gcc/pic32mx/4.8.3/../../../../pic32mx/lib/size\libmchp_peripheral_32MX534F064H.a(dma_chn_abort_txfer_lib.o)
 .bss           0x00000000        0x0 f:/program files/microchip/xc32/v2.50/bin/bin/../../lib/gcc/pic32mx/4.8.3/../../../../pic32mx/lib/size\libmchp_peripheral_32MX534F064H.a(dma_chn_abort_txfer_lib.o)
 .reginfo       0x00000000       0x18 f:/program files/microchip/xc32/v2.50/bin/bin/../../lib/gcc/pic32mx/4.8.3/../../../../pic32mx/lib/size\libmchp_peripheral_32MX534F064H.a(dma_chn_abort_txfer_lib.o)
 .text          0x00000000        0x0 f:/program files/microchip/xc32/v2.50/bin/bin/../../lib/gcc/pic32mx/4.8.3/../../../../pic32mx/lib/size\libmchp_peripheral_32MX534F064H.a(dma_chn_open_lib.o)
 .data          0x00000000        0x0 f:/program files/microchip/xc32/v2.50/bin/bin/../../lib/gcc/pic32mx/4.8.3/../../../../pic32mx/lib/size\libmchp_peripheral_32MX534F064H.a(dma_chn_open_lib.o)
 .bss           0x00000000        0x0 f:/program files/microchip/xc32/v2.50/bin/bin/../../lib/gcc/pic32mx/4.8.3/../../../../pic32mx/lib/size\libmchp_peripheral_32MX534F064H.a(dma_chn_open_lib.o)
 .reginfo       0x00000000       0x18 f:/program files/microchip/xc32/v2.50/bin/bin/../../lib/gcc/pic32mx/4.8.3/../../../../pic32mx/lib/size\libmchp_peripheral_32MX534F064H.a(dma_chn_open_lib.o)
 .text          0x00000000        0x0 f:/program files/microchip/xc32/v2.50/bin/bin/../../lib/gcc/pic32mx/4.8.3/../../../../pic32mx/lib/size\libmchp_peripheral_32MX534F064H.a(dma_chn_disable_lib.o)
 .data          0x00000000        0x0 f:/program files/microchip/xc32/v2.50/bin/bin/../../lib/gcc/pic32mx/4.8.3/../../../../pic32mx/lib/size\libmchp_peripheral_32MX534F064H.a(dma_chn_disable_lib.o)
 .bss           0x00000000        0x0 f:/program files/microchip/xc32/v2.50/bin/bin/../../lib/gcc/pic32mx/4.8.3/../../../../pic32mx/lib/size\libmchp_peripheral_32MX534F064H.a(dma_chn_disable_lib.o)
 .reginfo       0x00000000       0x18 f:/program files/microchip/xc32/v2.50/bin/bin/../../lib/gcc/pic32mx/4.8.3/../../../../pic32mx/lib/size\libmchp_peripheral_32MX534F064H.a(dma_chn_disable_lib.o)
 .text          0x00000000        0x0 f:/program files/microchip/xc32/v2.50/bin/bin/../../lib/gcc/pic32mx/4.8.3/../../../../pic32mx/lib/size\libmchp_peripheral_32MX534F064H.a(dma_chn_enable_lib.o)
 .data          0x00000000        0x0 f:/program files/microchip/xc32/v2.50/bin/bin/../../lib/gcc/pic32mx/4.8.3/../../../../pic32mx/lib/size\libmchp_peripheral_32MX534F064H.a(dma_chn_enable_lib.o)
 .bss           0x00000000        0x0 f:/program files/microchip/xc32/v2.50/bin/bin/../../lib/gcc/pic32mx/4.8.3/../../../../pic32mx/lib/size\libmchp_peripheral_32MX534F064H.a(dma_chn_enable_lib.o)
 .reginfo       0x00000000       0x18 f:/program files/microchip/xc32/v2.50/bin/bin/../../lib/gcc/pic32mx/4.8.3/../../../../pic32mx/lib/size\libmchp_peripheral_32MX534F064H.a(dma_chn_enable_lib.o)
 .text          0x00000000        0x0 f:/program files/microchip/xc32/v2.50/bin/bin/../../lib/gcc/pic32mx/4.8.3/../../../../pic32mx/lib/size\libmchp_peripheral_32MX534F064H.a(dma_chn_get_dst_pnt_lib.o)
 .data          0x00000000        0x0 f:/program files/microchip/xc32/v2.50/bin/bin/../../lib/gcc/pic32mx/4.8.3/../../../../pic32mx/lib/size\libmchp_peripheral_32MX534F064H.a(dma_chn_get_dst_pnt_lib.o)
 .bss           0x00000000        0x0 f:/program files/microchip/xc32/v2.50/bin/bin/../../lib/gcc/pic32mx/4.8.3/../../../../pic32mx/lib/size\libmchp_peripheral_32MX534F064H.a(dma_chn_get_dst_pnt_lib.o)
 .reginfo       0x00000000       0x18 f:/program files/microchip/xc32/v2.50/bin/bin/../../lib/gcc/pic32mx/4.8.3/../../../../pic32mx/lib/size\libmchp_peripheral_32MX534F064H.a(dma_chn_get_dst_pnt_lib.o)
 .text          0x00000000        0x0 f:/program files/microchip/xc32/v2.50/bin/bin/../../lib/gcc/pic32mx/4.8.3/../../../../pic32mx/lib/size\libmchp_peripheral_32MX534F064H.a(dma_chn_write_event_control_flags_lib.o)
 .data          0x00000000        0x0 f:/program files/microchip/xc32/v2.50/bin/bin/../../lib/gcc/pic32mx/4.8.3/../../../../pic32mx/lib/size\libmchp_peripheral_32MX534F064H.a(dma_chn_write_event_control_flags_lib.o)
 .bss           0x00000000        0x0 f:/program files/microchip/xc32/v2.50/bin/bin/../../lib/gcc/pic32mx/4.8.3/../../../../pic32mx/lib/size\libmchp_peripheral_32MX534F064H.a(dma_chn_write_event_control_flags_lib.o)
 .reginfo       0x00000000       0x18 f:/program files/microchip/xc32/v2.50/bin/bin/../../lib/gcc/pic32mx/4.8.3/../../../../pic32mx/lib/size\libmchp_peripheral_32MX534F064H.a(dma_chn_write_event_control_flags_lib.o)
 .text          0x00000000        0x0 f:/program files/microchip/xc32/v2.50/bin/bin/../../lib/gcc/pic32mx/4.8.3/../../../../pic32mx/lib/size\libmchp_peripheral_32MX534F064H.a(dma_chn_set_txfer_lib.o)
 .data          0x00000000        0x0 f:/program files/microchip/xc32/v2.50/bin/bin/../../lib/gcc/pic32mx/4.8.3/../../../../pic32mx/lib/size\libmchp_peripheral_32MX534F064H.a(dma_chn_set_txfer_lib.o)
 .bss           0x00000000        0x0 f:/program files/microchip/xc32/v2.50/bin/bin/../../lib/gcc/pic32mx/4.8.3/../../../../pic32mx/lib/size\libmchp_peripheral_32MX534F064H.a(dma_chn_set_txfer_lib.o)
 .reginfo       0x00000000       0x18 f:/program files/microchip/xc32/v2.50/bin/bin/../../lib/gcc/pic32mx/4.8.3/../../../../pic32mx/lib/size\libmchp_peripheral_32MX534F064H.a(dma_chn_set_txfer_lib.o)
 .text          0x00000000        0x0 f:/program files/microchip/xc32/v2.50/bin/bin/../../lib/gcc/pic32mx/4.8.3/../../../../pic32mx/lib/size\libmchp_peripheral_32MX534F064H.a(dma_chn_write_ev_enable_flags_lib.o)
 .data          0x00000000        0x0 f:/program files/microchip/xc32/v2.50/bin/bin/../../lib/gcc/pic32mx/4.8.3/../../../../pic32mx/lib/size\libmchp_peripheral_32MX534F064H.a(dma_chn_write_ev_enable_flags_lib.o)
 .bss           0x00000000        0x0 f:/program files/microchip/xc32/v2.50/bin/bin/../../lib/gcc/pic32mx/4.8.3/../../../../pic32mx/lib/size\libmchp_peripheral_32MX534F064H.a(dma_chn_write_ev_enable_flags_lib.o)
 .reginfo       0x00000000       0x18 f:/program files/microchip/xc32/v2.50/bin/bin/../../lib/gcc/pic32mx/4.8.3/../../../../pic32mx/lib/size\libmchp_peripheral_32MX534F064H.a(dma_chn_write_ev_enable_flags_lib.o)
 .text          0x00000000        0x0 f:/program files/microchip/xc32/v2.50/bin/bin/../../lib/gcc/pic32mx/4.8.3/../../../../pic32mx/lib/size\libmchp_peripheral_32MX534F064H.a(dma_reg_map_tbl_lib.o)
 .data          0x00000000        0x0 f:/program files/microchip/xc32/v2.50/bin/bin/../../lib/gcc/pic32mx/4.8.3/../../../../pic32mx/lib/size\libmchp_peripheral_32MX534F064H.a(dma_reg_map_tbl_lib.o)
 .bss           0x00000000        0x0 f:/program files/microchip/xc32/v2.50/bin/bin/../../lib/gcc/pic32mx/4.8.3/../../../../pic32mx/lib/size\libmchp_peripheral_32MX534F064H.a(dma_reg_map_tbl_lib.o)
 .reginfo       0x00000000       0x18 f:/program files/microchip/xc32/v2.50/bin/bin/../../lib/gcc/pic32mx/4.8.3/../../../../pic32mx/lib/size\libmchp_peripheral_32MX534F064H.a(dma_reg_map_tbl_lib.o)
 .text          0x00000000        0x0 f:/program files/microchip/xc32/v2.50/bin/bin/../../lib/gcc/pic32mx/4.8.3/../../../../pic32mx/lib/size\libmchp_peripheral_32MX534F064H.a(port_reset_pins_lib.o)
 .data          0x00000000        0x0 f:/program files/microchip/xc32/v2.50/bin/bin/../../lib/gcc/pic32mx/4.8.3/../../../../pic32mx/lib/size\libmchp_peripheral_32MX534F064H.a(port_reset_pins_lib.o)
 .bss           0x00000000        0x0 f:/program files/microchip/xc32/v2.50/bin/bin/../../lib/gcc/pic32mx/4.8.3/../../../../pic32mx/lib/size\libmchp_peripheral_32MX534F064H.a(port_reset_pins_lib.o)
 .reginfo       0x00000000       0x18 f:/program files/microchip/xc32/v2.50/bin/bin/../../lib/gcc/pic32mx/4.8.3/../../../../pic32mx/lib/size\libmchp_peripheral_32MX534F064H.a(port_reset_pins_lib.o)
 .text          0x00000000        0x0 f:/program files/microchip/xc32/v2.50/bin/bin/../../lib/gcc/pic32mx/4.8.3/../../../../pic32mx/lib/size\libmchp_peripheral_32MX534F064H.a(port_set_pins_digital_in_lib.o)
 .data          0x00000000        0x0 f:/program files/microchip/xc32/v2.50/bin/bin/../../lib/gcc/pic32mx/4.8.3/../../../../pic32mx/lib/size\libmchp_peripheral_32MX534F064H.a(port_set_pins_digital_in_lib.o)
 .bss           0x00000000        0x0 f:/program files/microchip/xc32/v2.50/bin/bin/../../lib/gcc/pic32mx/4.8.3/../../../../pic32mx/lib/size\libmchp_peripheral_32MX534F064H.a(port_set_pins_digital_in_lib.o)
 .reginfo       0x00000000       0x18 f:/program files/microchip/xc32/v2.50/bin/bin/../../lib/gcc/pic32mx/4.8.3/../../../../pic32mx/lib/size\libmchp_peripheral_32MX534F064H.a(port_set_pins_digital_in_lib.o)
 .text          0x00000000        0x0 f:/program files/microchip/xc32/v2.50/bin/bin/../../lib/gcc/pic32mx/4.8.3/../../../../pic32mx/lib/size\libmchp_peripheral_32MX534F064H.a(port_set_pins_digital_out_lib.o)
 .data          0x00000000        0x0 f:/program files/microchip/xc32/v2.50/bin/bin/../../lib/gcc/pic32mx/4.8.3/../../../../pic32mx/lib/size\libmchp_peripheral_32MX534F064H.a(port_set_pins_digital_out_lib.o)
 .bss           0x00000000        0x0 f:/program files/microchip/xc32/v2.50/bin/bin/../../lib/gcc/pic32mx/4.8.3/../../../../pic32mx/lib/size\libmchp_peripheral_32MX534F064H.a(port_set_pins_digital_out_lib.o)
 .reginfo       0x00000000       0x18 f:/program files/microchip/xc32/v2.50/bin/bin/../../lib/gcc/pic32mx/4.8.3/../../../../pic32mx/lib/size\libmchp_peripheral_32MX534F064H.a(port_set_pins_digital_out_lib.o)
 .text          0x00000000        0x0 f:/program files/microchip/xc32/v2.50/bin/bin/../../lib/gcc/pic32mx/4.8.3/../../../../pic32mx/lib/size\libmchp_peripheral_32MX534F064H.a(_ports_tbl_libp.o)
 .data          0x00000000        0x0 f:/program files/microchip/xc32/v2.50/bin/bin/../../lib/gcc/pic32mx/4.8.3/../../../../pic32mx/lib/size\libmchp_peripheral_32MX534F064H.a(_ports_tbl_libp.o)
 .bss           0x00000000        0x0 f:/program files/microchip/xc32/v2.50/bin/bin/../../lib/gcc/pic32mx/4.8.3/../../../../pic32mx/lib/size\libmchp_peripheral_32MX534F064H.a(_ports_tbl_libp.o)
 .reginfo       0x00000000       0x18 f:/program files/microchip/xc32/v2.50/bin/bin/../../lib/gcc/pic32mx/4.8.3/../../../../pic32mx/lib/size\libmchp_peripheral_32MX534F064H.a(_ports_tbl_libp.o)
 .text          0x00000000        0x0 f:/program files/microchip/xc32/v2.50/bin/bin/../../lib/gcc/pic32mx/4.8.3/../../../../pic32mx/lib/size\libmchp_peripheral_32MX534F064H.a(I2CAcknowledgeByte.o)
 .data          0x00000000        0x0 f:/program files/microchip/xc32/v2.50/bin/bin/../../lib/gcc/pic32mx/4.8.3/../../../../pic32mx/lib/size\libmchp_peripheral_32MX534F064H.a(I2CAcknowledgeByte.o)
 .bss           0x00000000        0x0 f:/program files/microchip/xc32/v2.50/bin/bin/../../lib/gcc/pic32mx/4.8.3/../../../../pic32mx/lib/size\libmchp_peripheral_32MX534F064H.a(I2CAcknowledgeByte.o)
 .reginfo       0x00000000       0x18 f:/program files/microchip/xc32/v2.50/bin/bin/../../lib/gcc/pic32mx/4.8.3/../../../../pic32mx/lib/size\libmchp_peripheral_32MX534F064H.a(I2CAcknowledgeByte.o)
 .text          0x00000000        0x0 f:/program files/microchip/xc32/v2.50/bin/bin/../../lib/gcc/pic32mx/4.8.3/../../../../pic32mx/lib/size\libmchp_peripheral_32MX534F064H.a(I2CByteWasAcknowledged.o)
 .data          0x00000000        0x0 f:/program files/microchip/xc32/v2.50/bin/bin/../../lib/gcc/pic32mx/4.8.3/../../../../pic32mx/lib/size\libmchp_peripheral_32MX534F064H.a(I2CByteWasAcknowledged.o)
 .bss           0x00000000        0x0 f:/program files/microchip/xc32/v2.50/bin/bin/../../lib/gcc/pic32mx/4.8.3/../../../../pic32mx/lib/size\libmchp_peripheral_32MX534F064H.a(I2CByteWasAcknowledged.o)
 .reginfo       0x00000000       0x18 f:/program files/microchip/xc32/v2.50/bin/bin/../../lib/gcc/pic32mx/4.8.3/../../../../pic32mx/lib/size\libmchp_peripheral_32MX534F064H.a(I2CByteWasAcknowledged.o)
 .text          0x00000000        0x0 f:/program files/microchip/xc32/v2.50/bin/bin/../../lib/gcc/pic32mx/4.8.3/../../../../pic32mx/lib/size\libmchp_peripheral_32MX534F064H.a(I2CEnable.o)
 .data          0x00000000        0x0 f:/program files/microchip/xc32/v2.50/bin/bin/../../lib/gcc/pic32mx/4.8.3/../../../../pic32mx/lib/size\libmchp_peripheral_32MX534F064H.a(I2CEnable.o)
 .bss           0x00000000        0x0 f:/program files/microchip/xc32/v2.50/bin/bin/../../lib/gcc/pic32mx/4.8.3/../../../../pic32mx/lib/size\libmchp_peripheral_32MX534F064H.a(I2CEnable.o)
 .reginfo       0x00000000       0x18 f:/program files/microchip/xc32/v2.50/bin/bin/../../lib/gcc/pic32mx/4.8.3/../../../../pic32mx/lib/size\libmchp_peripheral_32MX534F064H.a(I2CEnable.o)
 .text          0x00000000        0x0 f:/program files/microchip/xc32/v2.50/bin/bin/../../lib/gcc/pic32mx/4.8.3/../../../../pic32mx/lib/size\libmchp_peripheral_32MX534F064H.a(I2CGetByte.o)
 .data          0x00000000        0x0 f:/program files/microchip/xc32/v2.50/bin/bin/../../lib/gcc/pic32mx/4.8.3/../../../../pic32mx/lib/size\libmchp_peripheral_32MX534F064H.a(I2CGetByte.o)
 .bss           0x00000000        0x0 f:/program files/microchip/xc32/v2.50/bin/bin/../../lib/gcc/pic32mx/4.8.3/../../../../pic32mx/lib/size\libmchp_peripheral_32MX534F064H.a(I2CGetByte.o)
 .reginfo       0x00000000       0x18 f:/program files/microchip/xc32/v2.50/bin/bin/../../lib/gcc/pic32mx/4.8.3/../../../../pic32mx/lib/size\libmchp_peripheral_32MX534F064H.a(I2CGetByte.o)
 .text          0x00000000        0x0 f:/program files/microchip/xc32/v2.50/bin/bin/../../lib/gcc/pic32mx/4.8.3/../../../../pic32mx/lib/size\libmchp_peripheral_32MX534F064H.a(I2CReceiverEnable.o)
 .data          0x00000000        0x0 f:/program files/microchip/xc32/v2.50/bin/bin/../../lib/gcc/pic32mx/4.8.3/../../../../pic32mx/lib/size\libmchp_peripheral_32MX534F064H.a(I2CReceiverEnable.o)
 .bss           0x00000000        0x0 f:/program files/microchip/xc32/v2.50/bin/bin/../../lib/gcc/pic32mx/4.8.3/../../../../pic32mx/lib/size\libmchp_peripheral_32MX534F064H.a(I2CReceiverEnable.o)
 .reginfo       0x00000000       0x18 f:/program files/microchip/xc32/v2.50/bin/bin/../../lib/gcc/pic32mx/4.8.3/../../../../pic32mx/lib/size\libmchp_peripheral_32MX534F064H.a(I2CReceiverEnable.o)
 .text          0x00000000        0x0 f:/program files/microchip/xc32/v2.50/bin/bin/../../lib/gcc/pic32mx/4.8.3/../../../../pic32mx/lib/size\libmchp_peripheral_32MX534F064H.a(I2CSendByte.o)
 .data          0x00000000        0x0 f:/program files/microchip/xc32/v2.50/bin/bin/../../lib/gcc/pic32mx/4.8.3/../../../../pic32mx/lib/size\libmchp_peripheral_32MX534F064H.a(I2CSendByte.o)
 .bss           0x00000000        0x0 f:/program files/microchip/xc32/v2.50/bin/bin/../../lib/gcc/pic32mx/4.8.3/../../../../pic32mx/lib/size\libmchp_peripheral_32MX534F064H.a(I2CSendByte.o)
 .reginfo       0x00000000       0x18 f:/program files/microchip/xc32/v2.50/bin/bin/../../lib/gcc/pic32mx/4.8.3/../../../../pic32mx/lib/size\libmchp_peripheral_32MX534F064H.a(I2CSendByte.o)
 .text          0x00000000        0x0 f:/program files/microchip/xc32/v2.50/bin/bin/../../lib/gcc/pic32mx/4.8.3/../../../../pic32mx/lib/size\libmchp_peripheral_32MX534F064H.a(I2CSetFrequency.o)
 .data          0x00000000        0x0 f:/program files/microchip/xc32/v2.50/bin/bin/../../lib/gcc/pic32mx/4.8.3/../../../../pic32mx/lib/size\libmchp_peripheral_32MX534F064H.a(I2CSetFrequency.o)
 .bss           0x00000000        0x0 f:/program files/microchip/xc32/v2.50/bin/bin/../../lib/gcc/pic32mx/4.8.3/../../../../pic32mx/lib/size\libmchp_peripheral_32MX534F064H.a(I2CSetFrequency.o)
 .reginfo       0x00000000       0x18 f:/program files/microchip/xc32/v2.50/bin/bin/../../lib/gcc/pic32mx/4.8.3/../../../../pic32mx/lib/size\libmchp_peripheral_32MX534F064H.a(I2CSetFrequency.o)
 .text          0x00000000        0x0 f:/program files/microchip/xc32/v2.50/bin/bin/../../lib/gcc/pic32mx/4.8.3/../../../../pic32mx/lib/size\libmchp_peripheral_32MX534F064H.a(I2CStart.o)
 .data          0x00000000        0x0 f:/program files/microchip/xc32/v2.50/bin/bin/../../lib/gcc/pic32mx/4.8.3/../../../../pic32mx/lib/size\libmchp_peripheral_32MX534F064H.a(I2CStart.o)
 .bss           0x00000000        0x0 f:/program files/microchip/xc32/v2.50/bin/bin/../../lib/gcc/pic32mx/4.8.3/../../../../pic32mx/lib/size\libmchp_peripheral_32MX534F064H.a(I2CStart.o)
 .reginfo       0x00000000       0x18 f:/program files/microchip/xc32/v2.50/bin/bin/../../lib/gcc/pic32mx/4.8.3/../../../../pic32mx/lib/size\libmchp_peripheral_32MX534F064H.a(I2CStart.o)
 .text          0x00000000        0x0 f:/program files/microchip/xc32/v2.50/bin/bin/../../lib/gcc/pic32mx/4.8.3/../../../../pic32mx/lib/size\libmchp_peripheral_32MX534F064H.a(I2CStop.o)
 .data          0x00000000        0x0 f:/program files/microchip/xc32/v2.50/bin/bin/../../lib/gcc/pic32mx/4.8.3/../../../../pic32mx/lib/size\libmchp_peripheral_32MX534F064H.a(I2CStop.o)
 .bss           0x00000000        0x0 f:/program files/microchip/xc32/v2.50/bin/bin/../../lib/gcc/pic32mx/4.8.3/../../../../pic32mx/lib/size\libmchp_peripheral_32MX534F064H.a(I2CStop.o)
 .reginfo       0x00000000       0x18 f:/program files/microchip/xc32/v2.50/bin/bin/../../lib/gcc/pic32mx/4.8.3/../../../../pic32mx/lib/size\libmchp_peripheral_32MX534F064H.a(I2CStop.o)
 .text          0x00000000        0x0 f:/program files/microchip/xc32/v2.50/bin/bin/../../lib/gcc/pic32mx/4.8.3/../../../../pic32mx/lib/size\libmchp_peripheral_32MX534F064H.a(I2CPrivate.o)
 .data          0x00000000        0x0 f:/program files/microchip/xc32/v2.50/bin/bin/../../lib/gcc/pic32mx/4.8.3/../../../../pic32mx/lib/size\libmchp_peripheral_32MX534F064H.a(I2CPrivate.o)
 .bss           0x00000000        0x0 f:/program files/microchip/xc32/v2.50/bin/bin/../../lib/gcc/pic32mx/4.8.3/../../../../pic32mx/lib/size\libmchp_peripheral_32MX534F064H.a(I2CPrivate.o)
 .reginfo       0x00000000       0x18 f:/program files/microchip/xc32/v2.50/bin/bin/../../lib/gcc/pic32mx/4.8.3/../../../../pic32mx/lib/size\libmchp_peripheral_32MX534F064H.a(I2CPrivate.o)
 .data          0x00000000        0x0 f:/program files/microchip/xc32/v2.50/bin/bin/../../lib/gcc/pic32mx/4.8.3/../../../../pic32mx/lib/size\libpic32.a(memcpy.o)
 .bss           0x00000000        0x0 f:/program files/microchip/xc32/v2.50/bin/bin/../../lib/gcc/pic32mx/4.8.3/../../../../pic32mx/lib/size\libpic32.a(memcpy.o)
 .reginfo       0x00000000       0x18 f:/program files/microchip/xc32/v2.50/bin/bin/../../lib/gcc/pic32mx/4.8.3/../../../../pic32mx/lib/size\libpic32.a(memcpy.o)
 .data          0x00000000        0x0 f:/program files/microchip/xc32/v2.50/bin/bin/../../lib/gcc/pic32mx/4.8.3/../../../../pic32mx/lib/size\libpic32.a(memset.o)
 .bss           0x00000000        0x0 f:/program files/microchip/xc32/v2.50/bin/bin/../../lib/gcc/pic32mx/4.8.3/../../../../pic32mx/lib/size\libpic32.a(memset.o)
 .reginfo       0x00000000       0x18 f:/program files/microchip/xc32/v2.50/bin/bin/../../lib/gcc/pic32mx/4.8.3/../../../../pic32mx/lib/size\libpic32.a(memset.o)
 .text          0x00000000        0x0 f:/program files/microchip/xc32/v2.50/bin/bin/../../lib/gcc/pic32mx/4.8.3/../../../../pic32mx/lib/size\libpic32.a(default-bootstrap-exception-handler.o)
 .data          0x00000000        0x0 f:/program files/microchip/xc32/v2.50/bin/bin/../../lib/gcc/pic32mx/4.8.3/../../../../pic32mx/lib/size\libpic32.a(default-bootstrap-exception-handler.o)
 .bss           0x00000000        0x0 f:/program files/microchip/xc32/v2.50/bin/bin/../../lib/gcc/pic32mx/4.8.3/../../../../pic32mx/lib/size\libpic32.a(default-bootstrap-exception-handler.o)
 .reginfo       0x00000000       0x18 f:/program files/microchip/xc32/v2.50/bin/bin/../../lib/gcc/pic32mx/4.8.3/../../../../pic32mx/lib/size\libpic32.a(default-bootstrap-exception-handler.o)
 .text          0x00000000        0x0 f:/program files/microchip/xc32/v2.50/bin/bin/../../lib/gcc/pic32mx/4.8.3/../../../../pic32mx/lib/size\libpic32.a(default-on-reset.o)
 .data          0x00000000        0x0 f:/program files/microchip/xc32/v2.50/bin/bin/../../lib/gcc/pic32mx/4.8.3/../../../../pic32mx/lib/size\libpic32.a(default-on-reset.o)
 .bss           0x00000000        0x0 f:/program files/microchip/xc32/v2.50/bin/bin/../../lib/gcc/pic32mx/4.8.3/../../../../pic32mx/lib/size\libpic32.a(default-on-reset.o)
 .reginfo       0x00000000       0x18 f:/program files/microchip/xc32/v2.50/bin/bin/../../lib/gcc/pic32mx/4.8.3/../../../../pic32mx/lib/size\libpic32.a(default-on-reset.o)
 .text          0x00000000        0x0 f:/program files/microchip/xc32/v2.50/bin/bin/../../lib/gcc/pic32mx/4.8.3/../../../../pic32mx/lib/size\libpic32.a(default-on-bootstrap.o)
 .data          0x00000000        0x0 f:/program files/microchip/xc32/v2.50/bin/bin/../../lib/gcc/pic32mx/4.8.3/../../../../pic32mx/lib/size\libpic32.a(default-on-bootstrap.o)
 .bss           0x00000000        0x0 f:/program files/microchip/xc32/v2.50/bin/bin/../../lib/gcc/pic32mx/4.8.3/../../../../pic32mx/lib/size\libpic32.a(default-on-bootstrap.o)
 .reginfo       0x00000000       0x18 f:/program files/microchip/xc32/v2.50/bin/bin/../../lib/gcc/pic32mx/4.8.3/../../../../pic32mx/lib/size\libpic32.a(default-on-bootstrap.o)
 .data          0x00000000        0x0 f:/program files/microchip/xc32/v2.50/bin/bin/../../lib/gcc/pic32mx/4.8.3/../../../../pic32mx/lib/size\libpic32.a(default-nmi-handler.o)
 .bss           0x00000000        0x0 f:/program files/microchip/xc32/v2.50/bin/bin/../../lib/gcc/pic32mx/4.8.3/../../../../pic32mx/lib/size\libpic32.a(default-nmi-handler.o)
 .reginfo       0x00000000       0x18 f:/program files/microchip/xc32/v2.50/bin/bin/../../lib/gcc/pic32mx/4.8.3/../../../../pic32mx/lib/size\libpic32.a(default-nmi-handler.o)
 .data          0x00000000        0x0 f:/program files/microchip/xc32/v2.50/bin/bin/../../lib/gcc/pic32mx/4.8.3/../../../../pic32mx/lib/size\libpic32.a(pic32_data_init.o)
 .bss           0x00000000        0x0 f:/program files/microchip/xc32/v2.50/bin/bin/../../lib/gcc/pic32mx/4.8.3/../../../../pic32mx/lib/size\libpic32.a(pic32_data_init.o)
 .reginfo       0x00000000       0x18 f:/program files/microchip/xc32/v2.50/bin/bin/../../lib/gcc/pic32mx/4.8.3/../../../../pic32mx/lib/size\libpic32.a(pic32_data_init.o)
 .text          0x00000000        0x0 f:/program files/microchip/xc32/v2.50/bin/bin/../../lib/gcc/pic32mx/4.8.3/../../../../pic32mx/lib/size\libpic32.a(general-exception.o)
 .data          0x00000000        0x0 f:/program files/microchip/xc32/v2.50/bin/bin/../../lib/gcc/pic32mx/4.8.3/../../../../pic32mx/lib/size\libpic32.a(general-exception.o)
 .bss           0x00000000        0x0 f:/program files/microchip/xc32/v2.50/bin/bin/../../lib/gcc/pic32mx/4.8.3/../../../../pic32mx/lib/size\libpic32.a(general-exception.o)
 .reginfo       0x00000000       0x18 f:/program files/microchip/xc32/v2.50/bin/bin/../../lib/gcc/pic32mx/4.8.3/../../../../pic32mx/lib/size\libpic32.a(general-exception.o)
 .text          0x00000000        0x0 f:/program files/microchip/xc32/v2.50/bin/bin/../../lib/gcc/pic32mx/4.8.3/../../../../pic32mx/lib/size\libpic32.a(vector0.o)
 .data          0x00000000        0x0 f:/program files/microchip/xc32/v2.50/bin/bin/../../lib/gcc/pic32mx/4.8.3/../../../../pic32mx/lib/size\libpic32.a(vector0.o)
 .bss           0x00000000        0x0 f:/program files/microchip/xc32/v2.50/bin/bin/../../lib/gcc/pic32mx/4.8.3/../../../../pic32mx/lib/size\libpic32.a(vector0.o)
 .reginfo       0x00000000       0x18 f:/program files/microchip/xc32/v2.50/bin/bin/../../lib/gcc/pic32mx/4.8.3/../../../../pic32mx/lib/size\libpic32.a(vector0.o)
 .text          0x00000000        0x0 f:/program files/microchip/xc32/v2.50/bin/bin/../../lib/gcc/pic32mx/4.8.3/../../../../pic32mx/lib/size\libpic32.a(vector1.o)
 .data          0x00000000        0x0 f:/program files/microchip/xc32/v2.50/bin/bin/../../lib/gcc/pic32mx/4.8.3/../../../../pic32mx/lib/size\libpic32.a(vector1.o)
 .bss           0x00000000        0x0 f:/program files/microchip/xc32/v2.50/bin/bin/../../lib/gcc/pic32mx/4.8.3/../../../../pic32mx/lib/size\libpic32.a(vector1.o)
 .reginfo       0x00000000       0x18 f:/program files/microchip/xc32/v2.50/bin/bin/../../lib/gcc/pic32mx/4.8.3/../../../../pic32mx/lib/size\libpic32.a(vector1.o)
 .text          0x00000000        0x0 f:/program files/microchip/xc32/v2.50/bin/bin/../../lib/gcc/pic32mx/4.8.3/../../../../pic32mx/lib/size\libpic32.a(vector2.o)
 .data          0x00000000        0x0 f:/program files/microchip/xc32/v2.50/bin/bin/../../lib/gcc/pic32mx/4.8.3/../../../../pic32mx/lib/size\libpic32.a(vector2.o)
 .bss           0x00000000        0x0 f:/program files/microchip/xc32/v2.50/bin/bin/../../lib/gcc/pic32mx/4.8.3/../../../../pic32mx/lib/size\libpic32.a(vector2.o)
 .reginfo       0x00000000       0x18 f:/program files/microchip/xc32/v2.50/bin/bin/../../lib/gcc/pic32mx/4.8.3/../../../../pic32mx/lib/size\libpic32.a(vector2.o)
 .text          0x00000000        0x0 f:/program files/microchip/xc32/v2.50/bin/bin/../../lib/gcc/pic32mx/4.8.3/../../../../pic32mx/lib/size\libpic32.a(vector3.o)
 .data          0x00000000        0x0 f:/program files/microchip/xc32/v2.50/bin/bin/../../lib/gcc/pic32mx/4.8.3/../../../../pic32mx/lib/size\libpic32.a(vector3.o)
 .bss           0x00000000        0x0 f:/program files/microchip/xc32/v2.50/bin/bin/../../lib/gcc/pic32mx/4.8.3/../../../../pic32mx/lib/size\libpic32.a(vector3.o)
 .reginfo       0x00000000       0x18 f:/program files/microchip/xc32/v2.50/bin/bin/../../lib/gcc/pic32mx/4.8.3/../../../../pic32mx/lib/size\libpic32.a(vector3.o)
 .text          0x00000000        0x0 f:/program files/microchip/xc32/v2.50/bin/bin/../../lib/gcc/pic32mx/4.8.3/../../../../pic32mx/lib/size\libpic32.a(vector5.o)
 .data          0x00000000        0x0 f:/program files/microchip/xc32/v2.50/bin/bin/../../lib/gcc/pic32mx/4.8.3/../../../../pic32mx/lib/size\libpic32.a(vector5.o)
 .bss           0x00000000        0x0 f:/program files/microchip/xc32/v2.50/bin/bin/../../lib/gcc/pic32mx/4.8.3/../../../../pic32mx/lib/size\libpic32.a(vector5.o)
 .reginfo       0x00000000       0x18 f:/program files/microchip/xc32/v2.50/bin/bin/../../lib/gcc/pic32mx/4.8.3/../../../../pic32mx/lib/size\libpic32.a(vector5.o)
 .text          0x00000000        0x0 f:/program files/microchip/xc32/v2.50/bin/bin/../../lib/gcc/pic32mx/4.8.3/../../../../pic32mx/lib/size\libpic32.a(vector6.o)
 .data          0x00000000        0x0 f:/program files/microchip/xc32/v2.50/bin/bin/../../lib/gcc/pic32mx/4.8.3/../../../../pic32mx/lib/size\libpic32.a(vector6.o)
 .bss           0x00000000        0x0 f:/program files/microchip/xc32/v2.50/bin/bin/../../lib/gcc/pic32mx/4.8.3/../../../../pic32mx/lib/size\libpic32.a(vector6.o)
 .reginfo       0x00000000       0x18 f:/program files/microchip/xc32/v2.50/bin/bin/../../lib/gcc/pic32mx/4.8.3/../../../../pic32mx/lib/size\libpic32.a(vector6.o)
 .text          0x00000000        0x0 f:/program files/microchip/xc32/v2.50/bin/bin/../../lib/gcc/pic32mx/4.8.3/../../../../pic32mx/lib/size\libpic32.a(vector7.o)
 .data          0x00000000        0x0 f:/program files/microchip/xc32/v2.50/bin/bin/../../lib/gcc/pic32mx/4.8.3/../../../../pic32mx/lib/size\libpic32.a(vector7.o)
 .bss           0x00000000        0x0 f:/program files/microchip/xc32/v2.50/bin/bin/../../lib/gcc/pic32mx/4.8.3/../../../../pic32mx/lib/size\libpic32.a(vector7.o)
 .reginfo       0x00000000       0x18 f:/program files/microchip/xc32/v2.50/bin/bin/../../lib/gcc/pic32mx/4.8.3/../../../../pic32mx/lib/size\libpic32.a(vector7.o)
 .text          0x00000000        0x0 f:/program files/microchip/xc32/v2.50/bin/bin/../../lib/gcc/pic32mx/4.8.3/../../../../pic32mx/lib/size\libpic32.a(vector9.o)
 .data          0x00000000        0x0 f:/program files/microchip/xc32/v2.50/bin/bin/../../lib/gcc/pic32mx/4.8.3/../../../../pic32mx/lib/size\libpic32.a(vector9.o)
 .bss           0x00000000        0x0 f:/program files/microchip/xc32/v2.50/bin/bin/../../lib/gcc/pic32mx/4.8.3/../../../../pic32mx/lib/size\libpic32.a(vector9.o)
 .reginfo       0x00000000       0x18 f:/program files/microchip/xc32/v2.50/bin/bin/../../lib/gcc/pic32mx/4.8.3/../../../../pic32mx/lib/size\libpic32.a(vector9.o)
 .text          0x00000000        0x0 f:/program files/microchip/xc32/v2.50/bin/bin/../../lib/gcc/pic32mx/4.8.3/../../../../pic32mx/lib/size\libpic32.a(vector11.o)
 .data          0x00000000        0x0 f:/program files/microchip/xc32/v2.50/bin/bin/../../lib/gcc/pic32mx/4.8.3/../../../../pic32mx/lib/size\libpic32.a(vector11.o)
 .bss           0x00000000        0x0 f:/program files/microchip/xc32/v2.50/bin/bin/../../lib/gcc/pic32mx/4.8.3/../../../../pic32mx/lib/size\libpic32.a(vector11.o)
 .reginfo       0x00000000       0x18 f:/program files/microchip/xc32/v2.50/bin/bin/../../lib/gcc/pic32mx/4.8.3/../../../../pic32mx/lib/size\libpic32.a(vector11.o)
 .text          0x00000000        0x0 f:/program files/microchip/xc32/v2.50/bin/bin/../../lib/gcc/pic32mx/4.8.3/../../../../pic32mx/lib/size\libpic32.a(vector12.o)
 .data          0x00000000        0x0 f:/program files/microchip/xc32/v2.50/bin/bin/../../lib/gcc/pic32mx/4.8.3/../../../../pic32mx/lib/size\libpic32.a(vector12.o)
 .bss           0x00000000        0x0 f:/program files/microchip/xc32/v2.50/bin/bin/../../lib/gcc/pic32mx/4.8.3/../../../../pic32mx/lib/size\libpic32.a(vector12.o)
 .reginfo       0x00000000       0x18 f:/program files/microchip/xc32/v2.50/bin/bin/../../lib/gcc/pic32mx/4.8.3/../../../../pic32mx/lib/size\libpic32.a(vector12.o)
 .text          0x00000000        0x0 f:/program files/microchip/xc32/v2.50/bin/bin/../../lib/gcc/pic32mx/4.8.3/../../../../pic32mx/lib/size\libpic32.a(vector13.o)
 .data          0x00000000        0x0 f:/program files/microchip/xc32/v2.50/bin/bin/../../lib/gcc/pic32mx/4.8.3/../../../../pic32mx/lib/size\libpic32.a(vector13.o)
 .bss           0x00000000        0x0 f:/program files/microchip/xc32/v2.50/bin/bin/../../lib/gcc/pic32mx/4.8.3/../../../../pic32mx/lib/size\libpic32.a(vector13.o)
 .reginfo       0x00000000       0x18 f:/program files/microchip/xc32/v2.50/bin/bin/../../lib/gcc/pic32mx/4.8.3/../../../../pic32mx/lib/size\libpic32.a(vector13.o)
 .text          0x00000000        0x0 f:/program files/microchip/xc32/v2.50/bin/bin/../../lib/gcc/pic32mx/4.8.3/../../../../pic32mx/lib/size\libpic32.a(vector14.o)
 .data          0x00000000        0x0 f:/program files/microchip/xc32/v2.50/bin/bin/../../lib/gcc/pic32mx/4.8.3/../../../../pic32mx/lib/size\libpic32.a(vector14.o)
 .bss           0x00000000        0x0 f:/program files/microchip/xc32/v2.50/bin/bin/../../lib/gcc/pic32mx/4.8.3/../../../../pic32mx/lib/size\libpic32.a(vector14.o)
 .reginfo       0x00000000       0x18 f:/program files/microchip/xc32/v2.50/bin/bin/../../lib/gcc/pic32mx/4.8.3/../../../../pic32mx/lib/size\libpic32.a(vector14.o)
 .text          0x00000000        0x0 f:/program files/microchip/xc32/v2.50/bin/bin/../../lib/gcc/pic32mx/4.8.3/../../../../pic32mx/lib/size\libpic32.a(vector15.o)
 .data          0x00000000        0x0 f:/program files/microchip/xc32/v2.50/bin/bin/../../lib/gcc/pic32mx/4.8.3/../../../../pic32mx/lib/size\libpic32.a(vector15.o)
 .bss           0x00000000        0x0 f:/program files/microchip/xc32/v2.50/bin/bin/../../lib/gcc/pic32mx/4.8.3/../../../../pic32mx/lib/size\libpic32.a(vector15.o)
 .reginfo       0x00000000       0x18 f:/program files/microchip/xc32/v2.50/bin/bin/../../lib/gcc/pic32mx/4.8.3/../../../../pic32mx/lib/size\libpic32.a(vector15.o)
 .text          0x00000000        0x0 f:/program files/microchip/xc32/v2.50/bin/bin/../../lib/gcc/pic32mx/4.8.3/../../../../pic32mx/lib/size\libpic32.a(vector16.o)
 .data          0x00000000        0x0 f:/program files/microchip/xc32/v2.50/bin/bin/../../lib/gcc/pic32mx/4.8.3/../../../../pic32mx/lib/size\libpic32.a(vector16.o)
 .bss           0x00000000        0x0 f:/program files/microchip/xc32/v2.50/bin/bin/../../lib/gcc/pic32mx/4.8.3/../../../../pic32mx/lib/size\libpic32.a(vector16.o)
 .reginfo       0x00000000       0x18 f:/program files/microchip/xc32/v2.50/bin/bin/../../lib/gcc/pic32mx/4.8.3/../../../../pic32mx/lib/size\libpic32.a(vector16.o)
 .text          0x00000000        0x0 f:/program files/microchip/xc32/v2.50/bin/bin/../../lib/gcc/pic32mx/4.8.3/../../../../pic32mx/lib/size\libpic32.a(vector17.o)
 .data          0x00000000        0x0 f:/program files/microchip/xc32/v2.50/bin/bin/../../lib/gcc/pic32mx/4.8.3/../../../../pic32mx/lib/size\libpic32.a(vector17.o)
 .bss           0x00000000        0x0 f:/program files/microchip/xc32/v2.50/bin/bin/../../lib/gcc/pic32mx/4.8.3/../../../../pic32mx/lib/size\libpic32.a(vector17.o)
 .reginfo       0x00000000       0x18 f:/program files/microchip/xc32/v2.50/bin/bin/../../lib/gcc/pic32mx/4.8.3/../../../../pic32mx/lib/size\libpic32.a(vector17.o)
 .text          0x00000000        0x0 f:/program files/microchip/xc32/v2.50/bin/bin/../../lib/gcc/pic32mx/4.8.3/../../../../pic32mx/lib/size\libpic32.a(vector18.o)
 .data          0x00000000        0x0 f:/program files/microchip/xc32/v2.50/bin/bin/../../lib/gcc/pic32mx/4.8.3/../../../../pic32mx/lib/size\libpic32.a(vector18.o)
 .bss           0x00000000        0x0 f:/program files/microchip/xc32/v2.50/bin/bin/../../lib/gcc/pic32mx/4.8.3/../../../../pic32mx/lib/size\libpic32.a(vector18.o)
 .reginfo       0x00000000       0x18 f:/program files/microchip/xc32/v2.50/bin/bin/../../lib/gcc/pic32mx/4.8.3/../../../../pic32mx/lib/size\libpic32.a(vector18.o)
 .text          0x00000000        0x0 f:/program files/microchip/xc32/v2.50/bin/bin/../../lib/gcc/pic32mx/4.8.3/../../../../pic32mx/lib/size\libpic32.a(vector19.o)
 .data          0x00000000        0x0 f:/program files/microchip/xc32/v2.50/bin/bin/../../lib/gcc/pic32mx/4.8.3/../../../../pic32mx/lib/size\libpic32.a(vector19.o)
 .bss           0x00000000        0x0 f:/program files/microchip/xc32/v2.50/bin/bin/../../lib/gcc/pic32mx/4.8.3/../../../../pic32mx/lib/size\libpic32.a(vector19.o)
 .reginfo       0x00000000       0x18 f:/program files/microchip/xc32/v2.50/bin/bin/../../lib/gcc/pic32mx/4.8.3/../../../../pic32mx/lib/size\libpic32.a(vector19.o)
 .text          0x00000000        0x0 f:/program files/microchip/xc32/v2.50/bin/bin/../../lib/gcc/pic32mx/4.8.3/../../../../pic32mx/lib/size\libpic32.a(vector20.o)
 .data          0x00000000        0x0 f:/program files/microchip/xc32/v2.50/bin/bin/../../lib/gcc/pic32mx/4.8.3/../../../../pic32mx/lib/size\libpic32.a(vector20.o)
 .bss           0x00000000        0x0 f:/program files/microchip/xc32/v2.50/bin/bin/../../lib/gcc/pic32mx/4.8.3/../../../../pic32mx/lib/size\libpic32.a(vector20.o)
 .reginfo       0x00000000       0x18 f:/program files/microchip/xc32/v2.50/bin/bin/../../lib/gcc/pic32mx/4.8.3/../../../../pic32mx/lib/size\libpic32.a(vector20.o)
 .text          0x00000000        0x0 f:/program files/microchip/xc32/v2.50/bin/bin/../../lib/gcc/pic32mx/4.8.3/../../../../pic32mx/lib/size\libpic32.a(vector21.o)
 .data          0x00000000        0x0 f:/program files/microchip/xc32/v2.50/bin/bin/../../lib/gcc/pic32mx/4.8.3/../../../../pic32mx/lib/size\libpic32.a(vector21.o)
 .bss           0x00000000        0x0 f:/program files/microchip/xc32/v2.50/bin/bin/../../lib/gcc/pic32mx/4.8.3/../../../../pic32mx/lib/size\libpic32.a(vector21.o)
 .reginfo       0x00000000       0x18 f:/program files/microchip/xc32/v2.50/bin/bin/../../lib/gcc/pic32mx/4.8.3/../../../../pic32mx/lib/size\libpic32.a(vector21.o)
 .text          0x00000000        0x0 f:/program files/microchip/xc32/v2.50/bin/bin/../../lib/gcc/pic32mx/4.8.3/../../../../pic32mx/lib/size\libpic32.a(vector22.o)
 .data          0x00000000        0x0 f:/program files/microchip/xc32/v2.50/bin/bin/../../lib/gcc/pic32mx/4.8.3/../../../../pic32mx/lib/size\libpic32.a(vector22.o)
 .bss           0x00000000        0x0 f:/program files/microchip/xc32/v2.50/bin/bin/../../lib/gcc/pic32mx/4.8.3/../../../../pic32mx/lib/size\libpic32.a(vector22.o)
 .reginfo       0x00000000       0x18 f:/program files/microchip/xc32/v2.50/bin/bin/../../lib/gcc/pic32mx/4.8.3/../../../../pic32mx/lib/size\libpic32.a(vector22.o)
 .text          0x00000000        0x0 f:/program files/microchip/xc32/v2.50/bin/bin/../../lib/gcc/pic32mx/4.8.3/../../../../pic32mx/lib/size\libpic32.a(vector23.o)
 .data          0x00000000        0x0 f:/program files/microchip/xc32/v2.50/bin/bin/../../lib/gcc/pic32mx/4.8.3/../../../../pic32mx/lib/size\libpic32.a(vector23.o)
 .bss           0x00000000        0x0 f:/program files/microchip/xc32/v2.50/bin/bin/../../lib/gcc/pic32mx/4.8.3/../../../../pic32mx/lib/size\libpic32.a(vector23.o)
 .reginfo       0x00000000       0x18 f:/program files/microchip/xc32/v2.50/bin/bin/../../lib/gcc/pic32mx/4.8.3/../../../../pic32mx/lib/size\libpic32.a(vector23.o)
 .text          0x00000000        0x0 f:/program files/microchip/xc32/v2.50/bin/bin/../../lib/gcc/pic32mx/4.8.3/../../../../pic32mx/lib/size\libpic32.a(vector24.o)
 .data          0x00000000        0x0 f:/program files/microchip/xc32/v2.50/bin/bin/../../lib/gcc/pic32mx/4.8.3/../../../../pic32mx/lib/size\libpic32.a(vector24.o)
 .bss           0x00000000        0x0 f:/program files/microchip/xc32/v2.50/bin/bin/../../lib/gcc/pic32mx/4.8.3/../../../../pic32mx/lib/size\libpic32.a(vector24.o)
 .reginfo       0x00000000       0x18 f:/program files/microchip/xc32/v2.50/bin/bin/../../lib/gcc/pic32mx/4.8.3/../../../../pic32mx/lib/size\libpic32.a(vector24.o)
 .text          0x00000000        0x0 f:/program files/microchip/xc32/v2.50/bin/bin/../../lib/gcc/pic32mx/4.8.3/../../../../pic32mx/lib/size\libpic32.a(vector25.o)
 .data          0x00000000        0x0 f:/program files/microchip/xc32/v2.50/bin/bin/../../lib/gcc/pic32mx/4.8.3/../../../../pic32mx/lib/size\libpic32.a(vector25.o)
 .bss           0x00000000        0x0 f:/program files/microchip/xc32/v2.50/bin/bin/../../lib/gcc/pic32mx/4.8.3/../../../../pic32mx/lib/size\libpic32.a(vector25.o)
 .reginfo       0x00000000       0x18 f:/program files/microchip/xc32/v2.50/bin/bin/../../lib/gcc/pic32mx/4.8.3/../../../../pic32mx/lib/size\libpic32.a(vector25.o)
 .text          0x00000000        0x0 f:/program files/microchip/xc32/v2.50/bin/bin/../../lib/gcc/pic32mx/4.8.3/../../../../pic32mx/lib/size\libpic32.a(vector26.o)
 .data          0x00000000        0x0 f:/program files/microchip/xc32/v2.50/bin/bin/../../lib/gcc/pic32mx/4.8.3/../../../../pic32mx/lib/size\libpic32.a(vector26.o)
 .bss           0x00000000        0x0 f:/program files/microchip/xc32/v2.50/bin/bin/../../lib/gcc/pic32mx/4.8.3/../../../../pic32mx/lib/size\libpic32.a(vector26.o)
 .reginfo       0x00000000       0x18 f:/program files/microchip/xc32/v2.50/bin/bin/../../lib/gcc/pic32mx/4.8.3/../../../../pic32mx/lib/size\libpic32.a(vector26.o)
 .text          0x00000000        0x0 f:/program files/microchip/xc32/v2.50/bin/bin/../../lib/gcc/pic32mx/4.8.3/../../../../pic32mx/lib/size\libpic32.a(vector28.o)
 .data          0x00000000        0x0 f:/program files/microchip/xc32/v2.50/bin/bin/../../lib/gcc/pic32mx/4.8.3/../../../../pic32mx/lib/size\libpic32.a(vector28.o)
 .bss           0x00000000        0x0 f:/program files/microchip/xc32/v2.50/bin/bin/../../lib/gcc/pic32mx/4.8.3/../../../../pic32mx/lib/size\libpic32.a(vector28.o)
 .reginfo       0x00000000       0x18 f:/program files/microchip/xc32/v2.50/bin/bin/../../lib/gcc/pic32mx/4.8.3/../../../../pic32mx/lib/size\libpic32.a(vector28.o)
 .text          0x00000000        0x0 f:/program files/microchip/xc32/v2.50/bin/bin/../../lib/gcc/pic32mx/4.8.3/../../../../pic32mx/lib/size\libpic32.a(vector29.o)
 .data          0x00000000        0x0 f:/program files/microchip/xc32/v2.50/bin/bin/../../lib/gcc/pic32mx/4.8.3/../../../../pic32mx/lib/size\libpic32.a(vector29.o)
 .bss           0x00000000        0x0 f:/program files/microchip/xc32/v2.50/bin/bin/../../lib/gcc/pic32mx/4.8.3/../../../../pic32mx/lib/size\libpic32.a(vector29.o)
 .reginfo       0x00000000       0x18 f:/program files/microchip/xc32/v2.50/bin/bin/../../lib/gcc/pic32mx/4.8.3/../../../../pic32mx/lib/size\libpic32.a(vector29.o)
 .text          0x00000000        0x0 f:/program files/microchip/xc32/v2.50/bin/bin/../../lib/gcc/pic32mx/4.8.3/../../../../pic32mx/lib/size\libpic32.a(vector32.o)
 .data          0x00000000        0x0 f:/program files/microchip/xc32/v2.50/bin/bin/../../lib/gcc/pic32mx/4.8.3/../../../../pic32mx/lib/size\libpic32.a(vector32.o)
 .bss           0x00000000        0x0 f:/program files/microchip/xc32/v2.50/bin/bin/../../lib/gcc/pic32mx/4.8.3/../../../../pic32mx/lib/size\libpic32.a(vector32.o)
 .reginfo       0x00000000       0x18 f:/program files/microchip/xc32/v2.50/bin/bin/../../lib/gcc/pic32mx/4.8.3/../../../../pic32mx/lib/size\libpic32.a(vector32.o)
 .text          0x00000000        0x0 f:/program files/microchip/xc32/v2.50/bin/bin/../../lib/gcc/pic32mx/4.8.3/../../../../pic32mx/lib/size\libpic32.a(vector33.o)
 .data          0x00000000        0x0 f:/program files/microchip/xc32/v2.50/bin/bin/../../lib/gcc/pic32mx/4.8.3/../../../../pic32mx/lib/size\libpic32.a(vector33.o)
 .bss           0x00000000        0x0 f:/program files/microchip/xc32/v2.50/bin/bin/../../lib/gcc/pic32mx/4.8.3/../../../../pic32mx/lib/size\libpic32.a(vector33.o)
 .reginfo       0x00000000       0x18 f:/program files/microchip/xc32/v2.50/bin/bin/../../lib/gcc/pic32mx/4.8.3/../../../../pic32mx/lib/size\libpic32.a(vector33.o)
 .text          0x00000000        0x0 f:/program files/microchip/xc32/v2.50/bin/bin/../../lib/gcc/pic32mx/4.8.3/../../../../pic32mx/lib/size\libpic32.a(vector34.o)
 .data          0x00000000        0x0 f:/program files/microchip/xc32/v2.50/bin/bin/../../lib/gcc/pic32mx/4.8.3/../../../../pic32mx/lib/size\libpic32.a(vector34.o)
 .bss           0x00000000        0x0 f:/program files/microchip/xc32/v2.50/bin/bin/../../lib/gcc/pic32mx/4.8.3/../../../../pic32mx/lib/size\libpic32.a(vector34.o)
 .reginfo       0x00000000       0x18 f:/program files/microchip/xc32/v2.50/bin/bin/../../lib/gcc/pic32mx/4.8.3/../../../../pic32mx/lib/size\libpic32.a(vector34.o)
 .text          0x00000000        0x0 f:/program files/microchip/xc32/v2.50/bin/bin/../../lib/gcc/pic32mx/4.8.3/../../../../pic32mx/lib/size\libpic32.a(vector35.o)
 .data          0x00000000        0x0 f:/program files/microchip/xc32/v2.50/bin/bin/../../lib/gcc/pic32mx/4.8.3/../../../../pic32mx/lib/size\libpic32.a(vector35.o)
 .bss           0x00000000        0x0 f:/program files/microchip/xc32/v2.50/bin/bin/../../lib/gcc/pic32mx/4.8.3/../../../../pic32mx/lib/size\libpic32.a(vector35.o)
 .reginfo       0x00000000       0x18 f:/program files/microchip/xc32/v2.50/bin/bin/../../lib/gcc/pic32mx/4.8.3/../../../../pic32mx/lib/size\libpic32.a(vector35.o)
 .text          0x00000000        0x0 f:/program files/microchip/xc32/v2.50/bin/bin/../../lib/gcc/pic32mx/4.8.3/../../../../pic32mx/lib/size\libpic32.a(vector36.o)
 .data          0x00000000        0x0 f:/program files/microchip/xc32/v2.50/bin/bin/../../lib/gcc/pic32mx/4.8.3/../../../../pic32mx/lib/size\libpic32.a(vector36.o)
 .bss           0x00000000        0x0 f:/program files/microchip/xc32/v2.50/bin/bin/../../lib/gcc/pic32mx/4.8.3/../../../../pic32mx/lib/size\libpic32.a(vector36.o)
 .reginfo       0x00000000       0x18 f:/program files/microchip/xc32/v2.50/bin/bin/../../lib/gcc/pic32mx/4.8.3/../../../../pic32mx/lib/size\libpic32.a(vector36.o)
 .text          0x00000000        0x0 f:/program files/microchip/xc32/v2.50/bin/bin/../../lib/gcc/pic32mx/4.8.3/../../../../pic32mx/lib/size\libpic32.a(vector37.o)
 .data          0x00000000        0x0 f:/program files/microchip/xc32/v2.50/bin/bin/../../lib/gcc/pic32mx/4.8.3/../../../../pic32mx/lib/size\libpic32.a(vector37.o)
 .bss           0x00000000        0x0 f:/program files/microchip/xc32/v2.50/bin/bin/../../lib/gcc/pic32mx/4.8.3/../../../../pic32mx/lib/size\libpic32.a(vector37.o)
 .reginfo       0x00000000       0x18 f:/program files/microchip/xc32/v2.50/bin/bin/../../lib/gcc/pic32mx/4.8.3/../../../../pic32mx/lib/size\libpic32.a(vector37.o)
 .text          0x00000000        0x0 f:/program files/microchip/xc32/v2.50/bin/bin/../../lib/gcc/pic32mx/4.8.3/../../../../pic32mx/lib/size\libpic32.a(vector38.o)
 .data          0x00000000        0x0 f:/program files/microchip/xc32/v2.50/bin/bin/../../lib/gcc/pic32mx/4.8.3/../../../../pic32mx/lib/size\libpic32.a(vector38.o)
 .bss           0x00000000        0x0 f:/program files/microchip/xc32/v2.50/bin/bin/../../lib/gcc/pic32mx/4.8.3/../../../../pic32mx/lib/size\libpic32.a(vector38.o)
 .reginfo       0x00000000       0x18 f:/program files/microchip/xc32/v2.50/bin/bin/../../lib/gcc/pic32mx/4.8.3/../../../../pic32mx/lib/size\libpic32.a(vector38.o)
 .text          0x00000000        0x0 f:/program files/microchip/xc32/v2.50/bin/bin/../../lib/gcc/pic32mx/4.8.3/../../../../pic32mx/lib/size\libpic32.a(vector39.o)
 .data          0x00000000        0x0 f:/program files/microchip/xc32/v2.50/bin/bin/../../lib/gcc/pic32mx/4.8.3/../../../../pic32mx/lib/size\libpic32.a(vector39.o)
 .bss           0x00000000        0x0 f:/program files/microchip/xc32/v2.50/bin/bin/../../lib/gcc/pic32mx/4.8.3/../../../../pic32mx/lib/size\libpic32.a(vector39.o)
 .reginfo       0x00000000       0x18 f:/program files/microchip/xc32/v2.50/bin/bin/../../lib/gcc/pic32mx/4.8.3/../../../../pic32mx/lib/size\libpic32.a(vector39.o)
 .text          0x00000000        0x0 f:/program files/microchip/xc32/v2.50/bin/bin/../../lib/gcc/pic32mx/4.8.3/../../../../pic32mx/lib/size\libpic32.a(vector40.o)
 .data          0x00000000        0x0 f:/program files/microchip/xc32/v2.50/bin/bin/../../lib/gcc/pic32mx/4.8.3/../../../../pic32mx/lib/size\libpic32.a(vector40.o)
 .bss           0x00000000        0x0 f:/program files/microchip/xc32/v2.50/bin/bin/../../lib/gcc/pic32mx/4.8.3/../../../../pic32mx/lib/size\libpic32.a(vector40.o)
 .reginfo       0x00000000       0x18 f:/program files/microchip/xc32/v2.50/bin/bin/../../lib/gcc/pic32mx/4.8.3/../../../../pic32mx/lib/size\libpic32.a(vector40.o)
 .text          0x00000000        0x0 f:/program files/microchip/xc32/v2.50/bin/bin/../../lib/gcc/pic32mx/4.8.3/../../../../pic32mx/lib/size\libpic32.a(vector41.o)
 .data          0x00000000        0x0 f:/program files/microchip/xc32/v2.50/bin/bin/../../lib/gcc/pic32mx/4.8.3/../../../../pic32mx/lib/size\libpic32.a(vector41.o)
 .bss           0x00000000        0x0 f:/program files/microchip/xc32/v2.50/bin/bin/../../lib/gcc/pic32mx/4.8.3/../../../../pic32mx/lib/size\libpic32.a(vector41.o)
 .reginfo       0x00000000       0x18 f:/program files/microchip/xc32/v2.50/bin/bin/../../lib/gcc/pic32mx/4.8.3/../../../../pic32mx/lib/size\libpic32.a(vector41.o)
 .text          0x00000000        0x0 f:/program files/microchip/xc32/v2.50/bin/bin/../../lib/gcc/pic32mx/4.8.3/../../../../pic32mx/lib/size\libpic32.a(vector42.o)
 .data          0x00000000        0x0 f:/program files/microchip/xc32/v2.50/bin/bin/../../lib/gcc/pic32mx/4.8.3/../../../../pic32mx/lib/size\libpic32.a(vector42.o)
 .bss           0x00000000        0x0 f:/program files/microchip/xc32/v2.50/bin/bin/../../lib/gcc/pic32mx/4.8.3/../../../../pic32mx/lib/size\libpic32.a(vector42.o)
 .reginfo       0x00000000       0x18 f:/program files/microchip/xc32/v2.50/bin/bin/../../lib/gcc/pic32mx/4.8.3/../../../../pic32mx/lib/size\libpic32.a(vector42.o)
 .text          0x00000000        0x0 f:/program files/microchip/xc32/v2.50/bin/bin/../../lib/gcc/pic32mx/4.8.3/../../../../pic32mx/lib/size\libpic32.a(vector43.o)
 .data          0x00000000        0x0 f:/program files/microchip/xc32/v2.50/bin/bin/../../lib/gcc/pic32mx/4.8.3/../../../../pic32mx/lib/size\libpic32.a(vector43.o)
 .bss           0x00000000        0x0 f:/program files/microchip/xc32/v2.50/bin/bin/../../lib/gcc/pic32mx/4.8.3/../../../../pic32mx/lib/size\libpic32.a(vector43.o)
 .reginfo       0x00000000       0x18 f:/program files/microchip/xc32/v2.50/bin/bin/../../lib/gcc/pic32mx/4.8.3/../../../../pic32mx/lib/size\libpic32.a(vector43.o)
 .text          0x00000000        0x0 f:/program files/microchip/xc32/v2.50/bin/bin/../../lib/gcc/pic32mx/4.8.3/../../../../pic32mx/lib/size\libpic32.a(vector44.o)
 .data          0x00000000        0x0 f:/program files/microchip/xc32/v2.50/bin/bin/../../lib/gcc/pic32mx/4.8.3/../../../../pic32mx/lib/size\libpic32.a(vector44.o)
 .bss           0x00000000        0x0 f:/program files/microchip/xc32/v2.50/bin/bin/../../lib/gcc/pic32mx/4.8.3/../../../../pic32mx/lib/size\libpic32.a(vector44.o)
 .reginfo       0x00000000       0x18 f:/program files/microchip/xc32/v2.50/bin/bin/../../lib/gcc/pic32mx/4.8.3/../../../../pic32mx/lib/size\libpic32.a(vector44.o)
 .text          0x00000000        0x0 f:/program files/microchip/xc32/v2.50/bin/bin/../../lib/gcc/pic32mx/4.8.3/../../../../pic32mx/lib/size\libpic32.a(vector45.o)
 .data          0x00000000        0x0 f:/program files/microchip/xc32/v2.50/bin/bin/../../lib/gcc/pic32mx/4.8.3/../../../../pic32mx/lib/size\libpic32.a(vector45.o)
 .bss           0x00000000        0x0 f:/program files/microchip/xc32/v2.50/bin/bin/../../lib/gcc/pic32mx/4.8.3/../../../../pic32mx/lib/size\libpic32.a(vector45.o)
 .reginfo       0x00000000       0x18 f:/program files/microchip/xc32/v2.50/bin/bin/../../lib/gcc/pic32mx/4.8.3/../../../../pic32mx/lib/size\libpic32.a(vector45.o)
 .text          0x00000000        0x0 f:/program files/microchip/xc32/v2.50/bin/bin/../../lib/gcc/pic32mx/4.8.3/../../../../pic32mx/lib/size\libpic32.a(vector46.o)
 .data          0x00000000        0x0 f:/program files/microchip/xc32/v2.50/bin/bin/../../lib/gcc/pic32mx/4.8.3/../../../../pic32mx/lib/size\libpic32.a(vector46.o)
 .bss           0x00000000        0x0 f:/program files/microchip/xc32/v2.50/bin/bin/../../lib/gcc/pic32mx/4.8.3/../../../../pic32mx/lib/size\libpic32.a(vector46.o)
 .reginfo       0x00000000       0x18 f:/program files/microchip/xc32/v2.50/bin/bin/../../lib/gcc/pic32mx/4.8.3/../../../../pic32mx/lib/size\libpic32.a(vector46.o)
 .text          0x00000000        0x0 f:/program files/microchip/xc32/v2.50/bin/bin/../../lib/gcc/pic32mx/4.8.3/../../../../pic32mx/lib/size\libpic32.a(vector47.o)
 .data          0x00000000        0x0 f:/program files/microchip/xc32/v2.50/bin/bin/../../lib/gcc/pic32mx/4.8.3/../../../../pic32mx/lib/size\libpic32.a(vector47.o)
 .bss           0x00000000        0x0 f:/program files/microchip/xc32/v2.50/bin/bin/../../lib/gcc/pic32mx/4.8.3/../../../../pic32mx/lib/size\libpic32.a(vector47.o)
 .reginfo       0x00000000       0x18 f:/program files/microchip/xc32/v2.50/bin/bin/../../lib/gcc/pic32mx/4.8.3/../../../../pic32mx/lib/size\libpic32.a(vector47.o)
 .text          0x00000000        0x0 f:/program files/microchip/xc32/v2.50/bin/bin/../../lib/gcc/pic32mx/4.8.3/../../../../pic32mx/lib/size\libpic32.a(vector48.o)
 .data          0x00000000        0x0 f:/program files/microchip/xc32/v2.50/bin/bin/../../lib/gcc/pic32mx/4.8.3/../../../../pic32mx/lib/size\libpic32.a(vector48.o)
 .bss           0x00000000        0x0 f:/program files/microchip/xc32/v2.50/bin/bin/../../lib/gcc/pic32mx/4.8.3/../../../../pic32mx/lib/size\libpic32.a(vector48.o)
 .reginfo       0x00000000       0x18 f:/program files/microchip/xc32/v2.50/bin/bin/../../lib/gcc/pic32mx/4.8.3/../../../../pic32mx/lib/size\libpic32.a(vector48.o)
 .text          0x00000000        0x0 f:/program files/microchip/xc32/v2.50/bin/bin/../../lib/gcc/pic32mx/4.8.3/../../../../pic32mx/lib/size\libpic32.a(vector49.o)
 .data          0x00000000        0x0 f:/program files/microchip/xc32/v2.50/bin/bin/../../lib/gcc/pic32mx/4.8.3/../../../../pic32mx/lib/size\libpic32.a(vector49.o)
 .bss           0x00000000        0x0 f:/program files/microchip/xc32/v2.50/bin/bin/../../lib/gcc/pic32mx/4.8.3/../../../../pic32mx/lib/size\libpic32.a(vector49.o)
 .reginfo       0x00000000       0x18 f:/program files/microchip/xc32/v2.50/bin/bin/../../lib/gcc/pic32mx/4.8.3/../../../../pic32mx/lib/size\libpic32.a(vector49.o)
 .text          0x00000000        0x0 f:/program files/microchip/xc32/v2.50/bin/bin/../../lib/gcc/pic32mx/4.8.3/../../../../pic32mx/lib/size\libpic32.a(vector50.o)
 .data          0x00000000        0x0 f:/program files/microchip/xc32/v2.50/bin/bin/../../lib/gcc/pic32mx/4.8.3/../../../../pic32mx/lib/size\libpic32.a(vector50.o)
 .bss           0x00000000        0x0 f:/program files/microchip/xc32/v2.50/bin/bin/../../lib/gcc/pic32mx/4.8.3/../../../../pic32mx/lib/size\libpic32.a(vector50.o)
 .reginfo       0x00000000       0x18 f:/program files/microchip/xc32/v2.50/bin/bin/../../lib/gcc/pic32mx/4.8.3/../../../../pic32mx/lib/size\libpic32.a(vector50.o)
 .text          0x00000000        0x0 f:/program files/microchip/xc32/v2.50/bin/bin/../../lib/gcc/pic32mx/4.8.3/../../../../pic32mx/lib/size\libpic32.a(vector51.o)
 .data          0x00000000        0x0 f:/program files/microchip/xc32/v2.50/bin/bin/../../lib/gcc/pic32mx/4.8.3/../../../../pic32mx/lib/size\libpic32.a(vector51.o)
 .bss           0x00000000        0x0 f:/program files/microchip/xc32/v2.50/bin/bin/../../lib/gcc/pic32mx/4.8.3/../../../../pic32mx/lib/size\libpic32.a(vector51.o)
 .reginfo       0x00000000       0x18 f:/program files/microchip/xc32/v2.50/bin/bin/../../lib/gcc/pic32mx/4.8.3/../../../../pic32mx/lib/size\libpic32.a(vector51.o)
 .text          0x00000000        0x0 f:/program files/microchip/xc32/v2.50/bin/bin/../../lib/gcc/pic32mx/4.8.3/../../../../pic32mx/lib/size\libpic32.a(default-general-exception-handler.o)
 .data          0x00000000        0x0 f:/program files/microchip/xc32/v2.50/bin/bin/../../lib/gcc/pic32mx/4.8.3/../../../../pic32mx/lib/size\libpic32.a(default-general-exception-handler.o)
 .bss           0x00000000        0x0 f:/program files/microchip/xc32/v2.50/bin/bin/../../lib/gcc/pic32mx/4.8.3/../../../../pic32mx/lib/size\libpic32.a(default-general-exception-handler.o)
 .reginfo       0x00000000       0x18 f:/program files/microchip/xc32/v2.50/bin/bin/../../lib/gcc/pic32mx/4.8.3/../../../../pic32mx/lib/size\libpic32.a(default-general-exception-handler.o)
 .text          0x00000000        0x0 f:/program files/microchip/xc32/v2.50/bin/bin/../../lib/gcc/pic32mx/4.8.3/../../../../pic32mx/lib/size\libpic32.a(defaultinterrupt.o)
 .data          0x00000000        0x0 f:/program files/microchip/xc32/v2.50/bin/bin/../../lib/gcc/pic32mx/4.8.3/../../../../pic32mx/lib/size\libpic32.a(defaultinterrupt.o)
 .bss           0x00000000        0x0 f:/program files/microchip/xc32/v2.50/bin/bin/../../lib/gcc/pic32mx/4.8.3/../../../../pic32mx/lib/size\libpic32.a(defaultinterrupt.o)
 .reginfo       0x00000000       0x18 f:/program files/microchip/xc32/v2.50/bin/bin/../../lib/gcc/pic32mx/4.8.3/../../../../pic32mx/lib/size\libpic32.a(defaultinterrupt.o)

Memory Configuration

Name             Origin             Length             Attributes
kseg0_program_mem 0x9d000000         0x00010000         xr
kseg0_boot_mem   0x9fc00490         0x00000970
exception_mem    0x9fc01000         0x00001000
kseg1_boot_mem   0xbfc00000         0x00000490
debug_exec_mem   0xbfc02000         0x00000ff0
config3          0xbfc02ff0         0x00000004
config2          0xbfc02ff4         0x00000004
config1          0xbfc02ff8         0x00000004
config0          0xbfc02ffc         0x00000004
kseg1_data_mem   0xa0000000         0x00004000         w !x
sfrs             0xbf800000         0x00100000
configsfrs       0xbfc02ff0         0x00000010
*default*        0x00000000         0xffffffff

Linker script and memory map

LOAD f:/program files/microchip/xc32/v2.50/bin/bin/../../lib/gcc/pic32mx/4.8.3/../../../../pic32mx/lib/size\debug-exception-return.o
LOAD build/PIC32_Standalone/production/usb/usb_descriptors.o
LOAD build/PIC32_Standalone/production/usb/usb_device.o
LOAD build/PIC32_Standalone/production/usb/usb_driver.o
LOAD build/PIC32_Standalone/production/usb/usb_function_hid.o
LOAD build/PIC32_Standalone/production/usb/usb_hal_pic24.o
LOAD build/PIC32_Standalone/production/main.o
LOAD build/PIC32_Standalone/production/isr.o
LOAD build/PIC32_Standalone/production/iron.o
LOAD build/PIC32_Standalone/production/PID.o
LOAD build/PIC32_Standalone/production/io.o
LOAD build/PIC32_Standalone/production/menu.o
LOAD build/PIC32_Standalone/production/PIC32MX534F064H.o
LOAD build/PIC32_Standalone/production/EEP.o
LOAD build/PIC32_Standalone/production/OLED.o
LOAD build/PIC32_Standalone/production/pars.o
LOAD build/PIC32_Standalone/production/sensorMath.o
                0x00000001                __MPLAB_BUILD = 0x1
LOAD C:\Users\Sparky\AppData\Local\Temp\ccKRlJUm.o
LOAD C:\Users\Sparky\AppData\Local\Temp\ccugLTpp.o
LOAD C:\Users\Sparky\AppData\Local\Temp\ccGxd9Dz.o
LOAD f:/program files/microchip/xc32/v2.50/bin/bin/../../lib/gcc/pic32mx/4.8.3/../../../../pic32mx/lib/size\pic32_software_reset.o
                0x00000400                PROVIDE (_min_stack_size, 0x400)
START GROUP
LOAD f:/program files/microchip/xc32/v2.50/bin/bin/../../lib/gcc/pic32mx/4.8.3/../../../../pic32mx/lib/./proc/32MX534F064H\processor.o
END GROUP
START GROUP
LOAD f:/program files/microchip/xc32/v2.50/bin/bin/../../lib/gcc/pic32mx/4.8.3/../../../../pic32mx/lib/size\libmchp_peripheral.a
END GROUP
START GROUP
LOAD f:/program files/microchip/xc32/v2.50/bin/bin/../../lib/gcc/pic32mx/4.8.3/../../../../pic32mx/lib/size\libmchp_peripheral_32MX534F064H.a
END GROUP
                0x00000001                PROVIDE (_vector_spacing, 0x1)
                0x9fc01000                PROVIDE (_ebase_address, 0x9fc01000)
                0xbfc00000                _RESET_ADDR = 0xbfc00000
                0xbfc00380                _BEV_EXCPT_ADDR = 0xbfc00380
                0xbfc00480                _DBG_EXCPT_ADDR = 0xbfc00480
                0xbfc02000                _DBG_CODE_ADDR = 0xbfc02000
                0x00000ff0                _DBG_CODE_SIZE = 0xff0
                0x9fc01180                _GEN_EXCPT_ADDR = (_ebase_address + 0x180)

.config_BFC02FF0
                0xbfc02ff0        0x4
 *(.config_BFC02FF0)
 .config_BFC02FF0
                0xbfc02ff0        0x4 build/PIC32_Standalone/production/PIC32MX534F064H.o

.config_BFC02FF4
                0xbfc02ff4        0x4
 *(.config_BFC02FF4)
 .config_BFC02FF4
                0xbfc02ff4        0x4 build/PIC32_Standalone/production/PIC32MX534F064H.o

.config_BFC02FF8
                0xbfc02ff8        0x4
 *(.config_BFC02FF8)
 .config_BFC02FF8
                0xbfc02ff8        0x4 build/PIC32_Standalone/production/PIC32MX534F064H.o

.config_BFC02FFC
                0xbfc02ffc        0x4
 *(.config_BFC02FFC)
 .config_BFC02FFC
                0xbfc02ffc        0x4 build/PIC32_Standalone/production/PIC32MX534F064H.o
                0xbfc02000                PROVIDE (_DBG_CODE_ADDR, 0xbfc02000)
                0x00000ff0                PROVIDE (_DBG_CODE_SIZE, 0xff0)

.reset          0xbfc00000      0x19c
 *(.reset)
 .reset         0xbfc00000        0x8 C:\Users\Sparky\AppData\Local\Temp\ccKRlJUm.o
                0xbfc00000                _reset
 *(.reset.startup)
 .reset.startup
                0xbfc00008      0x194 C:\Users\Sparky\AppData\Local\Temp\ccKRlJUm.o
                0xbfc00008                _startup

.bev_excpt      0xbfc00380       0x10
 *(.bev_handler)
 .bev_handler   0xbfc00380       0x10 C:\Users\Sparky\AppData\Local\Temp\ccKRlJUm.o

.dbg_excpt      0xbfc00480        0x0
                0xbfc00480                . = (. + DEFINED (_DEBUGGER)?0x8:0x0)

.dbg_code       0xbfc02000        0x0
                0xbfc02000                . = (. + DEFINED (_DEBUGGER)?_DBG_CODE_SIZE:0x0)

.app_excpt      0x9fc01180       0x10
 *(.gen_handler)
 .gen_handler   0x9fc01180       0x10 C:\Users\Sparky\AppData\Local\Temp\ccKRlJUm.o

.vector_0       0x9fc01200        0x8
 *(.vector_0)
 .vector_0      0x9fc01200        0x8 f:/program files/microchip/xc32/v2.50/bin/bin/../../lib/gcc/pic32mx/4.8.3/../../../../pic32mx/lib/size\libpic32.a(vector0.o)
                0x9fc01200                __vector_dispatch_0
                0x00000001                ASSERT (((_vector_spacing == 0x0) || (SIZEOF (.vector_0) <= (_vector_spacing << 0x5))), function at exception vector 0 too large)

.vector_1       0x9fc01220        0x8
 *(.vector_1)
 .vector_1      0x9fc01220        0x8 f:/program files/microchip/xc32/v2.50/bin/bin/../../lib/gcc/pic32mx/4.8.3/../../../../pic32mx/lib/size\libpic32.a(vector1.o)
                0x9fc01220                __vector_dispatch_1
                0x00000001                ASSERT (((_vector_spacing == 0x0) || (SIZEOF (.vector_1) <= (_vector_spacing << 0x5))), function at exception vector 1 too large)

.vector_2       0x9fc01240        0x8
 *(.vector_2)
 .vector_2      0x9fc01240        0x8 f:/program files/microchip/xc32/v2.50/bin/bin/../../lib/gcc/pic32mx/4.8.3/../../../../pic32mx/lib/size\libpic32.a(vector2.o)
                0x9fc01240                __vector_dispatch_2
                0x00000001                ASSERT (((_vector_spacing == 0x0) || (SIZEOF (.vector_2) <= (_vector_spacing << 0x5))), function at exception vector 2 too large)

.vector_3       0x9fc01260        0x8
 *(.vector_3)
 .vector_3      0x9fc01260        0x8 f:/program files/microchip/xc32/v2.50/bin/bin/../../lib/gcc/pic32mx/4.8.3/../../../../pic32mx/lib/size\libpic32.a(vector3.o)
                0x9fc01260                __vector_dispatch_3
                0x00000001                ASSERT (((_vector_spacing == 0x0) || (SIZEOF (.vector_3) <= (_vector_spacing << 0x5))), function at exception vector 3 too large)

.vector_4       0x9fc01280       0x10
 *(.vector_4)
 .vector_4      0x9fc01280       0x10 build/PIC32_Standalone/production/PIC32MX534F064H.o
                0x9fc01280                __vector_dispatch_4
                0x00000001                ASSERT (((_vector_spacing == 0x0) || (SIZEOF (.vector_4) <= (_vector_spacing << 0x5))), function at exception vector 4 too large)

.vector_5       0x9fc012a0        0x8
 *(.vector_5)
 .vector_5      0x9fc012a0        0x8 f:/program files/microchip/xc32/v2.50/bin/bin/../../lib/gcc/pic32mx/4.8.3/../../../../pic32mx/lib/size\libpic32.a(vector5.o)
                0x9fc012a0                __vector_dispatch_5
                0x00000001                ASSERT (((_vector_spacing == 0x0) || (SIZEOF (.vector_5) <= (_vector_spacing << 0x5))), function at exception vector 5 too large)

.vector_6       0x9fc012c0        0x8
 *(.vector_6)
 .vector_6      0x9fc012c0        0x8 f:/program files/microchip/xc32/v2.50/bin/bin/../../lib/gcc/pic32mx/4.8.3/../../../../pic32mx/lib/size\libpic32.a(vector6.o)
                0x9fc012c0                __vector_dispatch_6
                0x00000001                ASSERT (((_vector_spacing == 0x0) || (SIZEOF (.vector_6) <= (_vector_spacing << 0x5))), function at exception vector 6 too large)

.vector_7       0x9fc012e0        0x8
 *(.vector_7)
 .vector_7      0x9fc012e0        0x8 f:/program files/microchip/xc32/v2.50/bin/bin/../../lib/gcc/pic32mx/4.8.3/../../../../pic32mx/lib/size\libpic32.a(vector7.o)
                0x9fc012e0                __vector_dispatch_7
                0x00000001                ASSERT (((_vector_spacing == 0x0) || (SIZEOF (.vector_7) <= (_vector_spacing << 0x5))), function at exception vector 7 too large)

.vector_8       0x9fc01300       0x10
 *(.vector_8)
 .vector_8      0x9fc01300       0x10 build/PIC32_Standalone/production/PIC32MX534F064H.o
                0x9fc01300                __vector_dispatch_8
                0x00000001                ASSERT (((_vector_spacing == 0x0) || (SIZEOF (.vector_8) <= (_vector_spacing << 0x5))), function at exception vector 8 too large)

.vector_9       0x9fc01320        0x8
 *(.vector_9)
 .vector_9      0x9fc01320        0x8 f:/program files/microchip/xc32/v2.50/bin/bin/../../lib/gcc/pic32mx/4.8.3/../../../../pic32mx/lib/size\libpic32.a(vector9.o)
                0x9fc01320                __vector_dispatch_9
                0x00000001                ASSERT (((_vector_spacing == 0x0) || (SIZEOF (.vector_9) <= (_vector_spacing << 0x5))), function at exception vector 9 too large)

.vector_10      0x9fc01340       0x10
 *(.vector_10)
 .vector_10     0x9fc01340       0x10 build/PIC32_Standalone/production/PIC32MX534F064H.o
                0x9fc01340                __vector_dispatch_10
                0x00000001                ASSERT (((_vector_spacing == 0x0) || (SIZEOF (.vector_10) <= (_vector_spacing << 0x5))), function at exception vector 10 too large)

.vector_11      0x9fc01360        0x8
 *(.vector_11)
 .vector_11     0x9fc01360        0x8 f:/program files/microchip/xc32/v2.50/bin/bin/../../lib/gcc/pic32mx/4.8.3/../../../../pic32mx/lib/size\libpic32.a(vector11.o)
                0x9fc01360                __vector_dispatch_11
                0x00000001                ASSERT (((_vector_spacing == 0x0) || (SIZEOF (.vector_11) <= (_vector_spacing << 0x5))), function at exception vector 11 too large)

.vector_12      0x9fc01380        0x8
 *(.vector_12)
 .vector_12     0x9fc01380        0x8 f:/program files/microchip/xc32/v2.50/bin/bin/../../lib/gcc/pic32mx/4.8.3/../../../../pic32mx/lib/size\libpic32.a(vector12.o)
                0x9fc01380                __vector_dispatch_12
                0x00000001                ASSERT (((_vector_spacing == 0x0) || (SIZEOF (.vector_12) <= (_vector_spacing << 0x5))), function at exception vector 12 too large)

.vector_13      0x9fc013a0        0x8
 *(.vector_13)
 .vector_13     0x9fc013a0        0x8 f:/program files/microchip/xc32/v2.50/bin/bin/../../lib/gcc/pic32mx/4.8.3/../../../../pic32mx/lib/size\libpic32.a(vector13.o)
                0x9fc013a0                __vector_dispatch_13
                0x00000001                ASSERT (((_vector_spacing == 0x0) || (SIZEOF (.vector_13) <= (_vector_spacing << 0x5))), function at exception vector 13 too large)

.vector_14      0x9fc013c0        0x8
 *(.vector_14)
 .vector_14     0x9fc013c0        0x8 f:/program files/microchip/xc32/v2.50/bin/bin/../../lib/gcc/pic32mx/4.8.3/../../../../pic32mx/lib/size\libpic32.a(vector14.o)
                0x9fc013c0                __vector_dispatch_14
                0x00000001                ASSERT (((_vector_spacing == 0x0) || (SIZEOF (.vector_14) <= (_vector_spacing << 0x5))), function at exception vector 14 too large)

.vector_15      0x9fc013e0        0x8
 *(.vector_15)
 .vector_15     0x9fc013e0        0x8 f:/program files/microchip/xc32/v2.50/bin/bin/../../lib/gcc/pic32mx/4.8.3/../../../../pic32mx/lib/size\libpic32.a(vector15.o)
                0x9fc013e0                __vector_dispatch_15
                0x00000001                ASSERT (((_vector_spacing == 0x0) || (SIZEOF (.vector_15) <= (_vector_spacing << 0x5))), function at exception vector 15 too large)

.vector_16      0x9fc01400        0x8
 *(.vector_16)
 .vector_16     0x9fc01400        0x8 f:/program files/microchip/xc32/v2.50/bin/bin/../../lib/gcc/pic32mx/4.8.3/../../../../pic32mx/lib/size\libpic32.a(vector16.o)
                0x9fc01400                __vector_dispatch_16
                0x00000001                ASSERT (((_vector_spacing == 0x0) || (SIZEOF (.vector_16) <= (_vector_spacing << 0x5))), function at exception vector 16 too large)

.vector_17      0x9fc01420        0x8
 *(.vector_17)
 .vector_17     0x9fc01420        0x8 f:/program files/microchip/xc32/v2.50/bin/bin/../../lib/gcc/pic32mx/4.8.3/../../../../pic32mx/lib/size\libpic32.a(vector17.o)
                0x9fc01420                __vector_dispatch_17
                0x00000001                ASSERT (((_vector_spacing == 0x0) || (SIZEOF (.vector_17) <= (_vector_spacing << 0x5))), function at exception vector 17 too large)

.vector_18      0x9fc01440        0x8
 *(.vector_18)
 .vector_18     0x9fc01440        0x8 f:/program files/microchip/xc32/v2.50/bin/bin/../../lib/gcc/pic32mx/4.8.3/../../../../pic32mx/lib/size\libpic32.a(vector18.o)
                0x9fc01440                __vector_dispatch_18
                0x00000001                ASSERT (((_vector_spacing == 0x0) || (SIZEOF (.vector_18) <= (_vector_spacing << 0x5))), function at exception vector 18 too large)

.vector_19      0x9fc01460        0x8
 *(.vector_19)
 .vector_19     0x9fc01460        0x8 f:/program files/microchip/xc32/v2.50/bin/bin/../../lib/gcc/pic32mx/4.8.3/../../../../pic32mx/lib/size\libpic32.a(vector19.o)
                0x9fc01460                __vector_dispatch_19
                0x00000001                ASSERT (((_vector_spacing == 0x0) || (SIZEOF (.vector_19) <= (_vector_spacing << 0x5))), function at exception vector 19 too large)

.vector_20      0x9fc01480        0x8
 *(.vector_20)
 .vector_20     0x9fc01480        0x8 f:/program files/microchip/xc32/v2.50/bin/bin/../../lib/gcc/pic32mx/4.8.3/../../../../pic32mx/lib/size\libpic32.a(vector20.o)
                0x9fc01480                __vector_dispatch_20
                0x00000001                ASSERT (((_vector_spacing == 0x0) || (SIZEOF (.vector_20) <= (_vector_spacing << 0x5))), function at exception vector 20 too large)

.vector_21      0x9fc014a0        0x8
 *(.vector_21)
 .vector_21     0x9fc014a0        0x8 f:/program files/microchip/xc32/v2.50/bin/bin/../../lib/gcc/pic32mx/4.8.3/../../../../pic32mx/lib/size\libpic32.a(vector21.o)
                0x9fc014a0                __vector_dispatch_21
                0x00000001                ASSERT (((_vector_spacing == 0x0) || (SIZEOF (.vector_21) <= (_vector_spacing << 0x5))), function at exception vector 21 too large)

.vector_22      0x9fc014c0        0x8
 *(.vector_22)
 .vector_22     0x9fc014c0        0x8 f:/program files/microchip/xc32/v2.50/bin/bin/../../lib/gcc/pic32mx/4.8.3/../../../../pic32mx/lib/size\libpic32.a(vector22.o)
                0x9fc014c0                __vector_dispatch_22
                0x00000001                ASSERT (((_vector_spacing == 0x0) || (SIZEOF (.vector_22) <= (_vector_spacing << 0x5))), function at exception vector 22 too large)

.vector_23      0x9fc014e0        0x8
 *(.vector_23)
 .vector_23     0x9fc014e0        0x8 f:/program files/microchip/xc32/v2.50/bin/bin/../../lib/gcc/pic32mx/4.8.3/../../../../pic32mx/lib/size\libpic32.a(vector23.o)
                0x9fc014e0                __vector_dispatch_23
                0x00000001                ASSERT (((_vector_spacing == 0x0) || (SIZEOF (.vector_23) <= (_vector_spacing << 0x5))), function at exception vector 23 too large)

.vector_24      0x9fc01500        0x8
 *(.vector_24)
 .vector_24     0x9fc01500        0x8 f:/program files/microchip/xc32/v2.50/bin/bin/../../lib/gcc/pic32mx/4.8.3/../../../../pic32mx/lib/size\libpic32.a(vector24.o)
                0x9fc01500                __vector_dispatch_24
                0x00000001                ASSERT (((_vector_spacing == 0x0) || (SIZEOF (.vector_24) <= (_vector_spacing << 0x5))), function at exception vector 24 too large)

.vector_25      0x9fc01520        0x8
 *(.vector_25)
 .vector_25     0x9fc01520        0x8 f:/program files/microchip/xc32/v2.50/bin/bin/../../lib/gcc/pic32mx/4.8.3/../../../../pic32mx/lib/size\libpic32.a(vector25.o)
                0x9fc01520                __vector_dispatch_25
                0x00000001                ASSERT (((_vector_spacing == 0x0) || (SIZEOF (.vector_25) <= (_vector_spacing << 0x5))), function at exception vector 25 too large)

.vector_26      0x9fc01540        0x8
 *(.vector_26)
 .vector_26     0x9fc01540        0x8 f:/program files/microchip/xc32/v2.50/bin/bin/../../lib/gcc/pic32mx/4.8.3/../../../../pic32mx/lib/size\libpic32.a(vector26.o)
                0x9fc01540                __vector_dispatch_26
                0x00000001                ASSERT (((_vector_spacing == 0x0) || (SIZEOF (.vector_26) <= (_vector_spacing << 0x5))), function at exception vector 26 too large)

.vector_27      0x9fc01560       0x10
 *(.vector_27)
 .vector_27     0x9fc01560       0x10 build/PIC32_Standalone/production/PIC32MX534F064H.o
                0x9fc01560                __vector_dispatch_27
                0x00000001                ASSERT (((_vector_spacing == 0x0) || (SIZEOF (.vector_27) <= (_vector_spacing << 0x5))), function at exception vector 27 too large)

.vector_28      0x9fc01580        0x8
 *(.vector_28)
 .vector_28     0x9fc01580        0x8 f:/program files/microchip/xc32/v2.50/bin/bin/../../lib/gcc/pic32mx/4.8.3/../../../../pic32mx/lib/size\libpic32.a(vector28.o)
                0x9fc01580                __vector_dispatch_28
                0x00000001                ASSERT (((_vector_spacing == 0x0) || (SIZEOF (.vector_28) <= (_vector_spacing << 0x5))), function at exception vector 28 too large)

.vector_29      0x9fc015a0        0x8
 *(.vector_29)
 .vector_29     0x9fc015a0        0x8 f:/program files/microchip/xc32/v2.50/bin/bin/../../lib/gcc/pic32mx/4.8.3/../../../../pic32mx/lib/size\libpic32.a(vector29.o)
                0x9fc015a0                __vector_dispatch_29
                0x00000001                ASSERT (((_vector_spacing == 0x0) || (SIZEOF (.vector_29) <= (_vector_spacing << 0x5))), function at exception vector 29 too large)

.vector_30      0x9fc015c0       0x10
 *(.vector_30)
 .vector_30     0x9fc015c0       0x10 build/PIC32_Standalone/production/PIC32MX534F064H.o
                0x9fc015c0                __vector_dispatch_30
                0x00000001                ASSERT (((_vector_spacing == 0x0) || (SIZEOF (.vector_30) <= (_vector_spacing << 0x5))), function at exception vector 30 too large)

.vector_31      0x9fc015e0       0x10
 *(.vector_31)
 .vector_31     0x9fc015e0       0x10 build/PIC32_Standalone/production/PIC32MX534F064H.o
                0x9fc015e0                __vector_dispatch_31
                0x00000001                ASSERT (((_vector_spacing == 0x0) || (SIZEOF (.vector_31) <= (_vector_spacing << 0x5))), function at exception vector 31 too large)

.vector_32      0x9fc01600        0x8
 *(.vector_32)
 .vector_32     0x9fc01600        0x8 f:/program files/microchip/xc32/v2.50/bin/bin/../../lib/gcc/pic32mx/4.8.3/../../../../pic32mx/lib/size\libpic32.a(vector32.o)
                0x9fc01600                __vector_dispatch_32
                0x00000001                ASSERT (((_vector_spacing == 0x0) || (SIZEOF (.vector_32) <= (_vector_spacing << 0x5))), function at exception vector 32 too large)

.vector_33      0x9fc01620        0x8
 *(.vector_33)
 .vector_33     0x9fc01620        0x8 f:/program files/microchip/xc32/v2.50/bin/bin/../../lib/gcc/pic32mx/4.8.3/../../../../pic32mx/lib/size\libpic32.a(vector33.o)
                0x9fc01620                __vector_dispatch_33
                0x00000001                ASSERT (((_vector_spacing == 0x0) || (SIZEOF (.vector_33) <= (_vector_spacing << 0x5))), function at exception vector 33 too large)

.vector_34      0x9fc01640        0x8
 *(.vector_34)
 .vector_34     0x9fc01640        0x8 f:/program files/microchip/xc32/v2.50/bin/bin/../../lib/gcc/pic32mx/4.8.3/../../../../pic32mx/lib/size\libpic32.a(vector34.o)
                0x9fc01640                __vector_dispatch_34
                0x00000001                ASSERT (((_vector_spacing == 0x0) || (SIZEOF (.vector_34) <= (_vector_spacing << 0x5))), function at exception vector 34 too large)

.vector_35      0x9fc01660        0x8
 *(.vector_35)
 .vector_35     0x9fc01660        0x8 f:/program files/microchip/xc32/v2.50/bin/bin/../../lib/gcc/pic32mx/4.8.3/../../../../pic32mx/lib/size\libpic32.a(vector35.o)
                0x9fc01660                __vector_dispatch_35
                0x00000001                ASSERT (((_vector_spacing == 0x0) || (SIZEOF (.vector_35) <= (_vector_spacing << 0x5))), function at exception vector 35 too large)

.vector_36      0x9fc01680        0x8
 *(.vector_36)
 .vector_36     0x9fc01680        0x8 f:/program files/microchip/xc32/v2.50/bin/bin/../../lib/gcc/pic32mx/4.8.3/../../../../pic32mx/lib/size\libpic32.a(vector36.o)
                0x9fc01680                __vector_dispatch_36
                0x00000001                ASSERT (((_vector_spacing == 0x0) || (SIZEOF (.vector_36) <= (_vector_spacing << 0x5))), function at exception vector 36 too large)

.vector_37      0x9fc016a0        0x8
 *(.vector_37)
 .vector_37     0x9fc016a0        0x8 f:/program files/microchip/xc32/v2.50/bin/bin/../../lib/gcc/pic32mx/4.8.3/../../../../pic32mx/lib/size\libpic32.a(vector37.o)
                0x9fc016a0                __vector_dispatch_37
                0x00000001                ASSERT (((_vector_spacing == 0x0) || (SIZEOF (.vector_37) <= (_vector_spacing << 0x5))), function at exception vector 37 too large)

.vector_38      0x9fc016c0        0x8
 *(.vector_38)
 .vector_38     0x9fc016c0        0x8 f:/program files/microchip/xc32/v2.50/bin/bin/../../lib/gcc/pic32mx/4.8.3/../../../../pic32mx/lib/size\libpic32.a(vector38.o)
                0x9fc016c0                __vector_dispatch_38
                0x00000001                ASSERT (((_vector_spacing == 0x0) || (SIZEOF (.vector_38) <= (_vector_spacing << 0x5))), function at exception vector 38 too large)

.vector_39      0x9fc016e0        0x8
 *(.vector_39)
 .vector_39     0x9fc016e0        0x8 f:/program files/microchip/xc32/v2.50/bin/bin/../../lib/gcc/pic32mx/4.8.3/../../../../pic32mx/lib/size\libpic32.a(vector39.o)
                0x9fc016e0                __vector_dispatch_39
                0x00000001                ASSERT (((_vector_spacing == 0x0) || (SIZEOF (.vector_39) <= (_vector_spacing << 0x5))), function at exception vector 39 too large)

.vector_40      0x9fc01700        0x8
 *(.vector_40)
 .vector_40     0x9fc01700        0x8 f:/program files/microchip/xc32/v2.50/bin/bin/../../lib/gcc/pic32mx/4.8.3/../../../../pic32mx/lib/size\libpic32.a(vector40.o)
                0x9fc01700                __vector_dispatch_40
                0x00000001                ASSERT (((_vector_spacing == 0x0) || (SIZEOF (.vector_40) <= (_vector_spacing << 0x5))), function at exception vector 40 too large)

.vector_41      0x9fc01720        0x8
 *(.vector_41)
 .vector_41     0x9fc01720        0x8 f:/program files/microchip/xc32/v2.50/bin/bin/../../lib/gcc/pic32mx/4.8.3/../../../../pic32mx/lib/size\libpic32.a(vector41.o)
                0x9fc01720                __vector_dispatch_41
                0x00000001                ASSERT (((_vector_spacing == 0x0) || (SIZEOF (.vector_41) <= (_vector_spacing << 0x5))), function at exception vector 41 too large)

.vector_42      0x9fc01740        0x8
 *(.vector_42)
 .vector_42     0x9fc01740        0x8 f:/program files/microchip/xc32/v2.50/bin/bin/../../lib/gcc/pic32mx/4.8.3/../../../../pic32mx/lib/size\libpic32.a(vector42.o)
                0x9fc01740                __vector_dispatch_42
                0x00000001                ASSERT (((_vector_spacing == 0x0) || (SIZEOF (.vector_42) <= (_vector_spacing << 0x5))), function at exception vector 42 too large)

.vector_43      0x9fc01760        0x8
 *(.vector_43)
 .vector_43     0x9fc01760        0x8 f:/program files/microchip/xc32/v2.50/bin/bin/../../lib/gcc/pic32mx/4.8.3/../../../../pic32mx/lib/size\libpic32.a(vector43.o)
                0x9fc01760                __vector_dispatch_43
                0x00000001                ASSERT (((_vector_spacing == 0x0) || (SIZEOF (.vector_43) <= (_vector_spacing << 0x5))), function at exception vector 43 too large)

.vector_44      0x9fc01780        0x8
 *(.vector_44)
 .vector_44     0x9fc01780        0x8 f:/program files/microchip/xc32/v2.50/bin/bin/../../lib/gcc/pic32mx/4.8.3/../../../../pic32mx/lib/size\libpic32.a(vector44.o)
                0x9fc01780                __vector_dispatch_44
                0x00000001                ASSERT (((_vector_spacing == 0x0) || (SIZEOF (.vector_44) <= (_vector_spacing << 0x5))), function at exception vector 44 too large)

.vector_45      0x9fc017a0        0x8
 *(.vector_45)
 .vector_45     0x9fc017a0        0x8 f:/program files/microchip/xc32/v2.50/bin/bin/../../lib/gcc/pic32mx/4.8.3/../../../../pic32mx/lib/size\libpic32.a(vector45.o)
                0x9fc017a0                __vector_dispatch_45
                0x00000001                ASSERT (((_vector_spacing == 0x0) || (SIZEOF (.vector_45) <= (_vector_spacing << 0x5))), function at exception vector 45 too large)

.vector_46      0x9fc017c0        0x8
 *(.vector_46)
 .vector_46     0x9fc017c0        0x8 f:/program files/microchip/xc32/v2.50/bin/bin/../../lib/gcc/pic32mx/4.8.3/../../../../pic32mx/lib/size\libpic32.a(vector46.o)
                0x9fc017c0                __vector_dispatch_46
                0x00000001                ASSERT (((_vector_spacing == 0x0) || (SIZEOF (.vector_46) <= (_vector_spacing << 0x5))), function at exception vector 46 too large)

.vector_47      0x9fc017e0        0x8
 *(.vector_47)
 .vector_47     0x9fc017e0        0x8 f:/program files/microchip/xc32/v2.50/bin/bin/../../lib/gcc/pic32mx/4.8.3/../../../../pic32mx/lib/size\libpic32.a(vector47.o)
                0x9fc017e0                __vector_dispatch_47
                0x00000001                ASSERT (((_vector_spacing == 0x0) || (SIZEOF (.vector_47) <= (_vector_spacing << 0x5))), function at exception vector 47 too large)

.vector_48      0x9fc01800        0x8
 *(.vector_48)
 .vector_48     0x9fc01800        0x8 f:/program files/microchip/xc32/v2.50/bin/bin/../../lib/gcc/pic32mx/4.8.3/../../../../pic32mx/lib/size\libpic32.a(vector48.o)
                0x9fc01800                __vector_dispatch_48
                0x00000001                ASSERT (((_vector_spacing == 0x0) || (SIZEOF (.vector_48) <= (_vector_spacing << 0x5))), function at exception vector 48 too large)

.vector_49      0x9fc01820        0x8
 *(.vector_49)
 .vector_49     0x9fc01820        0x8 f:/program files/microchip/xc32/v2.50/bin/bin/../../lib/gcc/pic32mx/4.8.3/../../../../pic32mx/lib/size\libpic32.a(vector49.o)
                0x9fc01820                __vector_dispatch_49
                0x00000001                ASSERT (((_vector_spacing == 0x0) || (SIZEOF (.vector_49) <= (_vector_spacing << 0x5))), function at exception vector 49 too large)

.vector_50      0x9fc01840        0x8
 *(.vector_50)
 .vector_50     0x9fc01840        0x8 f:/program files/microchip/xc32/v2.50/bin/bin/../../lib/gcc/pic32mx/4.8.3/../../../../pic32mx/lib/size\libpic32.a(vector50.o)
                0x9fc01840                __vector_dispatch_50
                0x00000001                ASSERT (((_vector_spacing == 0x0) || (SIZEOF (.vector_50) <= (_vector_spacing << 0x5))), function at exception vector 50 too large)

.vector_51      0x9fc01860        0x8
 *(.vector_51)
 .vector_51     0x9fc01860        0x8 f:/program files/microchip/xc32/v2.50/bin/bin/../../lib/gcc/pic32mx/4.8.3/../../../../pic32mx/lib/size\libpic32.a(vector51.o)
                0x9fc01860                __vector_dispatch_51
                0x00000001                ASSERT (((_vector_spacing == 0x0) || (SIZEOF (.vector_51) <= (_vector_spacing << 0x5))), function at exception vector 51 too large)

.vector_52      0x9fc01880        0x0
 *(.vector_52)
                0x00000001                ASSERT (((_vector_spacing == 0x0) || (SIZEOF (.vector_52) <= (_vector_spacing << 0x5))), function at exception vector 52 too large)

.vector_53      0x9fc018a0        0x0
 *(.vector_53)
                0x00000001                ASSERT (((_vector_spacing == 0x0) || (SIZEOF (.vector_53) <= (_vector_spacing << 0x5))), function at exception vector 53 too large)

.vector_54      0x9fc018c0        0x0
 *(.vector_54)
                0x00000001                ASSERT (((_vector_spacing == 0x0) || (SIZEOF (.vector_54) <= (_vector_spacing << 0x5))), function at exception vector 54 too large)

.vector_55      0x9fc018e0        0x0
 *(.vector_55)
                0x00000001                ASSERT (((_vector_spacing == 0x0) || (SIZEOF (.vector_55) <= (_vector_spacing << 0x5))), function at exception vector 55 too large)

.vector_56      0x9fc01900        0x0
 *(.vector_56)
                0x00000001                ASSERT (((_vector_spacing == 0x0) || (SIZEOF (.vector_56) <= (_vector_spacing << 0x5))), function at exception vector 56 too large)

.vector_57      0x9fc01920        0x0
 *(.vector_57)
                0x00000001                ASSERT (((_vector_spacing == 0x0) || (SIZEOF (.vector_57) <= (_vector_spacing << 0x5))), function at exception vector 57 too large)

.vector_58      0x9fc01940        0x0
 *(.vector_58)
                0x00000001                ASSERT (((_vector_spacing == 0x0) || (SIZEOF (.vector_58) <= (_vector_spacing << 0x5))), function at exception vector 58 too large)

.vector_59      0x9fc01960        0x0
 *(.vector_59)
                0x00000001                ASSERT (((_vector_spacing == 0x0) || (SIZEOF (.vector_59) <= (_vector_spacing << 0x5))), function at exception vector 59 too large)

.vector_60      0x9fc01980        0x0
 *(.vector_60)
                0x00000001                ASSERT (((_vector_spacing == 0x0) || (SIZEOF (.vector_60) <= (_vector_spacing << 0x5))), function at exception vector 60 too large)

.vector_61      0x9fc019a0        0x0
 *(.vector_61)
                0x00000001                ASSERT (((_vector_spacing == 0x0) || (SIZEOF (.vector_61) <= (_vector_spacing << 0x5))), function at exception vector 61 too large)

.vector_62      0x9fc019c0        0x0
 *(.vector_62)
                0x00000001                ASSERT (((_vector_spacing == 0x0) || (SIZEOF (.vector_62) <= (_vector_spacing << 0x5))), function at exception vector 62 too large)

.vector_63      0x9fc019e0        0x0
 *(.vector_63)
                0x00000001                ASSERT (((_vector_spacing == 0x0) || (SIZEOF (.vector_63) <= (_vector_spacing << 0x5))), function at exception vector 63 too large)

.startup
 *(.startup)

.text           0x9d000000        0x0
 *(.stub .gnu.linkonce.t.*)
 *(.text.*personality*)
 *(.mips16.fn.*)
 *(.mips16.call.*)
 *(.gnu.warning)
                0x9d000000                . = ALIGN (0x4)

.init           0x9d000000        0x0
 *crti.o(.init)
 *crtbegin.o(.init)
 *(EXCLUDE_FILE(*crtn.o *crtend?.o *crtend.o) .init)
 *crtend.o(.init)
 *crtn.o(.init)
                0x9d000000                . = ALIGN (0x4)

.fini           0x9d000000        0x0
 *(.fini)
                0x9d000000                . = ALIGN (0x4)

.preinit_array  0x9d000000        0x0
                0x9d000000                PROVIDE (__preinit_array_start, .)
 *(.preinit_array)
                0x9d000000                PROVIDE (__preinit_array_end, .)
                0x9d000000                . = ALIGN (0x4)

.init_array     0x9d000000        0x0
                0x9d000000                PROVIDE (__init_array_start, .)
 *(SORT(.init_array.*))
 *(.init_array)
                0x9d000000                PROVIDE (__init_array_end, .)
                0x9d000000                . = ALIGN (0x4)

.fini_array     0x9d000000        0x0
                0x9d000000                PROVIDE (__fini_array_start, .)
 *(SORT(.fini_array.*))
 *(.fini_array)
                0x9d000000                PROVIDE (__fini_array_end, .)
                0x9d000000                . = ALIGN (0x4)

.ctors          0x9d000000        0x0
 *crtbegin.o(.ctors)
 *crtbegin?.o(.ctors)
 *(EXCLUDE_FILE(*crtend?.o *crtend.o) .ctors)
 *(SORT(.ctors.*))
 *(.ctors)
                0x9d000000                . = ALIGN (0x4)

.dtors          0x9d000000        0x0
 *crtbegin.o(.dtors)
 *crtbegin?.o(.dtors)
 *(EXCLUDE_FILE(*crtend?.o *crtend.o) .dtors)
 *(SORT(.dtors.*))
 *(.dtors)
                0x9d000000                . = ALIGN (0x4)

.rodata         0x9d000000        0x0
 *(.gnu.linkonce.r.*)
 *(.rodata1)
                0x9d000000                . = ALIGN (0x4)

.sdata2         0x9fc00490        0x0
 *(.sdata2 .sdata2.* .gnu.linkonce.s2.*)
                0x9fc00490                . = ALIGN (0x4)

.sbss2          0x9fc00490        0x0
 *(.sbss2 .sbss2.* .gnu.linkonce.sb2.*)
                0x9fc00490                . = ALIGN (0x4)

.eh_frame_hdr
 *(.eh_frame_hdr)
                0x9fc00490                . = ALIGN (0x4)

.eh_frame
 *(.eh_frame)
                0x9fc00490                . = ALIGN (0x4)

.gcc_except_table
 *(.gcc_except_table .gcc_except_table.*)
                0x9fc00490                . = ALIGN (0x4)

.dbg_data       0xa0000000        0x0
                0xa0000000                . = (. + DEFINED (_DEBUGGER)?0x200:0x0)

.jcr            0xa0000000        0x0
 *(.jcr)
                0xa0000000                . = ALIGN (0x4)

.eh_frame
 *(.eh_frame)
                0xa0000000                . = ALIGN (0x4)

.gcc_except_table
 *(.gcc_except_table .gcc_except_table.*)
                0xa0000000                . = ALIGN (0x4)

.persist        0xa0000000        0x0
                0xa0000000                _persist_begin = .
 *(.persist .persist.*)
 *(.pbss .pbss.*)
                0xa0000000                . = ALIGN (0x4)
                0xa0000000                _persist_end = .

.data           0xa0000000        0x0
 *(.gnu.linkonce.d.*)
 *(.data1)
                0xa0000000                . = ALIGN (0x4)
                0xa0000000                . = .
                0xa0007ff0                _gp = (ALIGN (0x10) + 0x7ff0)

.got            0xa0000000        0x0
 *(.got.plt)
 *(.got)
                0xa0000000                . = ALIGN (0x4)

.sdata          0xa0000000       0x24
                0xa0000000                _sdata_begin = .
 *(.sdata .sdata.* .gnu.linkonce.s.*)
 .sdata         0xa0000000        0x4 build/PIC32_Standalone/production/main.o
                0xa0000000                mainFlags
 .sdata         0xa0000004        0x8 build/PIC32_Standalone/production/OLED.o
                0xa0000004                PreUpdateBuff
 .sdata         0xa000000c       0x18 build/PIC32_Standalone/production/pars.o
                0xa000000c                StrMenuUp
                0xa0000014                StrButtons
                0xa000001c                StrDispRot
                0xa0000024                . = ALIGN (0x4)
                0xa0000024                _sdata_end = .

.lit8
 *(.lit8)

.lit4
 *(.lit4)
                0xa0000024                . = ALIGN (0x4)
                0xa0000024                _data_end = .
                0xa0000024                _bss_begin = .

.sbss           0xa0000024      0x1d4
                0xa0000024                _sbss_begin = .
 *(.dynsbss)
 *(.sbss .sbss.* .gnu.linkonce.sb.*)
 .sbss          0xa0000024        0x8 build/PIC32_Standalone/production/usb/usb_driver.o
                0xa0000024                USBInHandle
                0xa0000028                USBOutHandle
 .sbss          0xa000002c        0x8 build/PIC32_Standalone/production/isr.o
                0xa0000030                ISRComplete
 .sbss          0xa0000034        0x8 build/PIC32_Standalone/production/iron.o
 .sbss          0xa000003c       0x10 build/PIC32_Standalone/production/io.o
 .sbss          0xa000004c       0x60 build/PIC32_Standalone/production/menu.o
 .sbss          0xa00000ac        0xc build/PIC32_Standalone/production/PIC32MX534F064H.o
                0xa00000b4                ADCAuto
 .sbss          0xa00000b8        0x4 build/PIC32_Standalone/production/OLED.o
                0xa00000b8                DisplaySetup
 *(.scommon)
 .scommon       0xa00000bc       0x6c build/PIC32_Standalone/production/usb/usb_device.o
                0xa00000bc                pDst
                0xa00000c0                USBDeferINDataStagePackets
                0xa00000c4                CtrlTrfData
                0xa00000cc                USBDeferOUTDataStagePackets
                0xa00000d0                USBDeviceState
                0xa00000d4                controlTransferState
                0xa00000d5                endpoint_number
                0xa00000d8                pBDTEntryIn
                0xa00000e0                ep_data_out
                0xa00000e4                USBStatusStageEnabledFlag1
                0xa00000e8                USBStatusStageEnabledFlag2
                0xa00000ec                pBDTEntryOut
                0xa00000f4                BothEP0OutUOWNsSet
                0xa00000f8                pBDTEntryEP0OutNext
                0xa00000fc                USBBusIsSuspended
                0xa0000100                USBStatusStageTimeoutCounter
                0xa0000104                SetupPkt
                0xa000010c                ep_data_in
                0xa000010e                shortPacketStatus
                0xa0000110                pBDTEntryEP0OutCurrent
                0xa0000114                USBActiveConfiguration
                0xa0000118                RemoteWakeup
                0xa000011c                USTATcopy
                0xa0000120                USBAlternateInterface
                0xa0000124                USBDeferStatusStagePacket
 .scommon       0xa0000128        0x2 build/PIC32_Standalone/production/usb/usb_function_hid.o
                0xa0000128                active_protocol
                0xa0000129                idle_rate
 *fill*         0xa000012a        0x2 
 .scommon       0xa000012c       0x28 build/PIC32_Standalone/production/main.o
                0xa000012c                CalCh
                0xa0000130                InvertTicks
                0xa0000134                MAINS_PER
                0xa0000138                BeepTicks
                0xa000013c                MAINS_PER_Q_US
                0xa0000140                MAINS_PER_H_US
                0xa0000144                C_PER
                0xa0000148                T_PER
                0xa000014c                TTemp
                0xa0000150                MAINS_PER_US
 .scommon       0xa0000154       0x65 build/PIC32_Standalone/production/isr.o
                0xa0000154                EEPCntR
                0xa0000156                EEPCntW
                0xa0000158                NoHeater
                0xa000015c                ISRStep
                0xa0000160                I2CIdle
                0xa0000164                ADCStep
                0xa0000168                KeepOff
                0xa000016c                CompLowTime
                0xa0000170                EEPAddrR
                0xa0000174                EEPDataW
                0xa0000178                I2CCCommand
                0xa000017c                VTIBuffCnt
                0xa0000180                CompLowTimeOff
                0xa0000184                ShortCircuit
                0xa0000188                I2CData
                0xa0000190                I2CCommands
                0xa0000194                ISRTicks
                0xa0000198                I2CStep
                0xa000019c                CJTicks
                0xa00001a0                OffDelayOff
                0xa00001a4                EEPDataR
                0xa00001a8                EEPAddrW
                0xa00001ac                ISRStopped
                0xa00001b0                NoSensor
                0xa00001b4                CompLowTimeOn
                0xa00001b8                PHEATER
 *fill*         0xa00001b9        0x3 
 .scommon       0xa00001bc        0x8 build/PIC32_Standalone/production/iron.o
                0xa00001bc                IronID
                0xa00001c0                IronTicks
 .scommon       0xa00001c4       0x14 build/PIC32_Standalone/production/PID.o
                0xa00001c4                CRTemp
                0xa00001c8                CTTemp
                0xa00001cc                CJTemp
                0xa00001d0                RTAvg
                0xa00001d4                PIDTicks
 .scommon       0xa00001d8        0x4 build/PIC32_Standalone/production/io.o
                0xa00001d8                BuffEmpty
 .scommon       0xa00001dc       0x10 build/PIC32_Standalone/production/menu.o
                0xa00001dc                OLEDTemp
                0xa00001e0                OLEDMsg1
                0xa00001e4                OLEDPower
                0xa00001e8                OLEDMsg2
 .scommon       0xa00001ec        0xc build/PIC32_Standalone/production/PIC32MX534F064H.o
                0xa00001ec                _MRT_LastCoreTimer
                0xa00001f0                mcuADCRES
                0xa00001f4                SPIAuto
                0xa00001f8                _sbss_end = .
                0xa00001f8                . = ALIGN (0x4)

.bss            0xa0000200     0x1448
 *(.dynbss)
 *(COMMON)
 COMMON         0xa0000200       0x5b build/PIC32_Standalone/production/usb/usb_device.o
                0xa0000200                BDT
                0xa0000240                inPipes
                0xa0000250                outPipes
 *fill*         0xa000025b        0x1 
 COMMON         0xa000025c       0x80 build/PIC32_Standalone/production/usb/usb_driver.o
                0xa000025c                USBRxBuffer
                0xa000029c                USBTxBuffer
 COMMON         0xa00002dc       0x11 build/PIC32_Standalone/production/main.o
                0xa00002dc                pars
 *fill*         0xa00002ed        0x3 
 COMMON         0xa00002f0      0xc24 build/PIC32_Standalone/production/isr.o
                0xa00002f0                TIBuff
                0xa00006f0                VBuff
                0xa0000af0                Buff2
                0xa0000cf0                ADCData
                0xa0000d14                Buff1
 COMMON         0xa0000f14       0xa4 build/PIC32_Standalone/production/iron.o
                0xa0000f14                IronPars
 COMMON         0xa0000fb8      0x290 build/PIC32_Standalone/production/PID.o
                0xa0000fb8                PIDVars
 COMMON         0xa0001248      0x400 build/PIC32_Standalone/production/OLED.o
                0xa0001248                OLEDBUFF
                0xa0001648                . = ALIGN ((. != 0x0)?0x4:0x1)
                0xa0001648                . = ALIGN (0x4)
                0xa0001648                _end = .
                0xa0001648                _bss_end = .
                0x00004000                _bmxdudba_address = 0x4000
                0x00004000                _bmxdupba_address = 0x4000

/DISCARD/
 *(.pdr)
 *(.rel.dyn)
 *(.note.GNU-stack)
 *(.note.GNU-stack)
 *(.gnu_debuglink)
 *(.gnu.lto_*)
 *(.discard)

.gptab.sdata
 *(.gptab.data)
 *(.gptab.sdata)

.gptab.sbss
 *(.gptab.bss)
 *(.gptab.sbss)

.mdebug.abi32   0xa0001648        0x0
 *(.mdebug.abi32)
 .mdebug.abi32  0xa0001648        0x0 build/PIC32_Standalone/production/usb/usb_descriptors.o
 .mdebug.abi32  0xa0001648        0x0 build/PIC32_Standalone/production/usb/usb_device.o
 .mdebug.abi32  0xa0001648        0x0 build/PIC32_Standalone/production/usb/usb_driver.o
 .mdebug.abi32  0xa0001648        0x0 build/PIC32_Standalone/production/usb/usb_function_hid.o
 .mdebug.abi32  0xa0001648        0x0 build/PIC32_Standalone/production/usb/usb_hal_pic24.o
 .mdebug.abi32  0xa0001648        0x0 build/PIC32_Standalone/production/main.o
 .mdebug.abi32  0xa0001648        0x0 build/PIC32_Standalone/production/isr.o
 .mdebug.abi32  0xa0001648        0x0 build/PIC32_Standalone/production/iron.o
 .mdebug.abi32  0xa0001648        0x0 build/PIC32_Standalone/production/PID.o
 .mdebug.abi32  0xa0001648        0x0 build/PIC32_Standalone/production/io.o
 .mdebug.abi32  0xa0001648        0x0 build/PIC32_Standalone/production/menu.o
 .mdebug.abi32  0xa0001648        0x0 build/PIC32_Standalone/production/PIC32MX534F064H.o
 .mdebug.abi32  0xa0001648        0x0 build/PIC32_Standalone/production/EEP.o
 .mdebug.abi32  0xa0001648        0x0 build/PIC32_Standalone/production/OLED.o
 .mdebug.abi32  0xa0001648        0x0 build/PIC32_Standalone/production/pars.o
 .mdebug.abi32  0xa0001648        0x0 build/PIC32_Standalone/production/sensorMath.o
 .mdebug.abi32  0xa0001648        0x0 f:/program files/microchip/xc32/v2.50/bin/bin/../../lib/gcc/pic32mx/4.8.3/../../../../pic32mx/lib/size\libmchp_peripheral.a(open_core_timer_lib.o)
 .mdebug.abi32  0xa0001648        0x0 f:/program files/microchip/xc32/v2.50/bin/bin/../../lib/gcc/pic32mx/4.8.3/../../../../pic32mx/lib/size\libmchp_peripheral.a(read_core_timer_lib.o)
 .mdebug.abi32  0xa0001648        0x0 f:/program files/microchip/xc32/v2.50/bin/bin/../../lib/gcc/pic32mx/4.8.3/../../../../pic32mx/lib/size\libmchp_peripheral_32MX534F064H.a(soft_reset_lib.o)
 .mdebug.abi32  0xa0001648        0x0 f:/program files/microchip/xc32/v2.50/bin/bin/../../lib/gcc/pic32mx/4.8.3/../../../../pic32mx/lib/size\libmchp_peripheral_32MX534F064H.a(int_enable_interrupts_lib.o)
 .mdebug.abi32  0xa0001648        0x0 f:/program files/microchip/xc32/v2.50/bin/bin/../../lib/gcc/pic32mx/4.8.3/../../../../pic32mx/lib/size\libmchp_peripheral_32MX534F064H.a(int_disable_interrupts_lib.o)
 .mdebug.abi32  0xa0001648        0x0 f:/program files/microchip/xc32/v2.50/bin/bin/../../lib/gcc/pic32mx/4.8.3/../../../../pic32mx/lib/size\libmchp_peripheral_32MX534F064H.a(int_restore_interrupts_lib.o)
 .mdebug.abi32  0xa0001648        0x0 f:/program files/microchip/xc32/v2.50/bin/bin/../../lib/gcc/pic32mx/4.8.3/../../../../pic32mx/lib/size\libmchp_peripheral_32MX534F064H.a(int_enable_mv_int_lib.o)
 .mdebug.abi32  0xa0001648        0x0 f:/program files/microchip/xc32/v2.50/bin/bin/../../lib/gcc/pic32mx/4.8.3/../../../../pic32mx/lib/size\libmchp_peripheral_32MX534F064H.a(int_tbl_lib.o)
 .mdebug.abi32  0xa0001648        0x0 f:/program files/microchip/xc32/v2.50/bin/bin/../../lib/gcc/pic32mx/4.8.3/../../../../pic32mx/lib/size\libmchp_peripheral_32MX534F064H.a(spi_chn_close_lib.o)
 .mdebug.abi32  0xa0001648        0x0 f:/program files/microchip/xc32/v2.50/bin/bin/../../lib/gcc/pic32mx/4.8.3/../../../../pic32mx/lib/size\libmchp_peripheral_32MX534F064H.a(spi_chn_open_lib.o)
 .mdebug.abi32  0xa0001648        0x0 f:/program files/microchip/xc32/v2.50/bin/bin/../../lib/gcc/pic32mx/4.8.3/../../../../pic32mx/lib/size\libmchp_peripheral_32MX534F064H.a(spi_chn_putc_lib.o)
 .mdebug.abi32  0xa0001648        0x0 f:/program files/microchip/xc32/v2.50/bin/bin/../../lib/gcc/pic32mx/4.8.3/../../../../pic32mx/lib/size\libmchp_peripheral_32MX534F064H.a(spi_chn_puts_lib.o)
 .mdebug.abi32  0xa0001648        0x0 f:/program files/microchip/xc32/v2.50/bin/bin/../../lib/gcc/pic32mx/4.8.3/../../../../pic32mx/lib/size\libmchp_peripheral_32MX534F064H.a(spi_chn_is_busy_lib.o)
 .mdebug.abi32  0xa0001648        0x0 f:/program files/microchip/xc32/v2.50/bin/bin/../../lib/gcc/pic32mx/4.8.3/../../../../pic32mx/lib/size\libmchp_peripheral_32MX534F064H.a(spi_io_tbl_libp.o)
 .mdebug.abi32  0xa0001648        0x0 f:/program files/microchip/xc32/v2.50/bin/bin/../../lib/gcc/pic32mx/4.8.3/../../../../pic32mx/lib/size\libmchp_peripheral_32MX534F064H.a(spi_map_tbl_libp.o)
 .mdebug.abi32  0xa0001648        0x0 f:/program files/microchip/xc32/v2.50/bin/bin/../../lib/gcc/pic32mx/4.8.3/../../../../pic32mx/lib/size\libmchp_peripheral_32MX534F064H.a(dma_chn_abort_txfer_lib.o)
 .mdebug.abi32  0xa0001648        0x0 f:/program files/microchip/xc32/v2.50/bin/bin/../../lib/gcc/pic32mx/4.8.3/../../../../pic32mx/lib/size\libmchp_peripheral_32MX534F064H.a(dma_chn_open_lib.o)
 .mdebug.abi32  0xa0001648        0x0 f:/program files/microchip/xc32/v2.50/bin/bin/../../lib/gcc/pic32mx/4.8.3/../../../../pic32mx/lib/size\libmchp_peripheral_32MX534F064H.a(dma_chn_disable_lib.o)
 .mdebug.abi32  0xa0001648        0x0 f:/program files/microchip/xc32/v2.50/bin/bin/../../lib/gcc/pic32mx/4.8.3/../../../../pic32mx/lib/size\libmchp_peripheral_32MX534F064H.a(dma_chn_enable_lib.o)
 .mdebug.abi32  0xa0001648        0x0 f:/program files/microchip/xc32/v2.50/bin/bin/../../lib/gcc/pic32mx/4.8.3/../../../../pic32mx/lib/size\libmchp_peripheral_32MX534F064H.a(dma_chn_get_dst_pnt_lib.o)
 .mdebug.abi32  0xa0001648        0x0 f:/program files/microchip/xc32/v2.50/bin/bin/../../lib/gcc/pic32mx/4.8.3/../../../../pic32mx/lib/size\libmchp_peripheral_32MX534F064H.a(dma_chn_write_event_control_flags_lib.o)
 .mdebug.abi32  0xa0001648        0x0 f:/program files/microchip/xc32/v2.50/bin/bin/../../lib/gcc/pic32mx/4.8.3/../../../../pic32mx/lib/size\libmchp_peripheral_32MX534F064H.a(dma_chn_set_txfer_lib.o)
 .mdebug.abi32  0xa0001648        0x0 f:/program files/microchip/xc32/v2.50/bin/bin/../../lib/gcc/pic32mx/4.8.3/../../../../pic32mx/lib/size\libmchp_peripheral_32MX534F064H.a(dma_chn_write_ev_enable_flags_lib.o)
 .mdebug.abi32  0xa0001648        0x0 f:/program files/microchip/xc32/v2.50/bin/bin/../../lib/gcc/pic32mx/4.8.3/../../../../pic32mx/lib/size\libmchp_peripheral_32MX534F064H.a(dma_reg_map_tbl_lib.o)
 .mdebug.abi32  0xa0001648        0x0 f:/program files/microchip/xc32/v2.50/bin/bin/../../lib/gcc/pic32mx/4.8.3/../../../../pic32mx/lib/size\libmchp_peripheral_32MX534F064H.a(port_reset_pins_lib.o)
 .mdebug.abi32  0xa0001648        0x0 f:/program files/microchip/xc32/v2.50/bin/bin/../../lib/gcc/pic32mx/4.8.3/../../../../pic32mx/lib/size\libmchp_peripheral_32MX534F064H.a(port_set_pins_digital_in_lib.o)
 .mdebug.abi32  0xa0001648        0x0 f:/program files/microchip/xc32/v2.50/bin/bin/../../lib/gcc/pic32mx/4.8.3/../../../../pic32mx/lib/size\libmchp_peripheral_32MX534F064H.a(port_set_pins_digital_out_lib.o)
 .mdebug.abi32  0xa0001648        0x0 f:/program files/microchip/xc32/v2.50/bin/bin/../../lib/gcc/pic32mx/4.8.3/../../../../pic32mx/lib/size\libmchp_peripheral_32MX534F064H.a(_ports_tbl_libp.o)
 .mdebug.abi32  0xa0001648        0x0 f:/program files/microchip/xc32/v2.50/bin/bin/../../lib/gcc/pic32mx/4.8.3/../../../../pic32mx/lib/size\libmchp_peripheral_32MX534F064H.a(I2CAcknowledgeByte.o)
 .mdebug.abi32  0xa0001648        0x0 f:/program files/microchip/xc32/v2.50/bin/bin/../../lib/gcc/pic32mx/4.8.3/../../../../pic32mx/lib/size\libmchp_peripheral_32MX534F064H.a(I2CByteWasAcknowledged.o)
 .mdebug.abi32  0xa0001648        0x0 f:/program files/microchip/xc32/v2.50/bin/bin/../../lib/gcc/pic32mx/4.8.3/../../../../pic32mx/lib/size\libmchp_peripheral_32MX534F064H.a(I2CEnable.o)
 .mdebug.abi32  0xa0001648        0x0 f:/program files/microchip/xc32/v2.50/bin/bin/../../lib/gcc/pic32mx/4.8.3/../../../../pic32mx/lib/size\libmchp_peripheral_32MX534F064H.a(I2CGetByte.o)
 .mdebug.abi32  0xa0001648        0x0 f:/program files/microchip/xc32/v2.50/bin/bin/../../lib/gcc/pic32mx/4.8.3/../../../../pic32mx/lib/size\libmchp_peripheral_32MX534F064H.a(I2CReceiverEnable.o)
 .mdebug.abi32  0xa0001648        0x0 f:/program files/microchip/xc32/v2.50/bin/bin/../../lib/gcc/pic32mx/4.8.3/../../../../pic32mx/lib/size\libmchp_peripheral_32MX534F064H.a(I2CSendByte.o)
 .mdebug.abi32  0xa0001648        0x0 f:/program files/microchip/xc32/v2.50/bin/bin/../../lib/gcc/pic32mx/4.8.3/../../../../pic32mx/lib/size\libmchp_peripheral_32MX534F064H.a(I2CSetFrequency.o)
 .mdebug.abi32  0xa0001648        0x0 f:/program files/microchip/xc32/v2.50/bin/bin/../../lib/gcc/pic32mx/4.8.3/../../../../pic32mx/lib/size\libmchp_peripheral_32MX534F064H.a(I2CStart.o)
 .mdebug.abi32  0xa0001648        0x0 f:/program files/microchip/xc32/v2.50/bin/bin/../../lib/gcc/pic32mx/4.8.3/../../../../pic32mx/lib/size\libmchp_peripheral_32MX534F064H.a(I2CStop.o)
 .mdebug.abi32  0xa0001648        0x0 f:/program files/microchip/xc32/v2.50/bin/bin/../../lib/gcc/pic32mx/4.8.3/../../../../pic32mx/lib/size\libmchp_peripheral_32MX534F064H.a(I2CPrivate.o)
 .mdebug.abi32  0xa0001648        0x0 f:/program files/microchip/xc32/v2.50/bin/bin/../../lib/gcc/pic32mx/4.8.3/../../../../pic32mx/lib/size\libpic32.a(default-bootstrap-exception-handler.o)
 .mdebug.abi32  0xa0001648        0x0 f:/program files/microchip/xc32/v2.50/bin/bin/../../lib/gcc/pic32mx/4.8.3/../../../../pic32mx/lib/size\libpic32.a(default-on-reset.o)
 .mdebug.abi32  0xa0001648        0x0 f:/program files/microchip/xc32/v2.50/bin/bin/../../lib/gcc/pic32mx/4.8.3/../../../../pic32mx/lib/size\libpic32.a(default-on-bootstrap.o)
 .mdebug.abi32  0xa0001648        0x0 f:/program files/microchip/xc32/v2.50/bin/bin/../../lib/gcc/pic32mx/4.8.3/../../../../pic32mx/lib/size\libpic32.a(default-general-exception-handler.o)
 .mdebug.abi32  0xa0001648        0x0 f:/program files/microchip/xc32/v2.50/bin/bin/../../lib/gcc/pic32mx/4.8.3/../../../../pic32mx/lib/size\libpic32.a(defaultinterrupt.o)

.mdebug.abiN32
 *(.mdebug.abiN32)

.mdebug.abi64
 *(.mdebug.abi64)

.mdebug.abiO64
 *(.mdebug.abiO64)

.mdebug.eabi32
 *(.mdebug.eabi32)

.mdebug.eabi64
 *(.mdebug.eabi64)

.gcc_compiled_long32
 *(.gcc_compiled_long32)

.gcc_compiled_long64
 *(.gcc_compiled_long64)

.stab
 *(.stab)

.stabstr
 *(.stabstr)

.stab.excl
 *(.stab.excl)

.stab.exclstr
 *(.stab.exclstr)

.stab.index
 *(.stab.index)

.stab.indexstr
 *(.stab.indexstr)

.comment        0x00000000       0x90
 *(.comment)
 .comment       0x00000000       0x3c build/PIC32_Standalone/production/usb/usb_descriptors.o
                                 0x3d (size before relaxing)
 .comment       0x00000000       0x3d build/PIC32_Standalone/production/usb/usb_device.o
 .comment       0x00000000       0x3d build/PIC32_Standalone/production/usb/usb_driver.o
 .comment       0x00000000       0x3d build/PIC32_Standalone/production/usb/usb_function_hid.o
 .comment       0x00000000       0x3d build/PIC32_Standalone/production/usb/usb_hal_pic24.o
 .comment       0x00000000       0x3d build/PIC32_Standalone/production/main.o
 .comment       0x00000000       0x3d build/PIC32_Standalone/production/isr.o
 .comment       0x00000000       0x3d build/PIC32_Standalone/production/iron.o
 .comment       0x00000000       0x3d build/PIC32_Standalone/production/PID.o
 .comment       0x00000000       0x3d build/PIC32_Standalone/production/io.o
 .comment       0x00000000       0x3d build/PIC32_Standalone/production/menu.o
 .comment       0x00000000       0x3d build/PIC32_Standalone/production/PIC32MX534F064H.o
 .comment       0x00000000       0x3d build/PIC32_Standalone/production/EEP.o
 .comment       0x00000000       0x3d build/PIC32_Standalone/production/OLED.o
 .comment       0x00000000       0x3d build/PIC32_Standalone/production/pars.o
 .comment       0x00000000       0x3d build/PIC32_Standalone/production/sensorMath.o
 .comment       0x0000003c       0x3c f:/program files/microchip/xc32/v2.50/bin/bin/../../lib/gcc/pic32mx/4.8.3/../../../../pic32mx/lib/size\libmchp_peripheral.a(open_core_timer_lib.o)
                                 0x3d (size before relaxing)
 .comment       0x00000000       0x3d f:/program files/microchip/xc32/v2.50/bin/bin/../../lib/gcc/pic32mx/4.8.3/../../../../pic32mx/lib/size\libmchp_peripheral.a(read_core_timer_lib.o)
 .comment       0x00000000       0x3d f:/program files/microchip/xc32/v2.50/bin/bin/../../lib/gcc/pic32mx/4.8.3/../../../../pic32mx/lib/size\libmchp_peripheral_32MX534F064H.a(soft_reset_lib.o)
 .comment       0x00000000       0x3d f:/program files/microchip/xc32/v2.50/bin/bin/../../lib/gcc/pic32mx/4.8.3/../../../../pic32mx/lib/size\libmchp_peripheral_32MX534F064H.a(int_enable_interrupts_lib.o)
 .comment       0x00000000       0x3d f:/program files/microchip/xc32/v2.50/bin/bin/../../lib/gcc/pic32mx/4.8.3/../../../../pic32mx/lib/size\libmchp_peripheral_32MX534F064H.a(int_disable_interrupts_lib.o)
 .comment       0x00000000       0x3d f:/program files/microchip/xc32/v2.50/bin/bin/../../lib/gcc/pic32mx/4.8.3/../../../../pic32mx/lib/size\libmchp_peripheral_32MX534F064H.a(int_restore_interrupts_lib.o)
 .comment       0x00000000       0x3d f:/program files/microchip/xc32/v2.50/bin/bin/../../lib/gcc/pic32mx/4.8.3/../../../../pic32mx/lib/size\libmchp_peripheral_32MX534F064H.a(int_enable_mv_int_lib.o)
 .comment       0x00000000       0x3d f:/program files/microchip/xc32/v2.50/bin/bin/../../lib/gcc/pic32mx/4.8.3/../../../../pic32mx/lib/size\libmchp_peripheral_32MX534F064H.a(int_tbl_lib.o)
 .comment       0x00000000       0x3d f:/program files/microchip/xc32/v2.50/bin/bin/../../lib/gcc/pic32mx/4.8.3/../../../../pic32mx/lib/size\libmchp_peripheral_32MX534F064H.a(spi_chn_close_lib.o)
 .comment       0x00000000       0x3d f:/program files/microchip/xc32/v2.50/bin/bin/../../lib/gcc/pic32mx/4.8.3/../../../../pic32mx/lib/size\libmchp_peripheral_32MX534F064H.a(spi_chn_open_lib.o)
 .comment       0x00000000       0x3d f:/program files/microchip/xc32/v2.50/bin/bin/../../lib/gcc/pic32mx/4.8.3/../../../../pic32mx/lib/size\libmchp_peripheral_32MX534F064H.a(spi_chn_putc_lib.o)
 .comment       0x00000000       0x3d f:/program files/microchip/xc32/v2.50/bin/bin/../../lib/gcc/pic32mx/4.8.3/../../../../pic32mx/lib/size\libmchp_peripheral_32MX534F064H.a(spi_chn_puts_lib.o)
 .comment       0x00000000       0x3d f:/program files/microchip/xc32/v2.50/bin/bin/../../lib/gcc/pic32mx/4.8.3/../../../../pic32mx/lib/size\libmchp_peripheral_32MX534F064H.a(spi_chn_is_busy_lib.o)
 .comment       0x00000000       0x3d f:/program files/microchip/xc32/v2.50/bin/bin/../../lib/gcc/pic32mx/4.8.3/../../../../pic32mx/lib/size\libmchp_peripheral_32MX534F064H.a(spi_io_tbl_libp.o)
 .comment       0x00000000       0x3d f:/program files/microchip/xc32/v2.50/bin/bin/../../lib/gcc/pic32mx/4.8.3/../../../../pic32mx/lib/size\libmchp_peripheral_32MX534F064H.a(spi_map_tbl_libp.o)
 .comment       0x00000000       0x3d f:/program files/microchip/xc32/v2.50/bin/bin/../../lib/gcc/pic32mx/4.8.3/../../../../pic32mx/lib/size\libmchp_peripheral_32MX534F064H.a(dma_chn_abort_txfer_lib.o)
 .comment       0x00000000       0x3d f:/program files/microchip/xc32/v2.50/bin/bin/../../lib/gcc/pic32mx/4.8.3/../../../../pic32mx/lib/size\libmchp_peripheral_32MX534F064H.a(dma_chn_open_lib.o)
 .comment       0x00000000       0x3d f:/program files/microchip/xc32/v2.50/bin/bin/../../lib/gcc/pic32mx/4.8.3/../../../../pic32mx/lib/size\libmchp_peripheral_32MX534F064H.a(dma_chn_disable_lib.o)
 .comment       0x00000000       0x3d f:/program files/microchip/xc32/v2.50/bin/bin/../../lib/gcc/pic32mx/4.8.3/../../../../pic32mx/lib/size\libmchp_peripheral_32MX534F064H.a(dma_chn_enable_lib.o)
 .comment       0x00000000       0x3d f:/program files/microchip/xc32/v2.50/bin/bin/../../lib/gcc/pic32mx/4.8.3/../../../../pic32mx/lib/size\libmchp_peripheral_32MX534F064H.a(dma_chn_get_dst_pnt_lib.o)
 .comment       0x00000000       0x3d f:/program files/microchip/xc32/v2.50/bin/bin/../../lib/gcc/pic32mx/4.8.3/../../../../pic32mx/lib/size\libmchp_peripheral_32MX534F064H.a(dma_chn_write_event_control_flags_lib.o)
 .comment       0x00000000       0x3d f:/program files/microchip/xc32/v2.50/bin/bin/../../lib/gcc/pic32mx/4.8.3/../../../../pic32mx/lib/size\libmchp_peripheral_32MX534F064H.a(dma_chn_set_txfer_lib.o)
 .comment       0x00000000       0x3d f:/program files/microchip/xc32/v2.50/bin/bin/../../lib/gcc/pic32mx/4.8.3/../../../../pic32mx/lib/size\libmchp_peripheral_32MX534F064H.a(dma_chn_write_ev_enable_flags_lib.o)
 .comment       0x00000000       0x3d f:/program files/microchip/xc32/v2.50/bin/bin/../../lib/gcc/pic32mx/4.8.3/../../../../pic32mx/lib/size\libmchp_peripheral_32MX534F064H.a(dma_reg_map_tbl_lib.o)
 .comment       0x00000000       0x3d f:/program files/microchip/xc32/v2.50/bin/bin/../../lib/gcc/pic32mx/4.8.3/../../../../pic32mx/lib/size\libmchp_peripheral_32MX534F064H.a(port_reset_pins_lib.o)
 .comment       0x00000000       0x3d f:/program files/microchip/xc32/v2.50/bin/bin/../../lib/gcc/pic32mx/4.8.3/../../../../pic32mx/lib/size\libmchp_peripheral_32MX534F064H.a(port_set_pins_digital_in_lib.o)
 .comment       0x00000000       0x3d f:/program files/microchip/xc32/v2.50/bin/bin/../../lib/gcc/pic32mx/4.8.3/../../../../pic32mx/lib/size\libmchp_peripheral_32MX534F064H.a(port_set_pins_digital_out_lib.o)
 .comment       0x00000000       0x3d f:/program files/microchip/xc32/v2.50/bin/bin/../../lib/gcc/pic32mx/4.8.3/../../../../pic32mx/lib/size\libmchp_peripheral_32MX534F064H.a(_ports_tbl_libp.o)
 .comment       0x00000000       0x3d f:/program files/microchip/xc32/v2.50/bin/bin/../../lib/gcc/pic32mx/4.8.3/../../../../pic32mx/lib/size\libmchp_peripheral_32MX534F064H.a(I2CAcknowledgeByte.o)
 .comment       0x00000000       0x3d f:/program files/microchip/xc32/v2.50/bin/bin/../../lib/gcc/pic32mx/4.8.3/../../../../pic32mx/lib/size\libmchp_peripheral_32MX534F064H.a(I2CByteWasAcknowledged.o)
 .comment       0x00000000       0x3d f:/program files/microchip/xc32/v2.50/bin/bin/../../lib/gcc/pic32mx/4.8.3/../../../../pic32mx/lib/size\libmchp_peripheral_32MX534F064H.a(I2CEnable.o)
 .comment       0x00000000       0x3d f:/program files/microchip/xc32/v2.50/bin/bin/../../lib/gcc/pic32mx/4.8.3/../../../../pic32mx/lib/size\libmchp_peripheral_32MX534F064H.a(I2CGetByte.o)
 .comment       0x00000000       0x3d f:/program files/microchip/xc32/v2.50/bin/bin/../../lib/gcc/pic32mx/4.8.3/../../../../pic32mx/lib/size\libmchp_peripheral_32MX534F064H.a(I2CReceiverEnable.o)
 .comment       0x00000000       0x3d f:/program files/microchip/xc32/v2.50/bin/bin/../../lib/gcc/pic32mx/4.8.3/../../../../pic32mx/lib/size\libmchp_peripheral_32MX534F064H.a(I2CSendByte.o)
 .comment       0x00000000       0x3d f:/program files/microchip/xc32/v2.50/bin/bin/../../lib/gcc/pic32mx/4.8.3/../../../../pic32mx/lib/size\libmchp_peripheral_32MX534F064H.a(I2CSetFrequency.o)
 .comment       0x00000000       0x3d f:/program files/microchip/xc32/v2.50/bin/bin/../../lib/gcc/pic32mx/4.8.3/../../../../pic32mx/lib/size\libmchp_peripheral_32MX534F064H.a(I2CStart.o)
 .comment       0x00000000       0x3d f:/program files/microchip/xc32/v2.50/bin/bin/../../lib/gcc/pic32mx/4.8.3/../../../../pic32mx/lib/size\libmchp_peripheral_32MX534F064H.a(I2CStop.o)
 .comment       0x00000000       0x3d f:/program files/microchip/xc32/v2.50/bin/bin/../../lib/gcc/pic32mx/4.8.3/../../../../pic32mx/lib/size\libmchp_peripheral_32MX534F064H.a(I2CPrivate.o)
 .comment       0x00000078       0x18 f:/program files/microchip/xc32/v2.50/bin/bin/../../lib/gcc/pic32mx/4.8.3/../../../../pic32mx/lib/size\libpic32.a(memset.o)
                                 0x19 (size before relaxing)
 .comment       0x00000000       0x3d f:/program files/microchip/xc32/v2.50/bin/bin/../../lib/gcc/pic32mx/4.8.3/../../../../pic32mx/lib/size\libpic32.a(default-bootstrap-exception-handler.o)
 .comment       0x00000000       0x3d f:/program files/microchip/xc32/v2.50/bin/bin/../../lib/gcc/pic32mx/4.8.3/../../../../pic32mx/lib/size\libpic32.a(default-on-reset.o)
 .comment       0x00000000       0x3d f:/program files/microchip/xc32/v2.50/bin/bin/../../lib/gcc/pic32mx/4.8.3/../../../../pic32mx/lib/size\libpic32.a(default-on-bootstrap.o)
 .comment       0x00000000       0x3d f:/program files/microchip/xc32/v2.50/bin/bin/../../lib/gcc/pic32mx/4.8.3/../../../../pic32mx/lib/size\libpic32.a(default-general-exception-handler.o)
 .comment       0x00000000       0x3d f:/program files/microchip/xc32/v2.50/bin/bin/../../lib/gcc/pic32mx/4.8.3/../../../../pic32mx/lib/size\libpic32.a(defaultinterrupt.o)

.debug
 *(.debug)

.line
 *(.line)

.debug_srcinfo
 *(.debug_srcinfo)

.debug_sfnames
 *(.debug_sfnames)

.debug_aranges  0x00000000      0x518
 *(.debug_aranges)
 .debug_aranges
                0x00000000       0x20 f:/program files/microchip/xc32/v2.50/bin/bin/../../lib/gcc/pic32mx/4.8.3/../../../../pic32mx/lib/size\libmchp_peripheral.a(open_core_timer_lib.o)
 .debug_aranges
                0x00000020       0x20 f:/program files/microchip/xc32/v2.50/bin/bin/../../lib/gcc/pic32mx/4.8.3/../../../../pic32mx/lib/size\libmchp_peripheral.a(read_core_timer_lib.o)
 .debug_aranges
                0x00000040       0x20 f:/program files/microchip/xc32/v2.50/bin/bin/../../lib/gcc/pic32mx/4.8.3/../../../../pic32mx/lib/size\libmchp_peripheral_32MX534F064H.a(soft_reset_lib.o)
 .debug_aranges
                0x00000060       0x20 f:/program files/microchip/xc32/v2.50/bin/bin/../../lib/gcc/pic32mx/4.8.3/../../../../pic32mx/lib/size\libmchp_peripheral_32MX534F064H.a(int_enable_interrupts_lib.o)
 .debug_aranges
                0x00000080       0x20 f:/program files/microchip/xc32/v2.50/bin/bin/../../lib/gcc/pic32mx/4.8.3/../../../../pic32mx/lib/size\libmchp_peripheral_32MX534F064H.a(int_disable_interrupts_lib.o)
 .debug_aranges
                0x000000a0       0x20 f:/program files/microchip/xc32/v2.50/bin/bin/../../lib/gcc/pic32mx/4.8.3/../../../../pic32mx/lib/size\libmchp_peripheral_32MX534F064H.a(int_restore_interrupts_lib.o)
 .debug_aranges
                0x000000c0       0x20 f:/program files/microchip/xc32/v2.50/bin/bin/../../lib/gcc/pic32mx/4.8.3/../../../../pic32mx/lib/size\libmchp_peripheral_32MX534F064H.a(int_enable_mv_int_lib.o)
 .debug_aranges
                0x000000e0       0x60 f:/program files/microchip/xc32/v2.50/bin/bin/../../lib/gcc/pic32mx/4.8.3/../../../../pic32mx/lib/size\libmchp_peripheral_32MX534F064H.a(int_tbl_lib.o)
 .debug_aranges
                0x00000140       0x20 f:/program files/microchip/xc32/v2.50/bin/bin/../../lib/gcc/pic32mx/4.8.3/../../../../pic32mx/lib/size\libmchp_peripheral_32MX534F064H.a(spi_chn_close_lib.o)
 .debug_aranges
                0x00000160       0x20 f:/program files/microchip/xc32/v2.50/bin/bin/../../lib/gcc/pic32mx/4.8.3/../../../../pic32mx/lib/size\libmchp_peripheral_32MX534F064H.a(spi_chn_open_lib.o)
 .debug_aranges
                0x00000180       0x30 f:/program files/microchip/xc32/v2.50/bin/bin/../../lib/gcc/pic32mx/4.8.3/../../../../pic32mx/lib/size\libmchp_peripheral_32MX534F064H.a(spi_chn_putc_lib.o)
 .debug_aranges
                0x000001b0       0x20 f:/program files/microchip/xc32/v2.50/bin/bin/../../lib/gcc/pic32mx/4.8.3/../../../../pic32mx/lib/size\libmchp_peripheral_32MX534F064H.a(spi_chn_puts_lib.o)
 .debug_aranges
                0x000001d0       0x28 f:/program files/microchip/xc32/v2.50/bin/bin/../../lib/gcc/pic32mx/4.8.3/../../../../pic32mx/lib/size\libmchp_peripheral_32MX534F064H.a(spi_chn_is_busy_lib.o)
 .debug_aranges
                0x000001f8       0x20 f:/program files/microchip/xc32/v2.50/bin/bin/../../lib/gcc/pic32mx/4.8.3/../../../../pic32mx/lib/size\libmchp_peripheral_32MX534F064H.a(dma_chn_abort_txfer_lib.o)
 .debug_aranges
                0x00000218       0x20 f:/program files/microchip/xc32/v2.50/bin/bin/../../lib/gcc/pic32mx/4.8.3/../../../../pic32mx/lib/size\libmchp_peripheral_32MX534F064H.a(dma_chn_open_lib.o)
 .debug_aranges
                0x00000238       0x20 f:/program files/microchip/xc32/v2.50/bin/bin/../../lib/gcc/pic32mx/4.8.3/../../../../pic32mx/lib/size\libmchp_peripheral_32MX534F064H.a(dma_chn_disable_lib.o)
 .debug_aranges
                0x00000258       0x20 f:/program files/microchip/xc32/v2.50/bin/bin/../../lib/gcc/pic32mx/4.8.3/../../../../pic32mx/lib/size\libmchp_peripheral_32MX534F064H.a(dma_chn_enable_lib.o)
 .debug_aranges
                0x00000278       0x20 f:/program files/microchip/xc32/v2.50/bin/bin/../../lib/gcc/pic32mx/4.8.3/../../../../pic32mx/lib/size\libmchp_peripheral_32MX534F064H.a(dma_chn_get_dst_pnt_lib.o)
 .debug_aranges
                0x00000298       0x20 f:/program files/microchip/xc32/v2.50/bin/bin/../../lib/gcc/pic32mx/4.8.3/../../../../pic32mx/lib/size\libmchp_peripheral_32MX534F064H.a(dma_chn_write_event_control_flags_lib.o)
 .debug_aranges
                0x000002b8       0x20 f:/program files/microchip/xc32/v2.50/bin/bin/../../lib/gcc/pic32mx/4.8.3/../../../../pic32mx/lib/size\libmchp_peripheral_32MX534F064H.a(dma_chn_set_txfer_lib.o)
 .debug_aranges
                0x000002d8       0x20 f:/program files/microchip/xc32/v2.50/bin/bin/../../lib/gcc/pic32mx/4.8.3/../../../../pic32mx/lib/size\libmchp_peripheral_32MX534F064H.a(dma_chn_write_ev_enable_flags_lib.o)
 .debug_aranges
                0x000002f8       0x20 f:/program files/microchip/xc32/v2.50/bin/bin/../../lib/gcc/pic32mx/4.8.3/../../../../pic32mx/lib/size\libmchp_peripheral_32MX534F064H.a(port_reset_pins_lib.o)
 .debug_aranges
                0x00000318       0x20 f:/program files/microchip/xc32/v2.50/bin/bin/../../lib/gcc/pic32mx/4.8.3/../../../../pic32mx/lib/size\libmchp_peripheral_32MX534F064H.a(port_set_pins_digital_in_lib.o)
 .debug_aranges
                0x00000338       0x20 f:/program files/microchip/xc32/v2.50/bin/bin/../../lib/gcc/pic32mx/4.8.3/../../../../pic32mx/lib/size\libmchp_peripheral_32MX534F064H.a(port_set_pins_digital_out_lib.o)
 .debug_aranges
                0x00000358       0x20 f:/program files/microchip/xc32/v2.50/bin/bin/../../lib/gcc/pic32mx/4.8.3/../../../../pic32mx/lib/size\libmchp_peripheral_32MX534F064H.a(I2CAcknowledgeByte.o)
 .debug_aranges
                0x00000378       0x20 f:/program files/microchip/xc32/v2.50/bin/bin/../../lib/gcc/pic32mx/4.8.3/../../../../pic32mx/lib/size\libmchp_peripheral_32MX534F064H.a(I2CByteWasAcknowledged.o)
 .debug_aranges
                0x00000398       0x20 f:/program files/microchip/xc32/v2.50/bin/bin/../../lib/gcc/pic32mx/4.8.3/../../../../pic32mx/lib/size\libmchp_peripheral_32MX534F064H.a(I2CEnable.o)
 .debug_aranges
                0x000003b8       0x20 f:/program files/microchip/xc32/v2.50/bin/bin/../../lib/gcc/pic32mx/4.8.3/../../../../pic32mx/lib/size\libmchp_peripheral_32MX534F064H.a(I2CGetByte.o)
 .debug_aranges
                0x000003d8       0x20 f:/program files/microchip/xc32/v2.50/bin/bin/../../lib/gcc/pic32mx/4.8.3/../../../../pic32mx/lib/size\libmchp_peripheral_32MX534F064H.a(I2CReceiverEnable.o)
 .debug_aranges
                0x000003f8       0x20 f:/program files/microchip/xc32/v2.50/bin/bin/../../lib/gcc/pic32mx/4.8.3/../../../../pic32mx/lib/size\libmchp_peripheral_32MX534F064H.a(I2CSendByte.o)
 .debug_aranges
                0x00000418       0x20 f:/program files/microchip/xc32/v2.50/bin/bin/../../lib/gcc/pic32mx/4.8.3/../../../../pic32mx/lib/size\libmchp_peripheral_32MX534F064H.a(I2CSetFrequency.o)
 .debug_aranges
                0x00000438       0x20 f:/program files/microchip/xc32/v2.50/bin/bin/../../lib/gcc/pic32mx/4.8.3/../../../../pic32mx/lib/size\libmchp_peripheral_32MX534F064H.a(I2CStart.o)
 .debug_aranges
                0x00000458       0x20 f:/program files/microchip/xc32/v2.50/bin/bin/../../lib/gcc/pic32mx/4.8.3/../../../../pic32mx/lib/size\libmchp_peripheral_32MX534F064H.a(I2CStop.o)
 .debug_aranges
                0x00000478       0x20 f:/program files/microchip/xc32/v2.50/bin/bin/../../lib/gcc/pic32mx/4.8.3/../../../../pic32mx/lib/size\libpic32.a(default-bootstrap-exception-handler.o)
 .debug_aranges
                0x00000498       0x20 f:/program files/microchip/xc32/v2.50/bin/bin/../../lib/gcc/pic32mx/4.8.3/../../../../pic32mx/lib/size\libpic32.a(default-on-reset.o)
 .debug_aranges
                0x000004b8       0x20 f:/program files/microchip/xc32/v2.50/bin/bin/../../lib/gcc/pic32mx/4.8.3/../../../../pic32mx/lib/size\libpic32.a(default-on-bootstrap.o)
 .debug_aranges
                0x000004d8       0x20 f:/program files/microchip/xc32/v2.50/bin/bin/../../lib/gcc/pic32mx/4.8.3/../../../../pic32mx/lib/size\libpic32.a(default-general-exception-handler.o)
 .debug_aranges
                0x000004f8       0x20 f:/program files/microchip/xc32/v2.50/bin/bin/../../lib/gcc/pic32mx/4.8.3/../../../../pic32mx/lib/size\libpic32.a(defaultinterrupt.o)

.debug_pubnames
 *(.debug_pubnames)

.debug_info     0x00000000     0x1bd1
 *(.debug_info .gnu.linkonce.wi.*)
 .debug_info    0x00000000       0xa8 f:/program files/microchip/xc32/v2.50/bin/bin/../../lib/gcc/pic32mx/4.8.3/../../../../pic32mx/lib/size\libmchp_peripheral.a(open_core_timer_lib.o)
 .debug_info    0x000000a8       0xa8 f:/program files/microchip/xc32/v2.50/bin/bin/../../lib/gcc/pic32mx/4.8.3/../../../../pic32mx/lib/size\libmchp_peripheral.a(read_core_timer_lib.o)
 .debug_info    0x00000150       0xb0 f:/program files/microchip/xc32/v2.50/bin/bin/../../lib/gcc/pic32mx/4.8.3/../../../../pic32mx/lib/size\libmchp_peripheral_32MX534F064H.a(soft_reset_lib.o)
 .debug_info    0x00000200       0xb2 f:/program files/microchip/xc32/v2.50/bin/bin/../../lib/gcc/pic32mx/4.8.3/../../../../pic32mx/lib/size\libmchp_peripheral_32MX534F064H.a(int_enable_interrupts_lib.o)
 .debug_info    0x000002b2       0xb4 f:/program files/microchip/xc32/v2.50/bin/bin/../../lib/gcc/pic32mx/4.8.3/../../../../pic32mx/lib/size\libmchp_peripheral_32MX534F064H.a(int_disable_interrupts_lib.o)
 .debug_info    0x00000366       0xb4 f:/program files/microchip/xc32/v2.50/bin/bin/../../lib/gcc/pic32mx/4.8.3/../../../../pic32mx/lib/size\libmchp_peripheral_32MX534F064H.a(int_restore_interrupts_lib.o)
 .debug_info    0x0000041a       0xba f:/program files/microchip/xc32/v2.50/bin/bin/../../lib/gcc/pic32mx/4.8.3/../../../../pic32mx/lib/size\libmchp_peripheral_32MX534F064H.a(int_enable_mv_int_lib.o)
 .debug_info    0x000004d4      0x19c f:/program files/microchip/xc32/v2.50/bin/bin/../../lib/gcc/pic32mx/4.8.3/../../../../pic32mx/lib/size\libmchp_peripheral_32MX534F064H.a(int_tbl_lib.o)
 .debug_info    0x00000670       0xa2 f:/program files/microchip/xc32/v2.50/bin/bin/../../lib/gcc/pic32mx/4.8.3/../../../../pic32mx/lib/size\libmchp_peripheral_32MX534F064H.a(spi_chn_close_lib.o)
 .debug_info    0x00000712       0xa0 f:/program files/microchip/xc32/v2.50/bin/bin/../../lib/gcc/pic32mx/4.8.3/../../../../pic32mx/lib/size\libmchp_peripheral_32MX534F064H.a(spi_chn_open_lib.o)
 .debug_info    0x000007b2       0xeb f:/program files/microchip/xc32/v2.50/bin/bin/../../lib/gcc/pic32mx/4.8.3/../../../../pic32mx/lib/size\libmchp_peripheral_32MX534F064H.a(spi_chn_putc_lib.o)
 .debug_info    0x0000089d       0xb3 f:/program files/microchip/xc32/v2.50/bin/bin/../../lib/gcc/pic32mx/4.8.3/../../../../pic32mx/lib/size\libmchp_peripheral_32MX534F064H.a(spi_chn_puts_lib.o)
 .debug_info    0x00000950       0xc4 f:/program files/microchip/xc32/v2.50/bin/bin/../../lib/gcc/pic32mx/4.8.3/../../../../pic32mx/lib/size\libmchp_peripheral_32MX534F064H.a(spi_chn_is_busy_lib.o)
 .debug_info    0x00000a14       0xad f:/program files/microchip/xc32/v2.50/bin/bin/../../lib/gcc/pic32mx/4.8.3/../../../../pic32mx/lib/size\libmchp_peripheral_32MX534F064H.a(dma_chn_abort_txfer_lib.o)
 .debug_info    0x00000ac1       0xb3 f:/program files/microchip/xc32/v2.50/bin/bin/../../lib/gcc/pic32mx/4.8.3/../../../../pic32mx/lib/size\libmchp_peripheral_32MX534F064H.a(dma_chn_open_lib.o)
 .debug_info    0x00000b74       0xa6 f:/program files/microchip/xc32/v2.50/bin/bin/../../lib/gcc/pic32mx/4.8.3/../../../../pic32mx/lib/size\libmchp_peripheral_32MX534F064H.a(dma_chn_disable_lib.o)
 .debug_info    0x00000c1a       0xa4 f:/program files/microchip/xc32/v2.50/bin/bin/../../lib/gcc/pic32mx/4.8.3/../../../../pic32mx/lib/size\libmchp_peripheral_32MX534F064H.a(dma_chn_enable_lib.o)
 .debug_info    0x00000cbe       0xac f:/program files/microchip/xc32/v2.50/bin/bin/../../lib/gcc/pic32mx/4.8.3/../../../../pic32mx/lib/size\libmchp_peripheral_32MX534F064H.a(dma_chn_get_dst_pnt_lib.o)
 .debug_info    0x00000d6a       0xc7 f:/program files/microchip/xc32/v2.50/bin/bin/../../lib/gcc/pic32mx/4.8.3/../../../../pic32mx/lib/size\libmchp_peripheral_32MX534F064H.a(dma_chn_write_event_control_flags_lib.o)
 .debug_info    0x00000e31       0xba f:/program files/microchip/xc32/v2.50/bin/bin/../../lib/gcc/pic32mx/4.8.3/../../../../pic32mx/lib/size\libmchp_peripheral_32MX534F064H.a(dma_chn_set_txfer_lib.o)
 .debug_info    0x00000eeb       0xbf f:/program files/microchip/xc32/v2.50/bin/bin/../../lib/gcc/pic32mx/4.8.3/../../../../pic32mx/lib/size\libmchp_peripheral_32MX534F064H.a(dma_chn_write_ev_enable_flags_lib.o)
 .debug_info    0x00000faa       0xa8 f:/program files/microchip/xc32/v2.50/bin/bin/../../lib/gcc/pic32mx/4.8.3/../../../../pic32mx/lib/size\libmchp_peripheral_32MX534F064H.a(port_reset_pins_lib.o)
 .debug_info    0x00001052       0xb8 f:/program files/microchip/xc32/v2.50/bin/bin/../../lib/gcc/pic32mx/4.8.3/../../../../pic32mx/lib/size\libmchp_peripheral_32MX534F064H.a(port_set_pins_digital_in_lib.o)
 .debug_info    0x0000110a       0xba f:/program files/microchip/xc32/v2.50/bin/bin/../../lib/gcc/pic32mx/4.8.3/../../../../pic32mx/lib/size\libmchp_peripheral_32MX534F064H.a(port_set_pins_digital_out_lib.o)
 .debug_info    0x000011c4       0xaa f:/program files/microchip/xc32/v2.50/bin/bin/../../lib/gcc/pic32mx/4.8.3/../../../../pic32mx/lib/size\libmchp_peripheral_32MX534F064H.a(I2CAcknowledgeByte.o)
 .debug_info    0x0000126e       0xb2 f:/program files/microchip/xc32/v2.50/bin/bin/../../lib/gcc/pic32mx/4.8.3/../../../../pic32mx/lib/size\libmchp_peripheral_32MX534F064H.a(I2CByteWasAcknowledged.o)
 .debug_info    0x00001320       0x98 f:/program files/microchip/xc32/v2.50/bin/bin/../../lib/gcc/pic32mx/4.8.3/../../../../pic32mx/lib/size\libmchp_peripheral_32MX534F064H.a(I2CEnable.o)
 .debug_info    0x000013b8       0x9a f:/program files/microchip/xc32/v2.50/bin/bin/../../lib/gcc/pic32mx/4.8.3/../../../../pic32mx/lib/size\libmchp_peripheral_32MX534F064H.a(I2CGetByte.o)
 .debug_info    0x00001452       0xa8 f:/program files/microchip/xc32/v2.50/bin/bin/../../lib/gcc/pic32mx/4.8.3/../../../../pic32mx/lib/size\libmchp_peripheral_32MX534F064H.a(I2CReceiverEnable.o)
 .debug_info    0x000014fa       0x9c f:/program files/microchip/xc32/v2.50/bin/bin/../../lib/gcc/pic32mx/4.8.3/../../../../pic32mx/lib/size\libmchp_peripheral_32MX534F064H.a(I2CSendByte.o)
 .debug_info    0x00001596       0xa4 f:/program files/microchip/xc32/v2.50/bin/bin/../../lib/gcc/pic32mx/4.8.3/../../../../pic32mx/lib/size\libmchp_peripheral_32MX534F064H.a(I2CSetFrequency.o)
 .debug_info    0x0000163a       0x96 f:/program files/microchip/xc32/v2.50/bin/bin/../../lib/gcc/pic32mx/4.8.3/../../../../pic32mx/lib/size\libmchp_peripheral_32MX534F064H.a(I2CStart.o)
 .debug_info    0x000016d0       0x94 f:/program files/microchip/xc32/v2.50/bin/bin/../../lib/gcc/pic32mx/4.8.3/../../../../pic32mx/lib/size\libmchp_peripheral_32MX534F064H.a(I2CStop.o)
 .debug_info    0x00001764       0xf4 f:/program files/microchip/xc32/v2.50/bin/bin/../../lib/gcc/pic32mx/4.8.3/../../../../pic32mx/lib/size\libpic32.a(default-bootstrap-exception-handler.o)
 .debug_info    0x00001858       0xcd f:/program files/microchip/xc32/v2.50/bin/bin/../../lib/gcc/pic32mx/4.8.3/../../../../pic32mx/lib/size\libpic32.a(default-on-reset.o)
 .debug_info    0x00001925       0xd5 f:/program files/microchip/xc32/v2.50/bin/bin/../../lib/gcc/pic32mx/4.8.3/../../../../pic32mx/lib/size\libpic32.a(default-on-bootstrap.o)
 .debug_info    0x000019fa       0xf0 f:/program files/microchip/xc32/v2.50/bin/bin/../../lib/gcc/pic32mx/4.8.3/../../../../pic32mx/lib/size\libpic32.a(default-general-exception-handler.o)
 .debug_info    0x00001aea       0xe7 f:/program files/microchip/xc32/v2.50/bin/bin/../../lib/gcc/pic32mx/4.8.3/../../../../pic32mx/lib/size\libpic32.a(defaultinterrupt.o)

.debug_abbrev   0x00000000      0x63b
 *(.debug_abbrev)
 .debug_abbrev  0x00000000       0x28 f:/program files/microchip/xc32/v2.50/bin/bin/../../lib/gcc/pic32mx/4.8.3/../../../../pic32mx/lib/size\libmchp_peripheral.a(open_core_timer_lib.o)
 .debug_abbrev  0x00000028       0x28 f:/program files/microchip/xc32/v2.50/bin/bin/../../lib/gcc/pic32mx/4.8.3/../../../../pic32mx/lib/size\libmchp_peripheral.a(read_core_timer_lib.o)
 .debug_abbrev  0x00000050       0x37 f:/program files/microchip/xc32/v2.50/bin/bin/../../lib/gcc/pic32mx/4.8.3/../../../../pic32mx/lib/size\libmchp_peripheral_32MX534F064H.a(soft_reset_lib.o)
 .debug_abbrev  0x00000087       0x28 f:/program files/microchip/xc32/v2.50/bin/bin/../../lib/gcc/pic32mx/4.8.3/../../../../pic32mx/lib/size\libmchp_peripheral_32MX534F064H.a(int_enable_interrupts_lib.o)
 .debug_abbrev  0x000000af       0x28 f:/program files/microchip/xc32/v2.50/bin/bin/../../lib/gcc/pic32mx/4.8.3/../../../../pic32mx/lib/size\libmchp_peripheral_32MX534F064H.a(int_disable_interrupts_lib.o)
 .debug_abbrev  0x000000d7       0x28 f:/program files/microchip/xc32/v2.50/bin/bin/../../lib/gcc/pic32mx/4.8.3/../../../../pic32mx/lib/size\libmchp_peripheral_32MX534F064H.a(int_restore_interrupts_lib.o)
 .debug_abbrev  0x000000ff       0x28 f:/program files/microchip/xc32/v2.50/bin/bin/../../lib/gcc/pic32mx/4.8.3/../../../../pic32mx/lib/size\libmchp_peripheral_32MX534F064H.a(int_enable_mv_int_lib.o)
 .debug_abbrev  0x00000127       0x28 f:/program files/microchip/xc32/v2.50/bin/bin/../../lib/gcc/pic32mx/4.8.3/../../../../pic32mx/lib/size\libmchp_peripheral_32MX534F064H.a(int_tbl_lib.o)
 .debug_abbrev  0x0000014f       0x28 f:/program files/microchip/xc32/v2.50/bin/bin/../../lib/gcc/pic32mx/4.8.3/../../../../pic32mx/lib/size\libmchp_peripheral_32MX534F064H.a(spi_chn_close_lib.o)
 .debug_abbrev  0x00000177       0x28 f:/program files/microchip/xc32/v2.50/bin/bin/../../lib/gcc/pic32mx/4.8.3/../../../../pic32mx/lib/size\libmchp_peripheral_32MX534F064H.a(spi_chn_open_lib.o)
 .debug_abbrev  0x0000019f       0x37 f:/program files/microchip/xc32/v2.50/bin/bin/../../lib/gcc/pic32mx/4.8.3/../../../../pic32mx/lib/size\libmchp_peripheral_32MX534F064H.a(spi_chn_putc_lib.o)
 .debug_abbrev  0x000001d6       0x37 f:/program files/microchip/xc32/v2.50/bin/bin/../../lib/gcc/pic32mx/4.8.3/../../../../pic32mx/lib/size\libmchp_peripheral_32MX534F064H.a(spi_chn_puts_lib.o)
 .debug_abbrev  0x0000020d       0x28 f:/program files/microchip/xc32/v2.50/bin/bin/../../lib/gcc/pic32mx/4.8.3/../../../../pic32mx/lib/size\libmchp_peripheral_32MX534F064H.a(spi_chn_is_busy_lib.o)
 .debug_abbrev  0x00000235       0x28 f:/program files/microchip/xc32/v2.50/bin/bin/../../lib/gcc/pic32mx/4.8.3/../../../../pic32mx/lib/size\libmchp_peripheral_32MX534F064H.a(dma_chn_abort_txfer_lib.o)
 .debug_abbrev  0x0000025d       0x37 f:/program files/microchip/xc32/v2.50/bin/bin/../../lib/gcc/pic32mx/4.8.3/../../../../pic32mx/lib/size\libmchp_peripheral_32MX534F064H.a(dma_chn_open_lib.o)
 .debug_abbrev  0x00000294       0x28 f:/program files/microchip/xc32/v2.50/bin/bin/../../lib/gcc/pic32mx/4.8.3/../../../../pic32mx/lib/size\libmchp_peripheral_32MX534F064H.a(dma_chn_disable_lib.o)
 .debug_abbrev  0x000002bc       0x28 f:/program files/microchip/xc32/v2.50/bin/bin/../../lib/gcc/pic32mx/4.8.3/../../../../pic32mx/lib/size\libmchp_peripheral_32MX534F064H.a(dma_chn_enable_lib.o)
 .debug_abbrev  0x000002e4       0x28 f:/program files/microchip/xc32/v2.50/bin/bin/../../lib/gcc/pic32mx/4.8.3/../../../../pic32mx/lib/size\libmchp_peripheral_32MX534F064H.a(dma_chn_get_dst_pnt_lib.o)
 .debug_abbrev  0x0000030c       0x28 f:/program files/microchip/xc32/v2.50/bin/bin/../../lib/gcc/pic32mx/4.8.3/../../../../pic32mx/lib/size\libmchp_peripheral_32MX534F064H.a(dma_chn_write_event_control_flags_lib.o)
 .debug_abbrev  0x00000334       0x37 f:/program files/microchip/xc32/v2.50/bin/bin/../../lib/gcc/pic32mx/4.8.3/../../../../pic32mx/lib/size\libmchp_peripheral_32MX534F064H.a(dma_chn_set_txfer_lib.o)
 .debug_abbrev  0x0000036b       0x28 f:/program files/microchip/xc32/v2.50/bin/bin/../../lib/gcc/pic32mx/4.8.3/../../../../pic32mx/lib/size\libmchp_peripheral_32MX534F064H.a(dma_chn_write_ev_enable_flags_lib.o)
 .debug_abbrev  0x00000393       0x28 f:/program files/microchip/xc32/v2.50/bin/bin/../../lib/gcc/pic32mx/4.8.3/../../../../pic32mx/lib/size\libmchp_peripheral_32MX534F064H.a(port_reset_pins_lib.o)
 .debug_abbrev  0x000003bb       0x28 f:/program files/microchip/xc32/v2.50/bin/bin/../../lib/gcc/pic32mx/4.8.3/../../../../pic32mx/lib/size\libmchp_peripheral_32MX534F064H.a(port_set_pins_digital_in_lib.o)
 .debug_abbrev  0x000003e3       0x28 f:/program files/microchip/xc32/v2.50/bin/bin/../../lib/gcc/pic32mx/4.8.3/../../../../pic32mx/lib/size\libmchp_peripheral_32MX534F064H.a(port_set_pins_digital_out_lib.o)
 .debug_abbrev  0x0000040b       0x28 f:/program files/microchip/xc32/v2.50/bin/bin/../../lib/gcc/pic32mx/4.8.3/../../../../pic32mx/lib/size\libmchp_peripheral_32MX534F064H.a(I2CAcknowledgeByte.o)
 .debug_abbrev  0x00000433       0x28 f:/program files/microchip/xc32/v2.50/bin/bin/../../lib/gcc/pic32mx/4.8.3/../../../../pic32mx/lib/size\libmchp_peripheral_32MX534F064H.a(I2CByteWasAcknowledged.o)
 .debug_abbrev  0x0000045b       0x28 f:/program files/microchip/xc32/v2.50/bin/bin/../../lib/gcc/pic32mx/4.8.3/../../../../pic32mx/lib/size\libmchp_peripheral_32MX534F064H.a(I2CEnable.o)
 .debug_abbrev  0x00000483       0x28 f:/program files/microchip/xc32/v2.50/bin/bin/../../lib/gcc/pic32mx/4.8.3/../../../../pic32mx/lib/size\libmchp_peripheral_32MX534F064H.a(I2CGetByte.o)
 .debug_abbrev  0x000004ab       0x28 f:/program files/microchip/xc32/v2.50/bin/bin/../../lib/gcc/pic32mx/4.8.3/../../../../pic32mx/lib/size\libmchp_peripheral_32MX534F064H.a(I2CReceiverEnable.o)
 .debug_abbrev  0x000004d3       0x28 f:/program files/microchip/xc32/v2.50/bin/bin/../../lib/gcc/pic32mx/4.8.3/../../../../pic32mx/lib/size\libmchp_peripheral_32MX534F064H.a(I2CSendByte.o)
 .debug_abbrev  0x000004fb       0x28 f:/program files/microchip/xc32/v2.50/bin/bin/../../lib/gcc/pic32mx/4.8.3/../../../../pic32mx/lib/size\libmchp_peripheral_32MX534F064H.a(I2CSetFrequency.o)
 .debug_abbrev  0x00000523       0x28 f:/program files/microchip/xc32/v2.50/bin/bin/../../lib/gcc/pic32mx/4.8.3/../../../../pic32mx/lib/size\libmchp_peripheral_32MX534F064H.a(I2CStart.o)
 .debug_abbrev  0x0000054b       0x28 f:/program files/microchip/xc32/v2.50/bin/bin/../../lib/gcc/pic32mx/4.8.3/../../../../pic32mx/lib/size\libmchp_peripheral_32MX534F064H.a(I2CStop.o)
 .debug_abbrev  0x00000573       0x28 f:/program files/microchip/xc32/v2.50/bin/bin/../../lib/gcc/pic32mx/4.8.3/../../../../pic32mx/lib/size\libpic32.a(default-bootstrap-exception-handler.o)
 .debug_abbrev  0x0000059b       0x28 f:/program files/microchip/xc32/v2.50/bin/bin/../../lib/gcc/pic32mx/4.8.3/../../../../pic32mx/lib/size\libpic32.a(default-on-reset.o)
 .debug_abbrev  0x000005c3       0x28 f:/program files/microchip/xc32/v2.50/bin/bin/../../lib/gcc/pic32mx/4.8.3/../../../../pic32mx/lib/size\libpic32.a(default-on-bootstrap.o)
 .debug_abbrev  0x000005eb       0x28 f:/program files/microchip/xc32/v2.50/bin/bin/../../lib/gcc/pic32mx/4.8.3/../../../../pic32mx/lib/size\libpic32.a(default-general-exception-handler.o)
 .debug_abbrev  0x00000613       0x28 f:/program files/microchip/xc32/v2.50/bin/bin/../../lib/gcc/pic32mx/4.8.3/../../../../pic32mx/lib/size\libpic32.a(defaultinterrupt.o)

.debug_line     0x00000000     0x113c
 *(.debug_line)
 .debug_line    0x00000000       0x6b f:/program files/microchip/xc32/v2.50/bin/bin/../../lib/gcc/pic32mx/4.8.3/../../../../pic32mx/lib/size\libmchp_peripheral.a(open_core_timer_lib.o)
 .debug_line    0x0000006b       0x6b f:/program files/microchip/xc32/v2.50/bin/bin/../../lib/gcc/pic32mx/4.8.3/../../../../pic32mx/lib/size\libmchp_peripheral.a(read_core_timer_lib.o)
 .debug_line    0x000000d6       0xab f:/program files/microchip/xc32/v2.50/bin/bin/../../lib/gcc/pic32mx/4.8.3/../../../../pic32mx/lib/size\libmchp_peripheral_32MX534F064H.a(soft_reset_lib.o)
 .debug_line    0x00000181       0x6f f:/program files/microchip/xc32/v2.50/bin/bin/../../lib/gcc/pic32mx/4.8.3/../../../../pic32mx/lib/size\libmchp_peripheral_32MX534F064H.a(int_enable_interrupts_lib.o)
 .debug_line    0x000001f0       0x70 f:/program files/microchip/xc32/v2.50/bin/bin/../../lib/gcc/pic32mx/4.8.3/../../../../pic32mx/lib/size\libmchp_peripheral_32MX534F064H.a(int_disable_interrupts_lib.o)
 .debug_line    0x00000260       0x70 f:/program files/microchip/xc32/v2.50/bin/bin/../../lib/gcc/pic32mx/4.8.3/../../../../pic32mx/lib/size\libmchp_peripheral_32MX534F064H.a(int_restore_interrupts_lib.o)
 .debug_line    0x000002d0       0x6b f:/program files/microchip/xc32/v2.50/bin/bin/../../lib/gcc/pic32mx/4.8.3/../../../../pic32mx/lib/size\libmchp_peripheral_32MX534F064H.a(int_enable_mv_int_lib.o)
 .debug_line    0x0000033b       0x61 f:/program files/microchip/xc32/v2.50/bin/bin/../../lib/gcc/pic32mx/4.8.3/../../../../pic32mx/lib/size\libmchp_peripheral_32MX534F064H.a(int_tbl_lib.o)
 .debug_line    0x0000039c       0x67 f:/program files/microchip/xc32/v2.50/bin/bin/../../lib/gcc/pic32mx/4.8.3/../../../../pic32mx/lib/size\libmchp_peripheral_32MX534F064H.a(spi_chn_close_lib.o)
 .debug_line    0x00000403       0x66 f:/program files/microchip/xc32/v2.50/bin/bin/../../lib/gcc/pic32mx/4.8.3/../../../../pic32mx/lib/size\libmchp_peripheral_32MX534F064H.a(spi_chn_open_lib.o)
 .debug_line    0x00000469       0x78 f:/program files/microchip/xc32/v2.50/bin/bin/../../lib/gcc/pic32mx/4.8.3/../../../../pic32mx/lib/size\libmchp_peripheral_32MX534F064H.a(spi_chn_putc_lib.o)
 .debug_line    0x000004e1       0x78 f:/program files/microchip/xc32/v2.50/bin/bin/../../lib/gcc/pic32mx/4.8.3/../../../../pic32mx/lib/size\libmchp_peripheral_32MX534F064H.a(spi_chn_puts_lib.o)
 .debug_line    0x00000559       0x69 f:/program files/microchip/xc32/v2.50/bin/bin/../../lib/gcc/pic32mx/4.8.3/../../../../pic32mx/lib/size\libmchp_peripheral_32MX534F064H.a(spi_chn_is_busy_lib.o)
 .debug_line    0x000005c2        0x0 f:/program files/microchip/xc32/v2.50/bin/bin/../../lib/gcc/pic32mx/4.8.3/../../../../pic32mx/lib/size\libmchp_peripheral_32MX534F064H.a(spi_io_tbl_libp.o)
 .debug_line    0x000005c2        0x0 f:/program files/microchip/xc32/v2.50/bin/bin/../../lib/gcc/pic32mx/4.8.3/../../../../pic32mx/lib/size\libmchp_peripheral_32MX534F064H.a(spi_map_tbl_libp.o)
 .debug_line    0x000005c2       0x6d f:/program files/microchip/xc32/v2.50/bin/bin/../../lib/gcc/pic32mx/4.8.3/../../../../pic32mx/lib/size\libmchp_peripheral_32MX534F064H.a(dma_chn_abort_txfer_lib.o)
 .debug_line    0x0000062f       0x78 f:/program files/microchip/xc32/v2.50/bin/bin/../../lib/gcc/pic32mx/4.8.3/../../../../pic32mx/lib/size\libmchp_peripheral_32MX534F064H.a(dma_chn_open_lib.o)
 .debug_line    0x000006a7       0x69 f:/program files/microchip/xc32/v2.50/bin/bin/../../lib/gcc/pic32mx/4.8.3/../../../../pic32mx/lib/size\libmchp_peripheral_32MX534F064H.a(dma_chn_disable_lib.o)
 .debug_line    0x00000710       0x68 f:/program files/microchip/xc32/v2.50/bin/bin/../../lib/gcc/pic32mx/4.8.3/../../../../pic32mx/lib/size\libmchp_peripheral_32MX534F064H.a(dma_chn_enable_lib.o)
 .debug_line    0x00000778       0x6d f:/program files/microchip/xc32/v2.50/bin/bin/../../lib/gcc/pic32mx/4.8.3/../../../../pic32mx/lib/size\libmchp_peripheral_32MX534F064H.a(dma_chn_get_dst_pnt_lib.o)
 .debug_line    0x000007e5       0x7b f:/program files/microchip/xc32/v2.50/bin/bin/../../lib/gcc/pic32mx/4.8.3/../../../../pic32mx/lib/size\libmchp_peripheral_32MX534F064H.a(dma_chn_write_event_control_flags_lib.o)
 .debug_line    0x00000860       0x7d f:/program files/microchip/xc32/v2.50/bin/bin/../../lib/gcc/pic32mx/4.8.3/../../../../pic32mx/lib/size\libmchp_peripheral_32MX534F064H.a(dma_chn_set_txfer_lib.o)
 .debug_line    0x000008dd       0x77 f:/program files/microchip/xc32/v2.50/bin/bin/../../lib/gcc/pic32mx/4.8.3/../../../../pic32mx/lib/size\libmchp_peripheral_32MX534F064H.a(dma_chn_write_ev_enable_flags_lib.o)
 .debug_line    0x00000954        0x0 f:/program files/microchip/xc32/v2.50/bin/bin/../../lib/gcc/pic32mx/4.8.3/../../../../pic32mx/lib/size\libmchp_peripheral_32MX534F064H.a(dma_reg_map_tbl_lib.o)
 .debug_line    0x00000954       0x6b f:/program files/microchip/xc32/v2.50/bin/bin/../../lib/gcc/pic32mx/4.8.3/../../../../pic32mx/lib/size\libmchp_peripheral_32MX534F064H.a(port_reset_pins_lib.o)
 .debug_line    0x000009bf       0x74 f:/program files/microchip/xc32/v2.50/bin/bin/../../lib/gcc/pic32mx/4.8.3/../../../../pic32mx/lib/size\libmchp_peripheral_32MX534F064H.a(port_set_pins_digital_in_lib.o)
 .debug_line    0x00000a33       0x75 f:/program files/microchip/xc32/v2.50/bin/bin/../../lib/gcc/pic32mx/4.8.3/../../../../pic32mx/lib/size\libmchp_peripheral_32MX534F064H.a(port_set_pins_digital_out_lib.o)
 .debug_line    0x00000aa8        0x0 f:/program files/microchip/xc32/v2.50/bin/bin/../../lib/gcc/pic32mx/4.8.3/../../../../pic32mx/lib/size\libmchp_peripheral_32MX534F064H.a(_ports_tbl_libp.o)
 .debug_line    0x00000aa8       0x68 f:/program files/microchip/xc32/v2.50/bin/bin/../../lib/gcc/pic32mx/4.8.3/../../../../pic32mx/lib/size\libmchp_peripheral_32MX534F064H.a(I2CAcknowledgeByte.o)
 .debug_line    0x00000b10       0x6c f:/program files/microchip/xc32/v2.50/bin/bin/../../lib/gcc/pic32mx/4.8.3/../../../../pic32mx/lib/size\libmchp_peripheral_32MX534F064H.a(I2CByteWasAcknowledged.o)
 .debug_line    0x00000b7c       0x5f f:/program files/microchip/xc32/v2.50/bin/bin/../../lib/gcc/pic32mx/4.8.3/../../../../pic32mx/lib/size\libmchp_peripheral_32MX534F064H.a(I2CEnable.o)
 .debug_line    0x00000bdb       0x60 f:/program files/microchip/xc32/v2.50/bin/bin/../../lib/gcc/pic32mx/4.8.3/../../../../pic32mx/lib/size\libmchp_peripheral_32MX534F064H.a(I2CGetByte.o)
 .debug_line    0x00000c3b       0x67 f:/program files/microchip/xc32/v2.50/bin/bin/../../lib/gcc/pic32mx/4.8.3/../../../../pic32mx/lib/size\libmchp_peripheral_32MX534F064H.a(I2CReceiverEnable.o)
 .debug_line    0x00000ca2       0x61 f:/program files/microchip/xc32/v2.50/bin/bin/../../lib/gcc/pic32mx/4.8.3/../../../../pic32mx/lib/size\libmchp_peripheral_32MX534F064H.a(I2CSendByte.o)
 .debug_line    0x00000d03       0x65 f:/program files/microchip/xc32/v2.50/bin/bin/../../lib/gcc/pic32mx/4.8.3/../../../../pic32mx/lib/size\libmchp_peripheral_32MX534F064H.a(I2CSetFrequency.o)
 .debug_line    0x00000d68       0x5e f:/program files/microchip/xc32/v2.50/bin/bin/../../lib/gcc/pic32mx/4.8.3/../../../../pic32mx/lib/size\libmchp_peripheral_32MX534F064H.a(I2CStart.o)
 .debug_line    0x00000dc6       0x5d f:/program files/microchip/xc32/v2.50/bin/bin/../../lib/gcc/pic32mx/4.8.3/../../../../pic32mx/lib/size\libmchp_peripheral_32MX534F064H.a(I2CStop.o)
 .debug_line    0x00000e23        0x0 f:/program files/microchip/xc32/v2.50/bin/bin/../../lib/gcc/pic32mx/4.8.3/../../../../pic32mx/lib/size\libmchp_peripheral_32MX534F064H.a(I2CPrivate.o)
 .debug_line    0x00000e23       0xa6 f:/program files/microchip/xc32/v2.50/bin/bin/../../lib/gcc/pic32mx/4.8.3/../../../../pic32mx/lib/size\libpic32.a(default-bootstrap-exception-handler.o)
 .debug_line    0x00000ec9       0x93 f:/program files/microchip/xc32/v2.50/bin/bin/../../lib/gcc/pic32mx/4.8.3/../../../../pic32mx/lib/size\libpic32.a(default-on-reset.o)
 .debug_line    0x00000f5c       0x97 f:/program files/microchip/xc32/v2.50/bin/bin/../../lib/gcc/pic32mx/4.8.3/../../../../pic32mx/lib/size\libpic32.a(default-on-bootstrap.o)
 .debug_line    0x00000ff3       0xa4 f:/program files/microchip/xc32/v2.50/bin/bin/../../lib/gcc/pic32mx/4.8.3/../../../../pic32mx/lib/size\libpic32.a(default-general-exception-handler.o)
 .debug_line    0x00001097       0xa5 f:/program files/microchip/xc32/v2.50/bin/bin/../../lib/gcc/pic32mx/4.8.3/../../../../pic32mx/lib/size\libpic32.a(defaultinterrupt.o)

.debug_frame    0x00000000      0x5c8
 *(.debug_frame)
 .debug_frame   0x00000000       0x20 f:/program files/microchip/xc32/v2.50/bin/bin/../../lib/gcc/pic32mx/4.8.3/../../../../pic32mx/lib/size\libmchp_peripheral.a(open_core_timer_lib.o)
 .debug_frame   0x00000020       0x20 f:/program files/microchip/xc32/v2.50/bin/bin/../../lib/gcc/pic32mx/4.8.3/../../../../pic32mx/lib/size\libmchp_peripheral.a(read_core_timer_lib.o)
 .debug_frame   0x00000040       0x28 f:/program files/microchip/xc32/v2.50/bin/bin/../../lib/gcc/pic32mx/4.8.3/../../../../pic32mx/lib/size\libmchp_peripheral_32MX534F064H.a(soft_reset_lib.o)
 .debug_frame   0x00000068       0x20 f:/program files/microchip/xc32/v2.50/bin/bin/../../lib/gcc/pic32mx/4.8.3/../../../../pic32mx/lib/size\libmchp_peripheral_32MX534F064H.a(int_enable_interrupts_lib.o)
 .debug_frame   0x00000088       0x20 f:/program files/microchip/xc32/v2.50/bin/bin/../../lib/gcc/pic32mx/4.8.3/../../../../pic32mx/lib/size\libmchp_peripheral_32MX534F064H.a(int_disable_interrupts_lib.o)
 .debug_frame   0x000000a8       0x20 f:/program files/microchip/xc32/v2.50/bin/bin/../../lib/gcc/pic32mx/4.8.3/../../../../pic32mx/lib/size\libmchp_peripheral_32MX534F064H.a(int_restore_interrupts_lib.o)
 .debug_frame   0x000000c8       0x28 f:/program files/microchip/xc32/v2.50/bin/bin/../../lib/gcc/pic32mx/4.8.3/../../../../pic32mx/lib/size\libmchp_peripheral_32MX534F064H.a(int_enable_mv_int_lib.o)
 .debug_frame   0x000000f0       0xa0 f:/program files/microchip/xc32/v2.50/bin/bin/../../lib/gcc/pic32mx/4.8.3/../../../../pic32mx/lib/size\libmchp_peripheral_32MX534F064H.a(int_tbl_lib.o)
 .debug_frame   0x00000190       0x2c f:/program files/microchip/xc32/v2.50/bin/bin/../../lib/gcc/pic32mx/4.8.3/../../../../pic32mx/lib/size\libmchp_peripheral_32MX534F064H.a(spi_chn_close_lib.o)
 .debug_frame   0x000001bc       0x34 f:/program files/microchip/xc32/v2.50/bin/bin/../../lib/gcc/pic32mx/4.8.3/../../../../pic32mx/lib/size\libmchp_peripheral_32MX534F064H.a(spi_chn_open_lib.o)
 .debug_frame   0x000001f0       0x40 f:/program files/microchip/xc32/v2.50/bin/bin/../../lib/gcc/pic32mx/4.8.3/../../../../pic32mx/lib/size\libmchp_peripheral_32MX534F064H.a(spi_chn_putc_lib.o)
 .debug_frame   0x00000230       0x20 f:/program files/microchip/xc32/v2.50/bin/bin/../../lib/gcc/pic32mx/4.8.3/../../../../pic32mx/lib/size\libmchp_peripheral_32MX534F064H.a(spi_chn_puts_lib.o)
 .debug_frame   0x00000250       0x30 f:/program files/microchip/xc32/v2.50/bin/bin/../../lib/gcc/pic32mx/4.8.3/../../../../pic32mx/lib/size\libmchp_peripheral_32MX534F064H.a(spi_chn_is_busy_lib.o)
 .debug_frame   0x00000280       0x20 f:/program files/microchip/xc32/v2.50/bin/bin/../../lib/gcc/pic32mx/4.8.3/../../../../pic32mx/lib/size\libmchp_peripheral_32MX534F064H.a(dma_chn_abort_txfer_lib.o)
 .debug_frame   0x000002a0       0x30 f:/program files/microchip/xc32/v2.50/bin/bin/../../lib/gcc/pic32mx/4.8.3/../../../../pic32mx/lib/size\libmchp_peripheral_32MX534F064H.a(dma_chn_open_lib.o)
 .debug_frame   0x000002d0       0x20 f:/program files/microchip/xc32/v2.50/bin/bin/../../lib/gcc/pic32mx/4.8.3/../../../../pic32mx/lib/size\libmchp_peripheral_32MX534F064H.a(dma_chn_disable_lib.o)
 .debug_frame   0x000002f0       0x20 f:/program files/microchip/xc32/v2.50/bin/bin/../../lib/gcc/pic32mx/4.8.3/../../../../pic32mx/lib/size\libmchp_peripheral_32MX534F064H.a(dma_chn_enable_lib.o)
 .debug_frame   0x00000310       0x20 f:/program files/microchip/xc32/v2.50/bin/bin/../../lib/gcc/pic32mx/4.8.3/../../../../pic32mx/lib/size\libmchp_peripheral_32MX534F064H.a(dma_chn_get_dst_pnt_lib.o)
 .debug_frame   0x00000330       0x20 f:/program files/microchip/xc32/v2.50/bin/bin/../../lib/gcc/pic32mx/4.8.3/../../../../pic32mx/lib/size\libmchp_peripheral_32MX534F064H.a(dma_chn_write_event_control_flags_lib.o)
 .debug_frame   0x00000350       0x20 f:/program files/microchip/xc32/v2.50/bin/bin/../../lib/gcc/pic32mx/4.8.3/../../../../pic32mx/lib/size\libmchp_peripheral_32MX534F064H.a(dma_chn_set_txfer_lib.o)
 .debug_frame   0x00000370       0x20 f:/program files/microchip/xc32/v2.50/bin/bin/../../lib/gcc/pic32mx/4.8.3/../../../../pic32mx/lib/size\libmchp_peripheral_32MX534F064H.a(dma_chn_write_ev_enable_flags_lib.o)
 .debug_frame   0x00000390       0x20 f:/program files/microchip/xc32/v2.50/bin/bin/../../lib/gcc/pic32mx/4.8.3/../../../../pic32mx/lib/size\libmchp_peripheral_32MX534F064H.a(port_reset_pins_lib.o)
 .debug_frame   0x000003b0       0x20 f:/program files/microchip/xc32/v2.50/bin/bin/../../lib/gcc/pic32mx/4.8.3/../../../../pic32mx/lib/size\libmchp_peripheral_32MX534F064H.a(port_set_pins_digital_in_lib.o)
 .debug_frame   0x000003d0       0x20 f:/program files/microchip/xc32/v2.50/bin/bin/../../lib/gcc/pic32mx/4.8.3/../../../../pic32mx/lib/size\libmchp_peripheral_32MX534F064H.a(port_set_pins_digital_out_lib.o)
 .debug_frame   0x000003f0       0x20 f:/program files/microchip/xc32/v2.50/bin/bin/../../lib/gcc/pic32mx/4.8.3/../../../../pic32mx/lib/size\libmchp_peripheral_32MX534F064H.a(I2CAcknowledgeByte.o)
 .debug_frame   0x00000410       0x20 f:/program files/microchip/xc32/v2.50/bin/bin/../../lib/gcc/pic32mx/4.8.3/../../../../pic32mx/lib/size\libmchp_peripheral_32MX534F064H.a(I2CByteWasAcknowledged.o)
 .debug_frame   0x00000430       0x20 f:/program files/microchip/xc32/v2.50/bin/bin/../../lib/gcc/pic32mx/4.8.3/../../../../pic32mx/lib/size\libmchp_peripheral_32MX534F064H.a(I2CEnable.o)
 .debug_frame   0x00000450       0x20 f:/program files/microchip/xc32/v2.50/bin/bin/../../lib/gcc/pic32mx/4.8.3/../../../../pic32mx/lib/size\libmchp_peripheral_32MX534F064H.a(I2CGetByte.o)
 .debug_frame   0x00000470       0x20 f:/program files/microchip/xc32/v2.50/bin/bin/../../lib/gcc/pic32mx/4.8.3/../../../../pic32mx/lib/size\libmchp_peripheral_32MX534F064H.a(I2CReceiverEnable.o)
 .debug_frame   0x00000490       0x20 f:/program files/microchip/xc32/v2.50/bin/bin/../../lib/gcc/pic32mx/4.8.3/../../../../pic32mx/lib/size\libmchp_peripheral_32MX534F064H.a(I2CSendByte.o)
 .debug_frame   0x000004b0       0x20 f:/program files/microchip/xc32/v2.50/bin/bin/../../lib/gcc/pic32mx/4.8.3/../../../../pic32mx/lib/size\libmchp_peripheral_32MX534F064H.a(I2CSetFrequency.o)
 .debug_frame   0x000004d0       0x20 f:/program files/microchip/xc32/v2.50/bin/bin/../../lib/gcc/pic32mx/4.8.3/../../../../pic32mx/lib/size\libmchp_peripheral_32MX534F064H.a(I2CStart.o)
 .debug_frame   0x000004f0       0x20 f:/program files/microchip/xc32/v2.50/bin/bin/../../lib/gcc/pic32mx/4.8.3/../../../../pic32mx/lib/size\libmchp_peripheral_32MX534F064H.a(I2CStop.o)
 .debug_frame   0x00000510       0x2c f:/program files/microchip/xc32/v2.50/bin/bin/../../lib/gcc/pic32mx/4.8.3/../../../../pic32mx/lib/size\libpic32.a(default-bootstrap-exception-handler.o)
 .debug_frame   0x0000053c       0x20 f:/program files/microchip/xc32/v2.50/bin/bin/../../lib/gcc/pic32mx/4.8.3/../../../../pic32mx/lib/size\libpic32.a(default-on-reset.o)
 .debug_frame   0x0000055c       0x20 f:/program files/microchip/xc32/v2.50/bin/bin/../../lib/gcc/pic32mx/4.8.3/../../../../pic32mx/lib/size\libpic32.a(default-on-bootstrap.o)
 .debug_frame   0x0000057c       0x2c f:/program files/microchip/xc32/v2.50/bin/bin/../../lib/gcc/pic32mx/4.8.3/../../../../pic32mx/lib/size\libpic32.a(default-general-exception-handler.o)
 .debug_frame   0x000005a8       0x20 f:/program files/microchip/xc32/v2.50/bin/bin/../../lib/gcc/pic32mx/4.8.3/../../../../pic32mx/lib/size\libpic32.a(defaultinterrupt.o)

.debug_str      0x00000000        0x0
 *(.debug_str)
 .debug_str     0x00000000        0x0 f:/program files/microchip/xc32/v2.50/bin/bin/../../lib/gcc/pic32mx/4.8.3/../../../../pic32mx/lib/size\libmchp_peripheral.a(open_core_timer_lib.o)
 .debug_str     0x00000000        0x0 f:/program files/microchip/xc32/v2.50/bin/bin/../../lib/gcc/pic32mx/4.8.3/../../../../pic32mx/lib/size\libmchp_peripheral.a(read_core_timer_lib.o)
 .debug_str     0x00000000        0x0 f:/program files/microchip/xc32/v2.50/bin/bin/../../lib/gcc/pic32mx/4.8.3/../../../../pic32mx/lib/size\libmchp_peripheral_32MX534F064H.a(soft_reset_lib.o)
 .debug_str     0x00000000        0x0 f:/program files/microchip/xc32/v2.50/bin/bin/../../lib/gcc/pic32mx/4.8.3/../../../../pic32mx/lib/size\libmchp_peripheral_32MX534F064H.a(int_enable_interrupts_lib.o)
 .debug_str     0x00000000        0x0 f:/program files/microchip/xc32/v2.50/bin/bin/../../lib/gcc/pic32mx/4.8.3/../../../../pic32mx/lib/size\libmchp_peripheral_32MX534F064H.a(int_disable_interrupts_lib.o)
 .debug_str     0x00000000        0x0 f:/program files/microchip/xc32/v2.50/bin/bin/../../lib/gcc/pic32mx/4.8.3/../../../../pic32mx/lib/size\libmchp_peripheral_32MX534F064H.a(int_restore_interrupts_lib.o)
 .debug_str     0x00000000        0x0 f:/program files/microchip/xc32/v2.50/bin/bin/../../lib/gcc/pic32mx/4.8.3/../../../../pic32mx/lib/size\libmchp_peripheral_32MX534F064H.a(int_enable_mv_int_lib.o)
 .debug_str     0x00000000        0x0 f:/program files/microchip/xc32/v2.50/bin/bin/../../lib/gcc/pic32mx/4.8.3/../../../../pic32mx/lib/size\libmchp_peripheral_32MX534F064H.a(int_tbl_lib.o)
 .debug_str     0x00000000        0x0 f:/program files/microchip/xc32/v2.50/bin/bin/../../lib/gcc/pic32mx/4.8.3/../../../../pic32mx/lib/size\libmchp_peripheral_32MX534F064H.a(spi_chn_close_lib.o)
 .debug_str     0x00000000        0x0 f:/program files/microchip/xc32/v2.50/bin/bin/../../lib/gcc/pic32mx/4.8.3/../../../../pic32mx/lib/size\libmchp_peripheral_32MX534F064H.a(spi_chn_open_lib.o)
 .debug_str     0x00000000        0x0 f:/program files/microchip/xc32/v2.50/bin/bin/../../lib/gcc/pic32mx/4.8.3/../../../../pic32mx/lib/size\libmchp_peripheral_32MX534F064H.a(spi_chn_putc_lib.o)
 .debug_str     0x00000000        0x0 f:/program files/microchip/xc32/v2.50/bin/bin/../../lib/gcc/pic32mx/4.8.3/../../../../pic32mx/lib/size\libmchp_peripheral_32MX534F064H.a(spi_chn_puts_lib.o)
 .debug_str     0x00000000        0x0 f:/program files/microchip/xc32/v2.50/bin/bin/../../lib/gcc/pic32mx/4.8.3/../../../../pic32mx/lib/size\libmchp_peripheral_32MX534F064H.a(spi_chn_is_busy_lib.o)
 .debug_str     0x00000000        0x0 f:/program files/microchip/xc32/v2.50/bin/bin/../../lib/gcc/pic32mx/4.8.3/../../../../pic32mx/lib/size\libmchp_peripheral_32MX534F064H.a(spi_io_tbl_libp.o)
 .debug_str     0x00000000        0x0 f:/program files/microchip/xc32/v2.50/bin/bin/../../lib/gcc/pic32mx/4.8.3/../../../../pic32mx/lib/size\libmchp_peripheral_32MX534F064H.a(spi_map_tbl_libp.o)
 .debug_str     0x00000000        0x0 f:/program files/microchip/xc32/v2.50/bin/bin/../../lib/gcc/pic32mx/4.8.3/../../../../pic32mx/lib/size\libmchp_peripheral_32MX534F064H.a(dma_chn_abort_txfer_lib.o)
 .debug_str     0x00000000        0x0 f:/program files/microchip/xc32/v2.50/bin/bin/../../lib/gcc/pic32mx/4.8.3/../../../../pic32mx/lib/size\libmchp_peripheral_32MX534F064H.a(dma_chn_open_lib.o)
 .debug_str     0x00000000        0x0 f:/program files/microchip/xc32/v2.50/bin/bin/../../lib/gcc/pic32mx/4.8.3/../../../../pic32mx/lib/size\libmchp_peripheral_32MX534F064H.a(dma_chn_disable_lib.o)
 .debug_str     0x00000000        0x0 f:/program files/microchip/xc32/v2.50/bin/bin/../../lib/gcc/pic32mx/4.8.3/../../../../pic32mx/lib/size\libmchp_peripheral_32MX534F064H.a(dma_chn_enable_lib.o)
 .debug_str     0x00000000        0x0 f:/program files/microchip/xc32/v2.50/bin/bin/../../lib/gcc/pic32mx/4.8.3/../../../../pic32mx/lib/size\libmchp_peripheral_32MX534F064H.a(dma_chn_get_dst_pnt_lib.o)
 .debug_str     0x00000000        0x0 f:/program files/microchip/xc32/v2.50/bin/bin/../../lib/gcc/pic32mx/4.8.3/../../../../pic32mx/lib/size\libmchp_peripheral_32MX534F064H.a(dma_chn_write_event_control_flags_lib.o)
 .debug_str     0x00000000        0x0 f:/program files/microchip/xc32/v2.50/bin/bin/../../lib/gcc/pic32mx/4.8.3/../../../../pic32mx/lib/size\libmchp_peripheral_32MX534F064H.a(dma_chn_set_txfer_lib.o)
 .debug_str     0x00000000        0x0 f:/program files/microchip/xc32/v2.50/bin/bin/../../lib/gcc/pic32mx/4.8.3/../../../../pic32mx/lib/size\libmchp_peripheral_32MX534F064H.a(dma_chn_write_ev_enable_flags_lib.o)
 .debug_str     0x00000000        0x0 f:/program files/microchip/xc32/v2.50/bin/bin/../../lib/gcc/pic32mx/4.8.3/../../../../pic32mx/lib/size\libmchp_peripheral_32MX534F064H.a(dma_reg_map_tbl_lib.o)
 .debug_str     0x00000000        0x0 f:/program files/microchip/xc32/v2.50/bin/bin/../../lib/gcc/pic32mx/4.8.3/../../../../pic32mx/lib/size\libmchp_peripheral_32MX534F064H.a(port_reset_pins_lib.o)
 .debug_str     0x00000000        0x0 f:/program files/microchip/xc32/v2.50/bin/bin/../../lib/gcc/pic32mx/4.8.3/../../../../pic32mx/lib/size\libmchp_peripheral_32MX534F064H.a(port_set_pins_digital_in_lib.o)
 .debug_str     0x00000000        0x0 f:/program files/microchip/xc32/v2.50/bin/bin/../../lib/gcc/pic32mx/4.8.3/../../../../pic32mx/lib/size\libmchp_peripheral_32MX534F064H.a(port_set_pins_digital_out_lib.o)
 .debug_str     0x00000000        0x0 f:/program files/microchip/xc32/v2.50/bin/bin/../../lib/gcc/pic32mx/4.8.3/../../../../pic32mx/lib/size\libmchp_peripheral_32MX534F064H.a(_ports_tbl_libp.o)
 .debug_str     0x00000000        0x0 f:/program files/microchip/xc32/v2.50/bin/bin/../../lib/gcc/pic32mx/4.8.3/../../../../pic32mx/lib/size\libmchp_peripheral_32MX534F064H.a(I2CAcknowledgeByte.o)
 .debug_str     0x00000000        0x0 f:/program files/microchip/xc32/v2.50/bin/bin/../../lib/gcc/pic32mx/4.8.3/../../../../pic32mx/lib/size\libmchp_peripheral_32MX534F064H.a(I2CByteWasAcknowledged.o)
 .debug_str     0x00000000        0x0 f:/program files/microchip/xc32/v2.50/bin/bin/../../lib/gcc/pic32mx/4.8.3/../../../../pic32mx/lib/size\libmchp_peripheral_32MX534F064H.a(I2CEnable.o)
 .debug_str     0x00000000        0x0 f:/program files/microchip/xc32/v2.50/bin/bin/../../lib/gcc/pic32mx/4.8.3/../../../../pic32mx/lib/size\libmchp_peripheral_32MX534F064H.a(I2CGetByte.o)
 .debug_str     0x00000000        0x0 f:/program files/microchip/xc32/v2.50/bin/bin/../../lib/gcc/pic32mx/4.8.3/../../../../pic32mx/lib/size\libmchp_peripheral_32MX534F064H.a(I2CReceiverEnable.o)
 .debug_str     0x00000000        0x0 f:/program files/microchip/xc32/v2.50/bin/bin/../../lib/gcc/pic32mx/4.8.3/../../../../pic32mx/lib/size\libmchp_peripheral_32MX534F064H.a(I2CSendByte.o)
 .debug_str     0x00000000        0x0 f:/program files/microchip/xc32/v2.50/bin/bin/../../lib/gcc/pic32mx/4.8.3/../../../../pic32mx/lib/size\libmchp_peripheral_32MX534F064H.a(I2CSetFrequency.o)
 .debug_str     0x00000000        0x0 f:/program files/microchip/xc32/v2.50/bin/bin/../../lib/gcc/pic32mx/4.8.3/../../../../pic32mx/lib/size\libmchp_peripheral_32MX534F064H.a(I2CStart.o)
 .debug_str     0x00000000        0x0 f:/program files/microchip/xc32/v2.50/bin/bin/../../lib/gcc/pic32mx/4.8.3/../../../../pic32mx/lib/size\libmchp_peripheral_32MX534F064H.a(I2CStop.o)
 .debug_str     0x00000000        0x0 f:/program files/microchip/xc32/v2.50/bin/bin/../../lib/gcc/pic32mx/4.8.3/../../../../pic32mx/lib/size\libmchp_peripheral_32MX534F064H.a(I2CPrivate.o)
 .debug_str     0x00000000        0x0 f:/program files/microchip/xc32/v2.50/bin/bin/../../lib/gcc/pic32mx/4.8.3/../../../../pic32mx/lib/size\libpic32.a(default-bootstrap-exception-handler.o)
 .debug_str     0x00000000        0x0 f:/program files/microchip/xc32/v2.50/bin/bin/../../lib/gcc/pic32mx/4.8.3/../../../../pic32mx/lib/size\libpic32.a(default-on-reset.o)
 .debug_str     0x00000000        0x0 f:/program files/microchip/xc32/v2.50/bin/bin/../../lib/gcc/pic32mx/4.8.3/../../../../pic32mx/lib/size\libpic32.a(default-on-bootstrap.o)
 .debug_str     0x00000000        0x0 f:/program files/microchip/xc32/v2.50/bin/bin/../../lib/gcc/pic32mx/4.8.3/../../../../pic32mx/lib/size\libpic32.a(default-general-exception-handler.o)
 .debug_str     0x00000000        0x0 f:/program files/microchip/xc32/v2.50/bin/bin/../../lib/gcc/pic32mx/4.8.3/../../../../pic32mx/lib/size\libpic32.a(defaultinterrupt.o)

.debug_loc      0x00000000       0x58
 *(.debug_loc)
 .debug_loc     0x00000000       0x2c f:/program files/microchip/xc32/v2.50/bin/bin/../../lib/gcc/pic32mx/4.8.3/../../../../pic32mx/lib/size\libpic32.a(default-bootstrap-exception-handler.o)
 .debug_loc     0x0000002c       0x2c f:/program files/microchip/xc32/v2.50/bin/bin/../../lib/gcc/pic32mx/4.8.3/../../../../pic32mx/lib/size\libpic32.a(default-general-exception-handler.o)

.debug_macinfo
 *(.debug_macinfo)

.debug_weaknames
 *(.debug_weaknames)

.debug_funcnames
 *(.debug_funcnames)

.debug_typenames
 *(.debug_typenames)

.debug_varnames
 *(.debug_varnames)

.debug_pubtypes
 *(.debug_pubtypes)

.debug_ranges   0x00000000      0x2b8
 *(.debug_ranges)
 .debug_ranges  0x00000000       0x10 f:/program files/microchip/xc32/v2.50/bin/bin/../../lib/gcc/pic32mx/4.8.3/../../../../pic32mx/lib/size\libmchp_peripheral.a(open_core_timer_lib.o)
 .debug_ranges  0x00000010       0x10 f:/program files/microchip/xc32/v2.50/bin/bin/../../lib/gcc/pic32mx/4.8.3/../../../../pic32mx/lib/size\libmchp_peripheral.a(read_core_timer_lib.o)
 .debug_ranges  0x00000020       0x10 f:/program files/microchip/xc32/v2.50/bin/bin/../../lib/gcc/pic32mx/4.8.3/../../../../pic32mx/lib/size\libmchp_peripheral_32MX534F064H.a(soft_reset_lib.o)
 .debug_ranges  0x00000030       0x10 f:/program files/microchip/xc32/v2.50/bin/bin/../../lib/gcc/pic32mx/4.8.3/../../../../pic32mx/lib/size\libmchp_peripheral_32MX534F064H.a(int_enable_interrupts_lib.o)
 .debug_ranges  0x00000040       0x10 f:/program files/microchip/xc32/v2.50/bin/bin/../../lib/gcc/pic32mx/4.8.3/../../../../pic32mx/lib/size\libmchp_peripheral_32MX534F064H.a(int_disable_interrupts_lib.o)
 .debug_ranges  0x00000050       0x10 f:/program files/microchip/xc32/v2.50/bin/bin/../../lib/gcc/pic32mx/4.8.3/../../../../pic32mx/lib/size\libmchp_peripheral_32MX534F064H.a(int_restore_interrupts_lib.o)
 .debug_ranges  0x00000060       0x10 f:/program files/microchip/xc32/v2.50/bin/bin/../../lib/gcc/pic32mx/4.8.3/../../../../pic32mx/lib/size\libmchp_peripheral_32MX534F064H.a(int_enable_mv_int_lib.o)
 .debug_ranges  0x00000070       0x50 f:/program files/microchip/xc32/v2.50/bin/bin/../../lib/gcc/pic32mx/4.8.3/../../../../pic32mx/lib/size\libmchp_peripheral_32MX534F064H.a(int_tbl_lib.o)
 .debug_ranges  0x000000c0       0x10 f:/program files/microchip/xc32/v2.50/bin/bin/../../lib/gcc/pic32mx/4.8.3/../../../../pic32mx/lib/size\libmchp_peripheral_32MX534F064H.a(spi_chn_close_lib.o)
 .debug_ranges  0x000000d0       0x10 f:/program files/microchip/xc32/v2.50/bin/bin/../../lib/gcc/pic32mx/4.8.3/../../../../pic32mx/lib/size\libmchp_peripheral_32MX534F064H.a(spi_chn_open_lib.o)
 .debug_ranges  0x000000e0       0x20 f:/program files/microchip/xc32/v2.50/bin/bin/../../lib/gcc/pic32mx/4.8.3/../../../../pic32mx/lib/size\libmchp_peripheral_32MX534F064H.a(spi_chn_putc_lib.o)
 .debug_ranges  0x00000100       0x10 f:/program files/microchip/xc32/v2.50/bin/bin/../../lib/gcc/pic32mx/4.8.3/../../../../pic32mx/lib/size\libmchp_peripheral_32MX534F064H.a(spi_chn_puts_lib.o)
 .debug_ranges  0x00000110       0x18 f:/program files/microchip/xc32/v2.50/bin/bin/../../lib/gcc/pic32mx/4.8.3/../../../../pic32mx/lib/size\libmchp_peripheral_32MX534F064H.a(spi_chn_is_busy_lib.o)
 .debug_ranges  0x00000128       0x10 f:/program files/microchip/xc32/v2.50/bin/bin/../../lib/gcc/pic32mx/4.8.3/../../../../pic32mx/lib/size\libmchp_peripheral_32MX534F064H.a(dma_chn_abort_txfer_lib.o)
 .debug_ranges  0x00000138       0x10 f:/program files/microchip/xc32/v2.50/bin/bin/../../lib/gcc/pic32mx/4.8.3/../../../../pic32mx/lib/size\libmchp_peripheral_32MX534F064H.a(dma_chn_open_lib.o)
 .debug_ranges  0x00000148       0x10 f:/program files/microchip/xc32/v2.50/bin/bin/../../lib/gcc/pic32mx/4.8.3/../../../../pic32mx/lib/size\libmchp_peripheral_32MX534F064H.a(dma_chn_disable_lib.o)
 .debug_ranges  0x00000158       0x10 f:/program files/microchip/xc32/v2.50/bin/bin/../../lib/gcc/pic32mx/4.8.3/../../../../pic32mx/lib/size\libmchp_peripheral_32MX534F064H.a(dma_chn_enable_lib.o)
 .debug_ranges  0x00000168       0x10 f:/program files/microchip/xc32/v2.50/bin/bin/../../lib/gcc/pic32mx/4.8.3/../../../../pic32mx/lib/size\libmchp_peripheral_32MX534F064H.a(dma_chn_get_dst_pnt_lib.o)
 .debug_ranges  0x00000178       0x10 f:/program files/microchip/xc32/v2.50/bin/bin/../../lib/gcc/pic32mx/4.8.3/../../../../pic32mx/lib/size\libmchp_peripheral_32MX534F064H.a(dma_chn_write_event_control_flags_lib.o)
 .debug_ranges  0x00000188       0x10 f:/program files/microchip/xc32/v2.50/bin/bin/../../lib/gcc/pic32mx/4.8.3/../../../../pic32mx/lib/size\libmchp_peripheral_32MX534F064H.a(dma_chn_set_txfer_lib.o)
 .debug_ranges  0x00000198       0x10 f:/program files/microchip/xc32/v2.50/bin/bin/../../lib/gcc/pic32mx/4.8.3/../../../../pic32mx/lib/size\libmchp_peripheral_32MX534F064H.a(dma_chn_write_ev_enable_flags_lib.o)
 .debug_ranges  0x000001a8       0x10 f:/program files/microchip/xc32/v2.50/bin/bin/../../lib/gcc/pic32mx/4.8.3/../../../../pic32mx/lib/size\libmchp_peripheral_32MX534F064H.a(port_reset_pins_lib.o)
 .debug_ranges  0x000001b8       0x10 f:/program files/microchip/xc32/v2.50/bin/bin/../../lib/gcc/pic32mx/4.8.3/../../../../pic32mx/lib/size\libmchp_peripheral_32MX534F064H.a(port_set_pins_digital_in_lib.o)
 .debug_ranges  0x000001c8       0x10 f:/program files/microchip/xc32/v2.50/bin/bin/../../lib/gcc/pic32mx/4.8.3/../../../../pic32mx/lib/size\libmchp_peripheral_32MX534F064H.a(port_set_pins_digital_out_lib.o)
 .debug_ranges  0x000001d8       0x10 f:/program files/microchip/xc32/v2.50/bin/bin/../../lib/gcc/pic32mx/4.8.3/../../../../pic32mx/lib/size\libmchp_peripheral_32MX534F064H.a(I2CAcknowledgeByte.o)
 .debug_ranges  0x000001e8       0x10 f:/program files/microchip/xc32/v2.50/bin/bin/../../lib/gcc/pic32mx/4.8.3/../../../../pic32mx/lib/size\libmchp_peripheral_32MX534F064H.a(I2CByteWasAcknowledged.o)
 .debug_ranges  0x000001f8       0x10 f:/program files/microchip/xc32/v2.50/bin/bin/../../lib/gcc/pic32mx/4.8.3/../../../../pic32mx/lib/size\libmchp_peripheral_32MX534F064H.a(I2CEnable.o)
 .debug_ranges  0x00000208       0x10 f:/program files/microchip/xc32/v2.50/bin/bin/../../lib/gcc/pic32mx/4.8.3/../../../../pic32mx/lib/size\libmchp_peripheral_32MX534F064H.a(I2CGetByte.o)
 .debug_ranges  0x00000218       0x10 f:/program files/microchip/xc32/v2.50/bin/bin/../../lib/gcc/pic32mx/4.8.3/../../../../pic32mx/lib/size\libmchp_peripheral_32MX534F064H.a(I2CReceiverEnable.o)
 .debug_ranges  0x00000228       0x10 f:/program files/microchip/xc32/v2.50/bin/bin/../../lib/gcc/pic32mx/4.8.3/../../../../pic32mx/lib/size\libmchp_peripheral_32MX534F064H.a(I2CSendByte.o)
 .debug_ranges  0x00000238       0x10 f:/program files/microchip/xc32/v2.50/bin/bin/../../lib/gcc/pic32mx/4.8.3/../../../../pic32mx/lib/size\libmchp_peripheral_32MX534F064H.a(I2CSetFrequency.o)
 .debug_ranges  0x00000248       0x10 f:/program files/microchip/xc32/v2.50/bin/bin/../../lib/gcc/pic32mx/4.8.3/../../../../pic32mx/lib/size\libmchp_peripheral_32MX534F064H.a(I2CStart.o)
 .debug_ranges  0x00000258       0x10 f:/program files/microchip/xc32/v2.50/bin/bin/../../lib/gcc/pic32mx/4.8.3/../../../../pic32mx/lib/size\libmchp_peripheral_32MX534F064H.a(I2CStop.o)
 .debug_ranges  0x00000268       0x10 f:/program files/microchip/xc32/v2.50/bin/bin/../../lib/gcc/pic32mx/4.8.3/../../../../pic32mx/lib/size\libpic32.a(default-bootstrap-exception-handler.o)
 .debug_ranges  0x00000278       0x10 f:/program files/microchip/xc32/v2.50/bin/bin/../../lib/gcc/pic32mx/4.8.3/../../../../pic32mx/lib/size\libpic32.a(default-on-reset.o)
 .debug_ranges  0x00000288       0x10 f:/program files/microchip/xc32/v2.50/bin/bin/../../lib/gcc/pic32mx/4.8.3/../../../../pic32mx/lib/size\libpic32.a(default-on-bootstrap.o)
 .debug_ranges  0x00000298       0x10 f:/program files/microchip/xc32/v2.50/bin/bin/../../lib/gcc/pic32mx/4.8.3/../../../../pic32mx/lib/size\libpic32.a(default-general-exception-handler.o)
 .debug_ranges  0x000002a8       0x10 f:/program files/microchip/xc32/v2.50/bin/bin/../../lib/gcc/pic32mx/4.8.3/../../../../pic32mx/lib/size\libpic32.a(defaultinterrupt.o)

.gnu.attributes
                0x00000000       0x10
 *(.gnu.attributes)
 .gnu.attributes
                0x00000000       0x10 build/PIC32_Standalone/production/usb/usb_descriptors.o
 .gnu.attributes
                0x00000010       0x10 build/PIC32_Standalone/production/usb/usb_device.o
 .gnu.attributes
                0x00000020       0x10 build/PIC32_Standalone/production/usb/usb_driver.o
 .gnu.attributes
                0x00000030       0x10 build/PIC32_Standalone/production/usb/usb_function_hid.o
 .gnu.attributes
                0x00000040       0x10 build/PIC32_Standalone/production/usb/usb_hal_pic24.o
 .gnu.attributes
                0x00000050       0x10 build/PIC32_Standalone/production/main.o
 .gnu.attributes
                0x00000060       0x10 build/PIC32_Standalone/production/isr.o
 .gnu.attributes
                0x00000070       0x10 build/PIC32_Standalone/production/iron.o
 .gnu.attributes
                0x00000080       0x10 build/PIC32_Standalone/production/PID.o
 .gnu.attributes
                0x00000090       0x10 build/PIC32_Standalone/production/io.o
 .gnu.attributes
                0x000000a0       0x10 build/PIC32_Standalone/production/menu.o
 .gnu.attributes
                0x000000b0       0x10 build/PIC32_Standalone/production/PIC32MX534F064H.o
 .gnu.attributes
                0x000000c0       0x10 build/PIC32_Standalone/production/EEP.o
 .gnu.attributes
                0x000000d0       0x10 build/PIC32_Standalone/production/OLED.o
 .gnu.attributes
                0x000000e0       0x10 build/PIC32_Standalone/production/pars.o
 .gnu.attributes
                0x000000f0       0x10 build/PIC32_Standalone/production/sensorMath.o
 .gnu.attributes
                0x00000100       0x10 f:/program files/microchip/xc32/v2.50/bin/bin/../../lib/gcc/pic32mx/4.8.3/../../../../pic32mx/lib/size\libmchp_peripheral.a(open_core_timer_lib.o)
 .gnu.attributes
                0x00000110       0x10 f:/program files/microchip/xc32/v2.50/bin/bin/../../lib/gcc/pic32mx/4.8.3/../../../../pic32mx/lib/size\libmchp_peripheral.a(read_core_timer_lib.o)
 .gnu.attributes
                0x00000120       0x10 f:/program files/microchip/xc32/v2.50/bin/bin/../../lib/gcc/pic32mx/4.8.3/../../../../pic32mx/lib/size\libmchp_peripheral_32MX534F064H.a(soft_reset_lib.o)
 .gnu.attributes
                0x00000130       0x10 f:/program files/microchip/xc32/v2.50/bin/bin/../../lib/gcc/pic32mx/4.8.3/../../../../pic32mx/lib/size\libmchp_peripheral_32MX534F064H.a(int_enable_interrupts_lib.o)
 .gnu.attributes
                0x00000140       0x10 f:/program files/microchip/xc32/v2.50/bin/bin/../../lib/gcc/pic32mx/4.8.3/../../../../pic32mx/lib/size\libmchp_peripheral_32MX534F064H.a(int_disable_interrupts_lib.o)
 .gnu.attributes
                0x00000150       0x10 f:/program files/microchip/xc32/v2.50/bin/bin/../../lib/gcc/pic32mx/4.8.3/../../../../pic32mx/lib/size\libmchp_peripheral_32MX534F064H.a(int_restore_interrupts_lib.o)
 .gnu.attributes
                0x00000160       0x10 f:/program files/microchip/xc32/v2.50/bin/bin/../../lib/gcc/pic32mx/4.8.3/../../../../pic32mx/lib/size\libmchp_peripheral_32MX534F064H.a(int_enable_mv_int_lib.o)
 .gnu.attributes
                0x00000170       0x10 f:/program files/microchip/xc32/v2.50/bin/bin/../../lib/gcc/pic32mx/4.8.3/../../../../pic32mx/lib/size\libmchp_peripheral_32MX534F064H.a(int_tbl_lib.o)
 .gnu.attributes
                0x00000180       0x10 f:/program files/microchip/xc32/v2.50/bin/bin/../../lib/gcc/pic32mx/4.8.3/../../../../pic32mx/lib/size\libmchp_peripheral_32MX534F064H.a(spi_chn_close_lib.o)
 .gnu.attributes
                0x00000190       0x10 f:/program files/microchip/xc32/v2.50/bin/bin/../../lib/gcc/pic32mx/4.8.3/../../../../pic32mx/lib/size\libmchp_peripheral_32MX534F064H.a(spi_chn_open_lib.o)
 .gnu.attributes
                0x000001a0       0x10 f:/program files/microchip/xc32/v2.50/bin/bin/../../lib/gcc/pic32mx/4.8.3/../../../../pic32mx/lib/size\libmchp_peripheral_32MX534F064H.a(spi_chn_putc_lib.o)
 .gnu.attributes
                0x000001b0       0x10 f:/program files/microchip/xc32/v2.50/bin/bin/../../lib/gcc/pic32mx/4.8.3/../../../../pic32mx/lib/size\libmchp_peripheral_32MX534F064H.a(spi_chn_puts_lib.o)
 .gnu.attributes
                0x000001c0       0x10 f:/program files/microchip/xc32/v2.50/bin/bin/../../lib/gcc/pic32mx/4.8.3/../../../../pic32mx/lib/size\libmchp_peripheral_32MX534F064H.a(spi_chn_is_busy_lib.o)
 .gnu.attributes
                0x000001d0       0x10 f:/program files/microchip/xc32/v2.50/bin/bin/../../lib/gcc/pic32mx/4.8.3/../../../../pic32mx/lib/size\libmchp_peripheral_32MX534F064H.a(spi_io_tbl_libp.o)
 .gnu.attributes
                0x000001e0       0x10 f:/program files/microchip/xc32/v2.50/bin/bin/../../lib/gcc/pic32mx/4.8.3/../../../../pic32mx/lib/size\libmchp_peripheral_32MX534F064H.a(spi_map_tbl_libp.o)
 .gnu.attributes
                0x000001f0       0x10 f:/program files/microchip/xc32/v2.50/bin/bin/../../lib/gcc/pic32mx/4.8.3/../../../../pic32mx/lib/size\libmchp_peripheral_32MX534F064H.a(dma_chn_abort_txfer_lib.o)
 .gnu.attributes
                0x00000200       0x10 f:/program files/microchip/xc32/v2.50/bin/bin/../../lib/gcc/pic32mx/4.8.3/../../../../pic32mx/lib/size\libmchp_peripheral_32MX534F064H.a(dma_chn_open_lib.o)
 .gnu.attributes
                0x00000210       0x10 f:/program files/microchip/xc32/v2.50/bin/bin/../../lib/gcc/pic32mx/4.8.3/../../../../pic32mx/lib/size\libmchp_peripheral_32MX534F064H.a(dma_chn_disable_lib.o)
 .gnu.attributes
                0x00000220       0x10 f:/program files/microchip/xc32/v2.50/bin/bin/../../lib/gcc/pic32mx/4.8.3/../../../../pic32mx/lib/size\libmchp_peripheral_32MX534F064H.a(dma_chn_enable_lib.o)
 .gnu.attributes
                0x00000230       0x10 f:/program files/microchip/xc32/v2.50/bin/bin/../../lib/gcc/pic32mx/4.8.3/../../../../pic32mx/lib/size\libmchp_peripheral_32MX534F064H.a(dma_chn_get_dst_pnt_lib.o)
 .gnu.attributes
                0x00000240       0x10 f:/program files/microchip/xc32/v2.50/bin/bin/../../lib/gcc/pic32mx/4.8.3/../../../../pic32mx/lib/size\libmchp_peripheral_32MX534F064H.a(dma_chn_write_event_control_flags_lib.o)
 .gnu.attributes
                0x00000250       0x10 f:/program files/microchip/xc32/v2.50/bin/bin/../../lib/gcc/pic32mx/4.8.3/../../../../pic32mx/lib/size\libmchp_peripheral_32MX534F064H.a(dma_chn_set_txfer_lib.o)
 .gnu.attributes
                0x00000260       0x10 f:/program files/microchip/xc32/v2.50/bin/bin/../../lib/gcc/pic32mx/4.8.3/../../../../pic32mx/lib/size\libmchp_peripheral_32MX534F064H.a(dma_chn_write_ev_enable_flags_lib.o)
 .gnu.attributes
                0x00000270       0x10 f:/program files/microchip/xc32/v2.50/bin/bin/../../lib/gcc/pic32mx/4.8.3/../../../../pic32mx/lib/size\libmchp_peripheral_32MX534F064H.a(dma_reg_map_tbl_lib.o)
 .gnu.attributes
                0x00000280       0x10 f:/program files/microchip/xc32/v2.50/bin/bin/../../lib/gcc/pic32mx/4.8.3/../../../../pic32mx/lib/size\libmchp_peripheral_32MX534F064H.a(port_reset_pins_lib.o)
 .gnu.attributes
                0x00000290       0x10 f:/program files/microchip/xc32/v2.50/bin/bin/../../lib/gcc/pic32mx/4.8.3/../../../../pic32mx/lib/size\libmchp_peripheral_32MX534F064H.a(port_set_pins_digital_in_lib.o)
 .gnu.attributes
                0x000002a0       0x10 f:/program files/microchip/xc32/v2.50/bin/bin/../../lib/gcc/pic32mx/4.8.3/../../../../pic32mx/lib/size\libmchp_peripheral_32MX534F064H.a(port_set_pins_digital_out_lib.o)
 .gnu.attributes
                0x000002b0       0x10 f:/program files/microchip/xc32/v2.50/bin/bin/../../lib/gcc/pic32mx/4.8.3/../../../../pic32mx/lib/size\libmchp_peripheral_32MX534F064H.a(_ports_tbl_libp.o)
 .gnu.attributes
                0x000002c0       0x10 f:/program files/microchip/xc32/v2.50/bin/bin/../../lib/gcc/pic32mx/4.8.3/../../../../pic32mx/lib/size\libmchp_peripheral_32MX534F064H.a(I2CAcknowledgeByte.o)
 .gnu.attributes
                0x000002d0       0x10 f:/program files/microchip/xc32/v2.50/bin/bin/../../lib/gcc/pic32mx/4.8.3/../../../../pic32mx/lib/size\libmchp_peripheral_32MX534F064H.a(I2CByteWasAcknowledged.o)
 .gnu.attributes
                0x000002e0       0x10 f:/program files/microchip/xc32/v2.50/bin/bin/../../lib/gcc/pic32mx/4.8.3/../../../../pic32mx/lib/size\libmchp_peripheral_32MX534F064H.a(I2CEnable.o)
 .gnu.attributes
                0x000002f0       0x10 f:/program files/microchip/xc32/v2.50/bin/bin/../../lib/gcc/pic32mx/4.8.3/../../../../pic32mx/lib/size\libmchp_peripheral_32MX534F064H.a(I2CGetByte.o)
 .gnu.attributes
                0x00000300       0x10 f:/program files/microchip/xc32/v2.50/bin/bin/../../lib/gcc/pic32mx/4.8.3/../../../../pic32mx/lib/size\libmchp_peripheral_32MX534F064H.a(I2CReceiverEnable.o)
 .gnu.attributes
                0x00000310       0x10 f:/program files/microchip/xc32/v2.50/bin/bin/../../lib/gcc/pic32mx/4.8.3/../../../../pic32mx/lib/size\libmchp_peripheral_32MX534F064H.a(I2CSendByte.o)
 .gnu.attributes
                0x00000320       0x10 f:/program files/microchip/xc32/v2.50/bin/bin/../../lib/gcc/pic32mx/4.8.3/../../../../pic32mx/lib/size\libmchp_peripheral_32MX534F064H.a(I2CSetFrequency.o)
 .gnu.attributes
                0x00000330       0x10 f:/program files/microchip/xc32/v2.50/bin/bin/../../lib/gcc/pic32mx/4.8.3/../../../../pic32mx/lib/size\libmchp_peripheral_32MX534F064H.a(I2CStart.o)
 .gnu.attributes
                0x00000340       0x10 f:/program files/microchip/xc32/v2.50/bin/bin/../../lib/gcc/pic32mx/4.8.3/../../../../pic32mx/lib/size\libmchp_peripheral_32MX534F064H.a(I2CStop.o)
 .gnu.attributes
                0x00000350       0x10 f:/program files/microchip/xc32/v2.50/bin/bin/../../lib/gcc/pic32mx/4.8.3/../../../../pic32mx/lib/size\libmchp_peripheral_32MX534F064H.a(I2CPrivate.o)
 .gnu.attributes
                0x00000360       0x10 f:/program files/microchip/xc32/v2.50/bin/bin/../../lib/gcc/pic32mx/4.8.3/../../../../pic32mx/lib/size\libpic32.a(default-bootstrap-exception-handler.o)
 .gnu.attributes
                0x00000370       0x10 f:/program files/microchip/xc32/v2.50/bin/bin/../../lib/gcc/pic32mx/4.8.3/../../../../pic32mx/lib/size\libpic32.a(default-on-reset.o)
 .gnu.attributes
                0x00000380       0x10 f:/program files/microchip/xc32/v2.50/bin/bin/../../lib/gcc/pic32mx/4.8.3/../../../../pic32mx/lib/size\libpic32.a(default-on-bootstrap.o)
 .gnu.attributes
                0x00000390       0x10 f:/program files/microchip/xc32/v2.50/bin/bin/../../lib/gcc/pic32mx/4.8.3/../../../../pic32mx/lib/size\libpic32.a(default-general-exception-handler.o)
 .gnu.attributes
                0x000003a0       0x10 f:/program files/microchip/xc32/v2.50/bin/bin/../../lib/gcc/pic32mx/4.8.3/../../../../pic32mx/lib/size\libpic32.a(defaultinterrupt.o)
LOAD f:/program files/microchip/xc32/v2.50/bin/bin/../../lib/gcc/pic32mx/4.8.3/size\libgcc.a
START GROUP
LOAD f:/program files/microchip/xc32/v2.50/bin/bin/../../lib/gcc/pic32mx/4.8.3/../../../../pic32mx/lib/size\libpic32.a
LOAD f:/program files/microchip/xc32/v2.50/bin/bin/../../lib/gcc/pic32mx/4.8.3/../../../../pic32mx/lib/size\libdebug.a
LOAD f:/program files/microchip/xc32/v2.50/bin/bin/../../lib/gcc/pic32mx/4.8.3/../../../../pic32mx/lib/size\libpic32.a
LOAD f:/program files/microchip/xc32/v2.50/bin/bin/../../lib/gcc/pic32mx/4.8.3/../../../../pic32mx/lib/size\libc.a
LOAD f:/program files/microchip/xc32/v2.50/bin/bin/../../lib/gcc/pic32mx/4.8.3/../../../../pic32mx/lib/size\libc.a
LOAD f:/program files/microchip/xc32/v2.50/bin/bin/../../lib/gcc/pic32mx/4.8.3/../../../../pic32mx/lib/size\libm.a
LOAD f:/program files/microchip/xc32/v2.50/bin/bin/../../lib/gcc/pic32mx/4.8.3/../../../../pic32mx/lib/size\libe.a
LOAD f:/program files/microchip/xc32/v2.50/bin/bin/../../lib/gcc/pic32mx/4.8.3/../../../../pic32mx/lib/size\libdsp.a
LOAD f:/program files/microchip/xc32/v2.50/bin/bin/../../lib/gcc/pic32mx/4.8.3/size\libgcc.a
LOAD f:/program files/microchip/xc32/v2.50/bin/bin/../../lib/gcc/pic32mx/4.8.3/../../../../pic32mx/lib/size\libpic32.a
END GROUP
LOAD f:/program files/microchip/xc32/v2.50/bin/bin/../../lib/gcc/pic32mx/4.8.3/size\libgcc.a
OUTPUT(dist/PIC32_Standalone/production/US_Firmware.X.production.elf elf32-tradlittlemips)
LOAD stack
LOAD data_init

.reginfo        0x00000000       0x18
 .reginfo       0x00000000       0x18 f:/program files/microchip/xc32/v2.50/bin/bin/../../lib/gcc/pic32mx/4.8.3/../../../../pic32mx/lib/size\debug-exception-return.o

.stack          0xa00016b8      0x400
 .stack         0xa00016b8      0x400 stack

.bss            0xa0001648       0x24
 .bss           0xa0001648       0x24 build/PIC32_Standalone/production/menu.o

.data           0xa000166c       0x1c
 .data          0xa000166c       0x1c build/PIC32_Standalone/production/pars.o
                0xa000166c                StrOffOnAuto
                0xa0001678                StrResume

._debug_exception
                0xbfc00480       0x2c
 ._debug_exception
                0xbfc00480       0x2c f:/program files/microchip/xc32/v2.50/bin/bin/../../lib/gcc/pic32mx/4.8.3/../../../../pic32mx/lib/size\debug-exception-return.o
                0xbfc00480                __DbgExecReturn

.rodata         0x9d000000     0x1700
 .rodata        0x9d000000     0x1700 build/PIC32_Standalone/production/OLED.o
                0x9d000000                OLEDInitBuff2
                0x9d00000c                OLEDInitBuff1
                0x9d000014                font8x16
                0x9d000814                degrees4x16
                0x9d00081c                font6x8
                0x9d0009fc                font8x8
                0x9d000dfc                degrees4x8
                0x9d000e00                numbers32x48

.text           0x9d001700     0x29a8
 .text          0x9d001700     0x154c build/PIC32_Standalone/production/menu.o
                0x9d001701                MenuInit
                0x9d00177d                OLEDTasks
                0x9d002935                MenuTasks
 .text          0x9d002c4c     0x145c build/PIC32_Standalone/production/isr.o
                0x9d002c4d                ISRInit
                0x9d002ced                ISRStop
                0x9d002d61                ISRStart
                0x9d002e41                I2CAddCommands
                0x9d002e7d                OnPowerLost
                0x9d002ef9                ISRHigh
                0x9d003bcd                I2CISRTasks

.text           0x9d0040a8     0x2174
 .text          0x9d0040a8     0x136c build/PIC32_Standalone/production/usb/usb_device.o
                0x9d004135                USBDeviceInit
                0x9d0042e9                USBEnableEndpoint
                0x9d004365                USBTransferOnePacket
                0x9d004421                USBStallEndpoint
                0x9d0044b1                USBCancelIO
                0x9d0045dd                USBCtrlEPAllowStatusStage
                0x9d0046c1                USBCtrlEPAllowDataStage
                0x9d00478d                USBDeviceTasks
 .text          0x9d005414      0xe08 build/PIC32_Standalone/production/PIC32MX534F064H.o
                0x9d005415                mcuSqrt
                0x9d005431                DelayTicks
                0x9d005451                mcuJumpToBootLoader
                0x9d00546d                mcuSPIWait
                0x9d005481                mcuI2CReset
                0x9d005519                mcuInit2
                0x9d005721                mcuDCTimerReset
                0x9d005739                mcuInitISRTimer
                0x9d005799                mcuStartISRTimer
                0x9d0057c1                mcuStopISRTimer
                0x9d0057e9                mcuADCStop
                0x9d0058d9                mcuADCStartManual
                0x9d005959                mcuADCStartAuto
                0x9d005a71                mcuADCRead
                0x9d005ab5                mcuADCReadWait
                0x9d005b29                mcuReadTime_us
                0x9d005b50                ComparatorISR
                0x9d005c8c                Timer1ISR
                0x9d005d00                Timer2ISR
                0x9d005d7c                ADCISR
                0x9d005e28                I2CISR
                0x9d005f70                PIDISR
                0x9d006089                mcuSPIStop
                0x9d0060bd                mcuInit1
                0x9d006205                mcuSPISendAuto

.rodata         0x9d00621c      0x960
 .rodata        0x9d00621c      0x960 build/PIC32_Standalone/production/iron.o
                0x9d00621c                Irons
                0x9d006a70                NoIronPars
                0x9d006b14                NTC2252_B_1
                0x9d006b48                IDHash

.text           0x9d006b7c     0x11bc
 .text          0x9d006b7c      0x91c build/PIC32_Standalone/production/PID.o
                0x9d006b7d                PIDInit
                0x9d006bcd                PIDTasks
                0x9d006c55                PID
 .text          0x9d007498      0x8a0 build/PIC32_Standalone/production/OLED.o
                0x9d007499                OLEDUpdateDMA
                0x9d00751d                OLEDUpdate
                0x9d0075d9                OLEDFill
                0x9d007615                OLEDInit
                0x9d0078cd                OLEDFillGr
                0x9d0078ed                OLEDInvert
                0x9d00791d                OLEDWrite
                0x9d00795d                OLEDWriteXY
                0x9d0079f5                OLEDPrintNum3248
                0x9d007a65                OLEDPrintCF1648
                0x9d007aed                OLEDPrintNum
                0x9d007bed                OLEDPrintHex
                0x9d007c69                OLEDPrint
                0x9d007cd1                OLEDPrintXY

.text           0x9d007d38      0x824
 .text          0x9d007d38      0x824 build/PIC32_Standalone/production/main.o
                0x9d007d39                LoadPars
                0x9d007ddd                SavePars
                0x9d007e91                main

.rodata         0x9d00855c      0x7d4
 .rodata        0x9d00855c      0x7d4 f:/program files/microchip/xc32/v2.50/bin/bin/../../lib/gcc/pic32mx/4.8.3/../../../../pic32mx/lib/size\libmchp_peripheral_32MX534F064H.a(int_tbl_lib.o)
                0x9d00855c                __IntSrcTbl
                0x9d008a78                __IntVectorTbl

.text           0x9d008d30      0x714
 .text          0x9d008d30      0x3c0 build/PIC32_Standalone/production/io.o
                0x9d008d31                IOInit
                0x9d008d5d                ProcessIO
                0x9d0090c1                IOTasks
 .text          0x9d0090f0      0x354 build/PIC32_Standalone/production/iron.o
                0x9d0090f1                IronIdentify
                0x9d0093a1                IronInit
                0x9d0093c9                IronTasks

.text           0x9d009444      0x2b8
 .text          0x9d009444      0x2b8 build/PIC32_Standalone/production/sensorMath.o
                0x9d009445                GetSensorTemperature

.rodata         0x9d0096fc      0x290
 .rodata        0x9d0096fc      0x290 build/PIC32_Standalone/production/pars.o
                0x9d0097d8                ParDef

.text           0x9d00998c      0x2fc
 .text          0x9d00998c      0x194 build/PIC32_Standalone/production/pars.o
                0x9d00998d                ParDispStr
                0x9d0099d1                ParDispNum
                0x9d009a39                ParDispCF
                0x9d009a91                ParDispTemp
                0x9d009ae1                ParDispNumOff
 .text          0x9d009b20      0x168 f:/program files/microchip/xc32/v2.50/bin/bin/../../lib/gcc/pic32mx/4.8.3/../../../../pic32mx/lib/size\libpic32.a(memcpy.o)
                0x9d009b20                memcpy

.text.SpiChnOpen
                0x9d009c88      0x140
 .text.SpiChnOpen
                0x9d009c88      0x140 f:/program files/microchip/xc32/v2.50/bin/bin/../../lib/gcc/pic32mx/4.8.3/../../../../pic32mx/lib/size\libmchp_peripheral_32MX534F064H.a(spi_chn_open_lib.o)
                0x9d009c88                SpiChnOpen

.dinit          0x9d009dc8      0x130
 .dinit         0x9d009dc8      0x130 data_init

.rodata         0x9d009ef8      0x114
 .rodata        0x9d009ef8      0x114 build/PIC32_Standalone/production/menu.o

.text.DmaChnOpen
                0x9d00a00c       0xe4
 .text.DmaChnOpen
                0x9d00a00c       0xe4 f:/program files/microchip/xc32/v2.50/bin/bin/../../lib/gcc/pic32mx/4.8.3/../../../../pic32mx/lib/size\libmchp_peripheral_32MX534F064H.a(dma_chn_open_lib.o)
                0x9d00a00c                DmaChnOpen

.text.general_exception
                0x9d00a0f0       0xdc
 .text.general_exception
                0x9d00a0f0       0xdc f:/program files/microchip/xc32/v2.50/bin/bin/../../lib/gcc/pic32mx/4.8.3/../../../../pic32mx/lib/size\libpic32.a(general-exception.o)
                0x9d00a0f0                _general_exception_context

.rodata         0x9d00a1cc       0xd4
 .rodata        0x9d00a1cc       0xd4 build/PIC32_Standalone/production/usb/usb_descriptors.o
                0x9d00a1cc                USB_SD_Ptr
                0x9d00a1d8                USB_CD_Ptr
                0x9d00a1dc                hid_rpt01
                0x9d00a1f8                sd002
                0x9d00a228                sd001
                0x9d00a25c                sd000
                0x9d00a260                configDescriptor1
                0x9d00a28c                device_dsc

.text           0x9d00a2a0      0x1a0
 .text          0x9d00a2a0       0xd4 build/PIC32_Standalone/production/usb/usb_driver.o
                0x9d00a2a1                USBDriverInit
                0x9d00a2bd                USBCBSuspend
                0x9d00a2c1                USBCBWakeFromSuspend
                0x9d00a2c5                USBCB_SOF_Handler
                0x9d00a2c9                USBCBErrorHandler
                0x9d00a2cd                USBCBCheckOtherReq
                0x9d00a2dd                USBCBStdSetDscHandler
                0x9d00a2e1                USBCBInitEP
                0x9d00a30d                USBCBSendResume
                0x9d00a351                USER_USB_CALLBACK_EVENT_HANDLER
 .text          0x9d00a374       0xcc build/PIC32_Standalone/production/usb/usb_function_hid.o
                0x9d00a375                USBCheckHIDRequest

.text           0x9d00a440       0xc4
 .text          0x9d00a440       0xc4 build/PIC32_Standalone/production/EEP.o
                0x9d00a441                EEPWrite
                0x9d00a479                EEPWriteImm
                0x9d00a4b9                EEPRead

.text.SpiChnClose
                0x9d00a504       0xb8
 .text.SpiChnClose
                0x9d00a504       0xb8 f:/program files/microchip/xc32/v2.50/bin/bin/../../lib/gcc/pic32mx/4.8.3/../../../../pic32mx/lib/size\libmchp_peripheral_32MX534F064H.a(spi_chn_close_lib.o)
                0x9d00a504                SpiChnClose

.text.SpiChnPutS
                0x9d00a5bc       0xb0
 .text.SpiChnPutS
                0x9d00a5bc       0xb0 f:/program files/microchip/xc32/v2.50/bin/bin/../../lib/gcc/pic32mx/4.8.3/../../../../pic32mx/lib/size\libmchp_peripheral_32MX534F064H.a(spi_chn_puts_lib.o)
                0x9d00a5bc                SpiChnPutS

.text           0x9d00a66c       0xa8
 .text          0x9d00a66c       0xa8 f:/program files/microchip/xc32/v2.50/bin/bin/../../lib/gcc/pic32mx/4.8.3/../../../../pic32mx/lib/size\libpic32.a(memset.o)
                0x9d00a66c                memset

.rodata         0x9d00a714       0xa0
 .rodata        0x9d00a714       0xa0 f:/program files/microchip/xc32/v2.50/bin/bin/../../lib/gcc/pic32mx/4.8.3/../../../../pic32mx/lib/size\libmchp_peripheral_32MX534F064H.a(spi_io_tbl_libp.o)
                0x9d00a714                _SpiIoTbl

.text.SoftReset
                0x9d00a7b4       0x88
 .text.SoftReset
                0x9d00a7b4       0x88 f:/program files/microchip/xc32/v2.50/bin/bin/../../lib/gcc/pic32mx/4.8.3/../../../../pic32mx/lib/size\libmchp_peripheral_32MX534F064H.a(soft_reset_lib.o)
                0x9d00a7b4                SoftReset

.text           0x9d00a83c       0x84
 .text          0x9d00a83c       0x84 f:/program files/microchip/xc32/v2.50/bin/bin/../../lib/gcc/pic32mx/4.8.3/../../../../pic32mx/lib/size\libpic32.a(pic32_data_init.o)
                0x9d00a83c                __pic32_data_init

.text.DmaChnSetTxfer
                0x9d00a8c0       0x68
 .text.DmaChnSetTxfer
                0x9d00a8c0       0x68 f:/program files/microchip/xc32/v2.50/bin/bin/../../lib/gcc/pic32mx/4.8.3/../../../../pic32mx/lib/size\libmchp_peripheral_32MX534F064H.a(dma_chn_set_txfer_lib.o)
                0x9d00a8c0                DmaChnSetTxfer

.text.main_entry
                0x9d00a928       0x54
 .text.main_entry
                0x9d00a928       0x54 C:\Users\Sparky\AppData\Local\Temp\ccKRlJUm.o
                0x9d00a95c                __crt0_exit

.text.SpiChnPutC
                0x9d00a97c       0x54
 .text.SpiChnPutC
                0x9d00a97c       0x54 f:/program files/microchip/xc32/v2.50/bin/bin/../../lib/gcc/pic32mx/4.8.3/../../../../pic32mx/lib/size\libmchp_peripheral_32MX534F064H.a(spi_chn_putc_lib.o)
                0x9d00a97c                SpiChnPutC

.text.DmaChnAbortTxfer
                0x9d00a9d0       0x48
 .text.DmaChnAbortTxfer
                0x9d00a9d0       0x48 f:/program files/microchip/xc32/v2.50/bin/bin/../../lib/gcc/pic32mx/4.8.3/../../../../pic32mx/lib/size\libmchp_peripheral_32MX534F064H.a(dma_chn_abort_txfer_lib.o)
                0x9d00a9d0                DmaChnAbortTxfer

.rodata         0x9d00aa18       0x48
 .rodata        0x9d00aa18       0x48 f:/program files/microchip/xc32/v2.50/bin/bin/../../lib/gcc/pic32mx/4.8.3/../../../../pic32mx/lib/size\libmchp_peripheral_32MX534F064H.a(_ports_tbl_libp.o)
                0x9d00aa18                PortRegTbl

.text.I2CSetFrequency
                0x9d00aa60       0x48
 .text.I2CSetFrequency
                0x9d00aa60       0x48 f:/program files/microchip/xc32/v2.50/bin/bin/../../lib/gcc/pic32mx/4.8.3/../../../../pic32mx/lib/size\libmchp_peripheral_32MX534F064H.a(I2CSetFrequency.o)
                0x9d00aa60                I2CSetFrequency

.text._bootstrap_exception_handler
                0x9d00aaa8       0x48
 .text._bootstrap_exception_handler
                0x9d00aaa8       0x48 f:/program files/microchip/xc32/v2.50/bin/bin/../../lib/gcc/pic32mx/4.8.3/../../../../pic32mx/lib/size\libpic32.a(default-bootstrap-exception-handler.o)
                0x9d00aaa8                _bootstrap_exception_handler

.text._general_exception_handler
                0x9d00aaf0       0x48
 .text._general_exception_handler
                0x9d00aaf0       0x48 f:/program files/microchip/xc32/v2.50/bin/bin/../../lib/gcc/pic32mx/4.8.3/../../../../pic32mx/lib/size\libpic32.a(default-general-exception-handler.o)
                0x9d00aaf0                _general_exception_handler

.vector_default
                0x9d00ab38       0x48
 .vector_default
                0x9d00ab38       0x48 f:/program files/microchip/xc32/v2.50/bin/bin/../../lib/gcc/pic32mx/4.8.3/../../../../pic32mx/lib/size\libpic32.a(defaultinterrupt.o)
                0x9d00ab38                _DefaultInterrupt

.text           0x9d00ab80       0x44
 .text          0x9d00ab80       0x44 f:/program files/microchip/xc32/v2.50/bin/bin/../../lib/gcc/pic32mx/4.8.3/../../../../pic32mx/lib/size\pic32_software_reset.o
                0x9d00ab80                __pic32_software_reset

.text.I2CAcknowledgeByte
                0x9d00abc4       0x44
 .text.I2CAcknowledgeByte
                0x9d00abc4       0x44 f:/program files/microchip/xc32/v2.50/bin/bin/../../lib/gcc/pic32mx/4.8.3/../../../../pic32mx/lib/size\libmchp_peripheral_32MX534F064H.a(I2CAcknowledgeByte.o)
                0x9d00abc4                I2CAcknowledgeByte

.text.INTSetVectorPriority
                0x9d00ac08       0x3c
 .text.INTSetVectorPriority
                0x9d00ac08       0x3c f:/program files/microchip/xc32/v2.50/bin/bin/../../lib/gcc/pic32mx/4.8.3/../../../../pic32mx/lib/size\libmchp_peripheral_32MX534F064H.a(int_tbl_lib.o)
                0x9d00ac08                INTSetVectorPriority

.text.INTSetVectorSubPriority
                0x9d00ac44       0x3c
 .text.INTSetVectorSubPriority
                0x9d00ac44       0x3c f:/program files/microchip/xc32/v2.50/bin/bin/../../lib/gcc/pic32mx/4.8.3/../../../../pic32mx/lib/size\libmchp_peripheral_32MX534F064H.a(int_tbl_lib.o)
                0x9d00ac44                INTSetVectorSubPriority

.text.PORTSetPinsDigitalIn
                0x9d00ac80       0x3c
 .text.PORTSetPinsDigitalIn
                0x9d00ac80       0x3c f:/program files/microchip/xc32/v2.50/bin/bin/../../lib/gcc/pic32mx/4.8.3/../../../../pic32mx/lib/size\libmchp_peripheral_32MX534F064H.a(port_set_pins_digital_in_lib.o)
                0x9d00ac80                PORTSetPinsDigitalIn

.text.PORTSetPinsDigitalOut
                0x9d00acbc       0x3c
 .text.PORTSetPinsDigitalOut
                0x9d00acbc       0x3c f:/program files/microchip/xc32/v2.50/bin/bin/../../lib/gcc/pic32mx/4.8.3/../../../../pic32mx/lib/size\libmchp_peripheral_32MX534F064H.a(port_set_pins_digital_out_lib.o)
                0x9d00acbc                PORTSetPinsDigitalOut

.text.INTEnable
                0x9d00acf8       0x38
 .text.INTEnable
                0x9d00acf8       0x38 f:/program files/microchip/xc32/v2.50/bin/bin/../../lib/gcc/pic32mx/4.8.3/../../../../pic32mx/lib/size\libmchp_peripheral_32MX534F064H.a(int_tbl_lib.o)
                0x9d00acf8                INTEnable

.text.INTEnableSystemMultiVectoredInt
                0x9d00ad30       0x34
 .text.INTEnableSystemMultiVectoredInt
                0x9d00ad30       0x34 f:/program files/microchip/xc32/v2.50/bin/bin/../../lib/gcc/pic32mx/4.8.3/../../../../pic32mx/lib/size\libmchp_peripheral_32MX534F064H.a(int_enable_mv_int_lib.o)
                0x9d00ad30                INTEnableSystemMultiVectoredInt

.text.DmaChnDisable
                0x9d00ad64       0x34
 .text.DmaChnDisable
                0x9d00ad64       0x34 f:/program files/microchip/xc32/v2.50/bin/bin/../../lib/gcc/pic32mx/4.8.3/../../../../pic32mx/lib/size\libmchp_peripheral_32MX534F064H.a(dma_chn_disable_lib.o)
                0x9d00ad64                DmaChnDisable

.text.I2CReceiverEnable
                0x9d00ad98       0x34
 .text.I2CReceiverEnable
                0x9d00ad98       0x34 f:/program files/microchip/xc32/v2.50/bin/bin/../../lib/gcc/pic32mx/4.8.3/../../../../pic32mx/lib/size\libmchp_peripheral_32MX534F064H.a(I2CReceiverEnable.o)
                0x9d00ad98                I2CReceiverEnable

.text.I2CSendByte
                0x9d00adcc       0x30
 .text.I2CSendByte
                0x9d00adcc       0x30 f:/program files/microchip/xc32/v2.50/bin/bin/../../lib/gcc/pic32mx/4.8.3/../../../../pic32mx/lib/size\libmchp_peripheral_32MX534F064H.a(I2CSendByte.o)
                0x9d00adcc                I2CSendByte

.text.I2CStart  0x9d00adfc       0x30
 .text.I2CStart
                0x9d00adfc       0x30 f:/program files/microchip/xc32/v2.50/bin/bin/../../lib/gcc/pic32mx/4.8.3/../../../../pic32mx/lib/size\libmchp_peripheral_32MX534F064H.a(I2CStart.o)
                0x9d00adfc                I2CStart

.text.DmaChnWriteEventControlFlags
                0x9d00ae2c       0x2c
 .text.DmaChnWriteEventControlFlags
                0x9d00ae2c       0x2c f:/program files/microchip/xc32/v2.50/bin/bin/../../lib/gcc/pic32mx/4.8.3/../../../../pic32mx/lib/size\libmchp_peripheral_32MX534F064H.a(dma_chn_write_event_control_flags_lib.o)
                0x9d00ae2c                DmaChnWriteEventControlFlags

.text.DmaChnWriteEvEnableFlags
                0x9d00ae58       0x2c
 .text.DmaChnWriteEvEnableFlags
                0x9d00ae58       0x2c f:/program files/microchip/xc32/v2.50/bin/bin/../../lib/gcc/pic32mx/4.8.3/../../../../pic32mx/lib/size\libmchp_peripheral_32MX534F064H.a(dma_chn_write_ev_enable_flags_lib.o)
                0x9d00ae58                DmaChnWriteEvEnableFlags

.text.INTClearFlag
                0x9d00ae84       0x28
 .text.INTClearFlag
                0x9d00ae84       0x28 f:/program files/microchip/xc32/v2.50/bin/bin/../../lib/gcc/pic32mx/4.8.3/../../../../pic32mx/lib/size\libmchp_peripheral_32MX534F064H.a(int_tbl_lib.o)
                0x9d00ae84                INTClearFlag

.text.INTSetFlag
                0x9d00aeac       0x28
 .text.INTSetFlag
                0x9d00aeac       0x28 f:/program files/microchip/xc32/v2.50/bin/bin/../../lib/gcc/pic32mx/4.8.3/../../../../pic32mx/lib/size\libmchp_peripheral_32MX534F064H.a(int_tbl_lib.o)
                0x9d00aeac                INTSetFlag

.text.PORTResetPins
                0x9d00aed4       0x28
 .text.PORTResetPins
                0x9d00aed4       0x28 f:/program files/microchip/xc32/v2.50/bin/bin/../../lib/gcc/pic32mx/4.8.3/../../../../pic32mx/lib/size\libmchp_peripheral_32MX534F064H.a(port_reset_pins_lib.o)
                0x9d00aed4                PORTResetPins

.text.I2CEnable
                0x9d00aefc       0x28
 .text.I2CEnable
                0x9d00aefc       0x28 f:/program files/microchip/xc32/v2.50/bin/bin/../../lib/gcc/pic32mx/4.8.3/../../../../pic32mx/lib/size\libmchp_peripheral_32MX534F064H.a(I2CEnable.o)
                0x9d00aefc                I2CEnable

.text.DmaChnEnable
                0x9d00af24       0x24
 .text.DmaChnEnable
                0x9d00af24       0x24 f:/program files/microchip/xc32/v2.50/bin/bin/../../lib/gcc/pic32mx/4.8.3/../../../../pic32mx/lib/size\libmchp_peripheral_32MX534F064H.a(dma_chn_enable_lib.o)
                0x9d00af24                DmaChnEnable

.text.I2CByteWasAcknowledged
                0x9d00af48       0x24
 .text.I2CByteWasAcknowledged
                0x9d00af48       0x24 f:/program files/microchip/xc32/v2.50/bin/bin/../../lib/gcc/pic32mx/4.8.3/../../../../pic32mx/lib/size\libmchp_peripheral_32MX534F064H.a(I2CByteWasAcknowledged.o)
                0x9d00af48                I2CByteWasAcknowledged

.text.I2CStop   0x9d00af6c       0x24
 .text.I2CStop  0x9d00af6c       0x24 f:/program files/microchip/xc32/v2.50/bin/bin/../../lib/gcc/pic32mx/4.8.3/../../../../pic32mx/lib/size\libmchp_peripheral_32MX534F064H.a(I2CStop.o)
                0x9d00af6c                I2CStop

.text.SpiChnIsBusy
                0x9d00af90       0x20
 .text.SpiChnIsBusy
                0x9d00af90       0x20 f:/program files/microchip/xc32/v2.50/bin/bin/../../lib/gcc/pic32mx/4.8.3/../../../../pic32mx/lib/size\libmchp_peripheral_32MX534F064H.a(spi_chn_is_busy_lib.o)
                0x9d00af90                SpiChnIsBusy

.text.DmaChnGetDstPnt
                0x9d00afb0       0x20
 .text.DmaChnGetDstPnt
                0x9d00afb0       0x20 f:/program files/microchip/xc32/v2.50/bin/bin/../../lib/gcc/pic32mx/4.8.3/../../../../pic32mx/lib/size\libmchp_peripheral_32MX534F064H.a(dma_chn_get_dst_pnt_lib.o)
                0x9d00afb0                DmaChnGetDstPnt

.text.I2CGetByte
                0x9d00afd0       0x20
 .text.I2CGetByte
                0x9d00afd0       0x20 f:/program files/microchip/xc32/v2.50/bin/bin/../../lib/gcc/pic32mx/4.8.3/../../../../pic32mx/lib/size\libmchp_peripheral_32MX534F064H.a(I2CGetByte.o)
                0x9d00afd0                I2CGetByte

.text.INTRestoreInterrupts
                0x9d00aff0       0x1c
 .text.INTRestoreInterrupts
                0x9d00aff0       0x1c f:/program files/microchip/xc32/v2.50/bin/bin/../../lib/gcc/pic32mx/4.8.3/../../../../pic32mx/lib/size\libmchp_peripheral_32MX534F064H.a(int_restore_interrupts_lib.o)
                0x9d00aff0                INTRestoreInterrupts

.text           0x9d00b00c       0x18
 .text          0x9d00b00c       0x18 f:/program files/microchip/xc32/v2.50/bin/bin/../../lib/gcc/pic32mx/4.8.3/../../../../pic32mx/lib/size\libpic32.a(default-nmi-handler.o)
                0x9d00b00c                _nmi_handler

.rodata         0x9d00b024       0x24
 .rodata        0x9d00b024       0x14 f:/program files/microchip/xc32/v2.50/bin/bin/../../lib/gcc/pic32mx/4.8.3/../../../../pic32mx/lib/size\libmchp_peripheral_32MX534F064H.a(spi_map_tbl_libp.o)
                0x9d00b024                _SpiMapTbl
 .rodata        0x9d00b038       0x10 f:/program files/microchip/xc32/v2.50/bin/bin/../../lib/gcc/pic32mx/4.8.3/../../../../pic32mx/lib/size\libmchp_peripheral_32MX534F064H.a(I2CPrivate.o)
                0x9d00b038                i2cBase

.text.OpenCoreTimer
                0x9d00b048        0xc
 .text.OpenCoreTimer
                0x9d00b048        0xc f:/program files/microchip/xc32/v2.50/bin/bin/../../lib/gcc/pic32mx/4.8.3/../../../../pic32mx/lib/size\libmchp_peripheral.a(open_core_timer_lib.o)
                0x9d00b048                OpenCoreTimer

.text.ReadCoreTimer
                0x9d00b054        0x8
 .text.ReadCoreTimer
                0x9d00b054        0x8 f:/program files/microchip/xc32/v2.50/bin/bin/../../lib/gcc/pic32mx/4.8.3/../../../../pic32mx/lib/size\libmchp_peripheral.a(read_core_timer_lib.o)
                0x9d00b054                ReadCoreTimer

.text.INTEnableInterrupts
                0x9d00b05c        0x8
 .text.INTEnableInterrupts
                0x9d00b05c        0x8 f:/program files/microchip/xc32/v2.50/bin/bin/../../lib/gcc/pic32mx/4.8.3/../../../../pic32mx/lib/size\libmchp_peripheral_32MX534F064H.a(int_enable_interrupts_lib.o)
                0x9d00b05c                INTEnableInterrupts

.text.INTDisableInterrupts
                0x9d00b064        0x8
 .text.INTDisableInterrupts
                0x9d00b064        0x8 f:/program files/microchip/xc32/v2.50/bin/bin/../../lib/gcc/pic32mx/4.8.3/../../../../pic32mx/lib/size\libmchp_peripheral_32MX534F064H.a(int_disable_interrupts_lib.o)
                0x9d00b064                INTDisableInterrupts

.text._on_reset
                0x9d00b06c        0x8
 .text._on_reset
                0x9d00b06c        0x8 f:/program files/microchip/xc32/v2.50/bin/bin/../../lib/gcc/pic32mx/4.8.3/../../../../pic32mx/lib/size\libpic32.a(default-on-reset.o)
                0x9d00b06c                _on_reset

.text._on_bootstrap
                0x9d00b074        0x8
 .text._on_bootstrap
                0x9d00b074        0x8 f:/program files/microchip/xc32/v2.50/bin/bin/../../lib/gcc/pic32mx/4.8.3/../../../../pic32mx/lib/size\libpic32.a(default-on-bootstrap.o)
                0x9d00b074                _on_bootstrap

.rodata         0x9d00b07c        0x4
 .rodata        0x9d00b07c        0x4 f:/program files/microchip/xc32/v2.50/bin/bin/../../lib/gcc/pic32mx/4.8.3/../../../../pic32mx/lib/size\libmchp_peripheral_32MX534F064H.a(dma_reg_map_tbl_lib.o)
                0x9d00b07c                _DmaMapTbl
